
src/uniq:     file format elf32-i386


Disassembly of section .init:

080490d4 <_init>:
 80490d4:	53                   	push   %ebx
 80490d5:	83 ec 08             	sub    $0x8,%esp
 80490d8:	e8 e3 7d 00 00       	call   8050ec0 <__x86.get_pc_thunk.bx>
 80490dd:	81 c3 2f 10 02 00    	add    $0x2102f,%ebx
 80490e3:	8b 83 f8 ff ff ff    	mov    -0x8(%ebx),%eax
 80490e9:	85 c0                	test   %eax,%eax
 80490eb:	74 05                	je     80490f2 <_init+0x1e>
 80490ed:	e8 2e 02 00 00       	call   8049320 <__gmon_start__@plt>
 80490f2:	83 c4 08             	add    $0x8,%esp
 80490f5:	5b                   	pop    %ebx
 80490f6:	c3                   	ret    

Disassembly of section .plt:

08049100 <__ctype_toupper_loc@plt-0x10>:
 8049100:	ff 35 10 a1 06 08    	pushl  0x806a110
 8049106:	ff 25 14 a1 06 08    	jmp    *0x806a114
 804910c:	00 00                	add    %al,(%eax)
	...

08049110 <__ctype_toupper_loc@plt>:
 8049110:	ff 25 18 a1 06 08    	jmp    *0x806a118
 8049116:	68 00 00 00 00       	push   $0x0
 804911b:	e9 e0 ff ff ff       	jmp    8049100 <_init+0x2c>

08049120 <freopen64@plt>:
 8049120:	ff 25 1c a1 06 08    	jmp    *0x806a11c
 8049126:	68 08 00 00 00       	push   $0x8
 804912b:	e9 d0 ff ff ff       	jmp    8049100 <_init+0x2c>

08049130 <dup2@plt>:
 8049130:	ff 25 20 a1 06 08    	jmp    *0x806a120
 8049136:	68 10 00 00 00       	push   $0x10
 804913b:	e9 c0 ff ff ff       	jmp    8049100 <_init+0x2c>

08049140 <strcmp@plt>:
 8049140:	ff 25 24 a1 06 08    	jmp    *0x806a124
 8049146:	68 18 00 00 00       	push   $0x18
 804914b:	e9 b0 ff ff ff       	jmp    8049100 <_init+0x2c>

08049150 <open64@plt>:
 8049150:	ff 25 28 a1 06 08    	jmp    *0x806a128
 8049156:	68 20 00 00 00       	push   $0x20
 804915b:	e9 a0 ff ff ff       	jmp    8049100 <_init+0x2c>

08049160 <read@plt>:
 8049160:	ff 25 2c a1 06 08    	jmp    *0x806a12c
 8049166:	68 28 00 00 00       	push   $0x28
 804916b:	e9 90 ff ff ff       	jmp    8049100 <_init+0x2c>

08049170 <printf@plt>:
 8049170:	ff 25 30 a1 06 08    	jmp    *0x806a130
 8049176:	68 30 00 00 00       	push   $0x30
 804917b:	e9 80 ff ff ff       	jmp    8049100 <_init+0x2c>

08049180 <fflush@plt>:
 8049180:	ff 25 34 a1 06 08    	jmp    *0x806a134
 8049186:	68 38 00 00 00       	push   $0x38
 804918b:	e9 70 ff ff ff       	jmp    8049100 <_init+0x2c>

08049190 <_exit@plt>:
 8049190:	ff 25 38 a1 06 08    	jmp    *0x806a138
 8049196:	68 40 00 00 00       	push   $0x40
 804919b:	e9 60 ff ff ff       	jmp    8049100 <_init+0x2c>

080491a0 <free@plt>:
 80491a0:	ff 25 3c a1 06 08    	jmp    *0x806a13c
 80491a6:	68 48 00 00 00       	push   $0x48
 80491ab:	e9 50 ff ff ff       	jmp    8049100 <_init+0x2c>

080491b0 <memcpy@plt>:
 80491b0:	ff 25 40 a1 06 08    	jmp    *0x806a140
 80491b6:	68 50 00 00 00       	push   $0x50
 80491bb:	e9 40 ff ff ff       	jmp    8049100 <_init+0x2c>

080491c0 <mbsinit@plt>:
 80491c0:	ff 25 44 a1 06 08    	jmp    *0x806a144
 80491c6:	68 58 00 00 00       	push   $0x58
 80491cb:	e9 30 ff ff ff       	jmp    8049100 <_init+0x2c>

080491d0 <fclose@plt>:
 80491d0:	ff 25 48 a1 06 08    	jmp    *0x806a148
 80491d6:	68 60 00 00 00       	push   $0x60
 80491db:	e9 20 ff ff ff       	jmp    8049100 <_init+0x2c>

080491e0 <fseeko64@plt>:
 80491e0:	ff 25 4c a1 06 08    	jmp    *0x806a14c
 80491e6:	68 68 00 00 00       	push   $0x68
 80491eb:	e9 10 ff ff ff       	jmp    8049100 <_init+0x2c>

080491f0 <memcmp@plt>:
 80491f0:	ff 25 50 a1 06 08    	jmp    *0x806a150
 80491f6:	68 70 00 00 00       	push   $0x70
 80491fb:	e9 00 ff ff ff       	jmp    8049100 <_init+0x2c>

08049200 <dprintf@plt>:
 8049200:	ff 25 54 a1 06 08    	jmp    *0x806a154
 8049206:	68 78 00 00 00       	push   $0x78
 804920b:	e9 f0 fe ff ff       	jmp    8049100 <_init+0x2c>

08049210 <dcgettext@plt>:
 8049210:	ff 25 58 a1 06 08    	jmp    *0x806a158
 8049216:	68 80 00 00 00       	push   $0x80
 804921b:	e9 e0 fe ff ff       	jmp    8049100 <_init+0x2c>

08049220 <shmat@plt>:
 8049220:	ff 25 5c a1 06 08    	jmp    *0x806a15c
 8049226:	68 88 00 00 00       	push   $0x88
 804922b:	e9 d0 fe ff ff       	jmp    8049100 <_init+0x2c>

08049230 <textdomain@plt>:
 8049230:	ff 25 60 a1 06 08    	jmp    *0x806a160
 8049236:	68 90 00 00 00       	push   $0x90
 804923b:	e9 c0 fe ff ff       	jmp    8049100 <_init+0x2c>

08049240 <iswprint@plt>:
 8049240:	ff 25 64 a1 06 08    	jmp    *0x806a164
 8049246:	68 98 00 00 00       	push   $0x98
 804924b:	e9 b0 fe ff ff       	jmp    8049100 <_init+0x2c>

08049250 <fwrite@plt>:
 8049250:	ff 25 68 a1 06 08    	jmp    *0x806a168
 8049256:	68 a0 00 00 00       	push   $0xa0
 804925b:	e9 a0 fe ff ff       	jmp    8049100 <_init+0x2c>

08049260 <__ctype_get_mb_cur_max@plt>:
 8049260:	ff 25 6c a1 06 08    	jmp    *0x806a16c
 8049266:	68 a8 00 00 00       	push   $0xa8
 804926b:	e9 90 fe ff ff       	jmp    8049100 <_init+0x2c>

08049270 <waitpid@plt>:
 8049270:	ff 25 70 a1 06 08    	jmp    *0x806a170
 8049276:	68 b0 00 00 00       	push   $0xb0
 804927b:	e9 80 fe ff ff       	jmp    8049100 <_init+0x2c>

08049280 <strcpy@plt>:
 8049280:	ff 25 74 a1 06 08    	jmp    *0x806a174
 8049286:	68 b8 00 00 00       	push   $0xb8
 804928b:	e9 70 fe ff ff       	jmp    8049100 <_init+0x2c>

08049290 <__fpending@plt>:
 8049290:	ff 25 78 a1 06 08    	jmp    *0x806a178
 8049296:	68 c0 00 00 00       	push   $0xc0
 804929b:	e9 60 fe ff ff       	jmp    8049100 <_init+0x2c>

080492a0 <mbrtowc@plt>:
 80492a0:	ff 25 7c a1 06 08    	jmp    *0x806a17c
 80492a6:	68 c8 00 00 00       	push   $0xc8
 80492ab:	e9 50 fe ff ff       	jmp    8049100 <_init+0x2c>

080492b0 <__cxa_atexit@plt>:
 80492b0:	ff 25 80 a1 06 08    	jmp    *0x806a180
 80492b6:	68 d0 00 00 00       	push   $0xd0
 80492bb:	e9 40 fe ff ff       	jmp    8049100 <_init+0x2c>

080492c0 <error@plt>:
 80492c0:	ff 25 84 a1 06 08    	jmp    *0x806a184
 80492c6:	68 d8 00 00 00       	push   $0xd8
 80492cb:	e9 30 fe ff ff       	jmp    8049100 <_init+0x2c>

080492d0 <strcoll@plt>:
 80492d0:	ff 25 88 a1 06 08    	jmp    *0x806a188
 80492d6:	68 e0 00 00 00       	push   $0xe0
 80492db:	e9 20 fe ff ff       	jmp    8049100 <_init+0x2c>

080492e0 <getenv@plt>:
 80492e0:	ff 25 8c a1 06 08    	jmp    *0x806a18c
 80492e6:	68 e8 00 00 00       	push   $0xe8
 80492eb:	e9 10 fe ff ff       	jmp    8049100 <_init+0x2c>

080492f0 <realloc@plt>:
 80492f0:	ff 25 90 a1 06 08    	jmp    *0x806a190
 80492f6:	68 f0 00 00 00       	push   $0xf0
 80492fb:	e9 00 fe ff ff       	jmp    8049100 <_init+0x2c>

08049300 <malloc@plt>:
 8049300:	ff 25 94 a1 06 08    	jmp    *0x806a194
 8049306:	68 f8 00 00 00       	push   $0xf8
 804930b:	e9 f0 fd ff ff       	jmp    8049100 <_init+0x2c>

08049310 <__freading@plt>:
 8049310:	ff 25 98 a1 06 08    	jmp    *0x806a198
 8049316:	68 00 01 00 00       	push   $0x100
 804931b:	e9 e0 fd ff ff       	jmp    8049100 <_init+0x2c>

08049320 <__gmon_start__@plt>:
 8049320:	ff 25 9c a1 06 08    	jmp    *0x806a19c
 8049326:	68 08 01 00 00       	push   $0x108
 804932b:	e9 d0 fd ff ff       	jmp    8049100 <_init+0x2c>

08049330 <exit@plt>:
 8049330:	ff 25 a0 a1 06 08    	jmp    *0x806a1a0
 8049336:	68 10 01 00 00       	push   $0x110
 804933b:	e9 c0 fd ff ff       	jmp    8049100 <_init+0x2c>

08049340 <fdopen@plt>:
 8049340:	ff 25 a4 a1 06 08    	jmp    *0x806a1a4
 8049346:	68 18 01 00 00       	push   $0x118
 804934b:	e9 b0 fd ff ff       	jmp    8049100 <_init+0x2c>

08049350 <fputs_unlocked@plt>:
 8049350:	ff 25 a8 a1 06 08    	jmp    *0x806a1a8
 8049356:	68 20 01 00 00       	push   $0x120
 804935b:	e9 a0 fd ff ff       	jmp    8049100 <_init+0x2c>

08049360 <getopt_long@plt>:
 8049360:	ff 25 ac a1 06 08    	jmp    *0x806a1ac
 8049366:	68 28 01 00 00       	push   $0x128
 804936b:	e9 90 fd ff ff       	jmp    8049100 <_init+0x2c>

08049370 <strtoul@plt>:
 8049370:	ff 25 b0 a1 06 08    	jmp    *0x806a1b0
 8049376:	68 30 01 00 00       	push   $0x130
 804937b:	e9 80 fd ff ff       	jmp    8049100 <_init+0x2c>

08049380 <strchr@plt>:
 8049380:	ff 25 b4 a1 06 08    	jmp    *0x806a1b4
 8049386:	68 38 01 00 00       	push   $0x138
 804938b:	e9 70 fd ff ff       	jmp    8049100 <_init+0x2c>

08049390 <fscanf@plt>:
 8049390:	ff 25 b8 a1 06 08    	jmp    *0x806a1b8
 8049396:	68 40 01 00 00       	push   $0x140
 804939b:	e9 60 fd ff ff       	jmp    8049100 <_init+0x2c>

080493a0 <strlen@plt>:
 80493a0:	ff 25 bc a1 06 08    	jmp    *0x806a1bc
 80493a6:	68 48 01 00 00       	push   $0x148
 80493ab:	e9 50 fd ff ff       	jmp    8049100 <_init+0x2c>

080493b0 <__libc_start_main@plt>:
 80493b0:	ff 25 c0 a1 06 08    	jmp    *0x806a1c0
 80493b6:	68 50 01 00 00       	push   $0x150
 80493bb:	e9 40 fd ff ff       	jmp    8049100 <_init+0x2c>

080493c0 <fprintf@plt>:
 80493c0:	ff 25 c4 a1 06 08    	jmp    *0x806a1c4
 80493c6:	68 58 01 00 00       	push   $0x158
 80493cb:	e9 30 fd ff ff       	jmp    8049100 <_init+0x2c>

080493d0 <write@plt>:
 80493d0:	ff 25 c8 a1 06 08    	jmp    *0x806a1c8
 80493d6:	68 60 01 00 00       	push   $0x160
 80493db:	e9 20 fd ff ff       	jmp    8049100 <_init+0x2c>

080493e0 <memset@plt>:
 80493e0:	ff 25 cc a1 06 08    	jmp    *0x806a1cc
 80493e6:	68 68 01 00 00       	push   $0x168
 80493eb:	e9 10 fd ff ff       	jmp    8049100 <_init+0x2c>

080493f0 <ungetc@plt>:
 80493f0:	ff 25 d0 a1 06 08    	jmp    *0x806a1d0
 80493f6:	68 70 01 00 00       	push   $0x170
 80493fb:	e9 00 fd ff ff       	jmp    8049100 <_init+0x2c>

08049400 <__errno_location@plt>:
 8049400:	ff 25 d4 a1 06 08    	jmp    *0x806a1d4
 8049406:	68 78 01 00 00       	push   $0x178
 804940b:	e9 f0 fc ff ff       	jmp    8049100 <_init+0x2c>

08049410 <fileno@plt>:
 8049410:	ff 25 d8 a1 06 08    	jmp    *0x806a1d8
 8049416:	68 80 01 00 00       	push   $0x180
 804941b:	e9 e0 fc ff ff       	jmp    8049100 <_init+0x2c>

08049420 <fwrite_unlocked@plt>:
 8049420:	ff 25 dc a1 06 08    	jmp    *0x806a1dc
 8049426:	68 88 01 00 00       	push   $0x188
 804942b:	e9 d0 fc ff ff       	jmp    8049100 <_init+0x2c>

08049430 <__printf_chk@plt>:
 8049430:	ff 25 e0 a1 06 08    	jmp    *0x806a1e0
 8049436:	68 90 01 00 00       	push   $0x190
 804943b:	e9 c0 fc ff ff       	jmp    8049100 <_init+0x2c>

08049440 <fork@plt>:
 8049440:	ff 25 e4 a1 06 08    	jmp    *0x806a1e4
 8049446:	68 98 01 00 00       	push   $0x198
 804944b:	e9 b0 fc ff ff       	jmp    8049100 <_init+0x2c>

08049450 <__uflow@plt>:
 8049450:	ff 25 e8 a1 06 08    	jmp    *0x806a1e8
 8049456:	68 a0 01 00 00       	push   $0x1a0
 804945b:	e9 a0 fc ff ff       	jmp    8049100 <_init+0x2c>

08049460 <nl_langinfo@plt>:
 8049460:	ff 25 ec a1 06 08    	jmp    *0x806a1ec
 8049466:	68 a8 01 00 00       	push   $0x1a8
 804946b:	e9 90 fc ff ff       	jmp    8049100 <_init+0x2c>

08049470 <setlocale@plt>:
 8049470:	ff 25 f0 a1 06 08    	jmp    *0x806a1f0
 8049476:	68 b0 01 00 00       	push   $0x1b0
 804947b:	e9 80 fc ff ff       	jmp    8049100 <_init+0x2c>

08049480 <strrchr@plt>:
 8049480:	ff 25 f4 a1 06 08    	jmp    *0x806a1f4
 8049486:	68 b8 01 00 00       	push   $0x1b8
 804948b:	e9 70 fc ff ff       	jmp    8049100 <_init+0x2c>

08049490 <__overflow@plt>:
 8049490:	ff 25 f8 a1 06 08    	jmp    *0x806a1f8
 8049496:	68 c0 01 00 00       	push   $0x1c0
 804949b:	e9 60 fc ff ff       	jmp    8049100 <_init+0x2c>

080494a0 <atoi@plt>:
 80494a0:	ff 25 fc a1 06 08    	jmp    *0x806a1fc
 80494a6:	68 c8 01 00 00       	push   $0x1c8
 80494ab:	e9 50 fc ff ff       	jmp    8049100 <_init+0x2c>

080494b0 <lseek64@plt>:
 80494b0:	ff 25 00 a2 06 08    	jmp    *0x806a200
 80494b6:	68 d0 01 00 00       	push   $0x1d0
 80494bb:	e9 40 fc ff ff       	jmp    8049100 <_init+0x2c>

080494c0 <__fprintf_chk@plt>:
 80494c0:	ff 25 04 a2 06 08    	jmp    *0x806a204
 80494c6:	68 d8 01 00 00       	push   $0x1d8
 80494cb:	e9 30 fc ff ff       	jmp    8049100 <_init+0x2c>

080494d0 <bindtextdomain@plt>:
 80494d0:	ff 25 08 a2 06 08    	jmp    *0x806a208
 80494d6:	68 e0 01 00 00       	push   $0x1e0
 80494db:	e9 20 fc ff ff       	jmp    8049100 <_init+0x2c>

080494e0 <posix_fadvise64@plt>:
 80494e0:	ff 25 0c a2 06 08    	jmp    *0x806a20c
 80494e6:	68 e8 01 00 00       	push   $0x1e8
 80494eb:	e9 10 fc ff ff       	jmp    8049100 <_init+0x2c>

080494f0 <strncmp@plt>:
 80494f0:	ff 25 10 a2 06 08    	jmp    *0x806a210
 80494f6:	68 f0 01 00 00       	push   $0x1f0
 80494fb:	e9 00 fc ff ff       	jmp    8049100 <_init+0x2c>

08049500 <abort@plt>:
 8049500:	ff 25 14 a2 06 08    	jmp    *0x806a214
 8049506:	68 f8 01 00 00       	push   $0x1f8
 804950b:	e9 f0 fb ff ff       	jmp    8049100 <_init+0x2c>

08049510 <strtol@plt>:
 8049510:	ff 25 18 a2 06 08    	jmp    *0x806a218
 8049516:	68 00 02 00 00       	push   $0x200
 804951b:	e9 e0 fb ff ff       	jmp    8049100 <_init+0x2c>

08049520 <close@plt>:
 8049520:	ff 25 1c a2 06 08    	jmp    *0x806a21c
 8049526:	68 08 02 00 00       	push   $0x208
 804952b:	e9 d0 fb ff ff       	jmp    8049100 <_init+0x2c>

08049530 <__assert_fail@plt>:
 8049530:	ff 25 20 a2 06 08    	jmp    *0x806a220
 8049536:	68 10 02 00 00       	push   $0x210
 804953b:	e9 c0 fb ff ff       	jmp    8049100 <_init+0x2c>

08049540 <__ctype_b_loc@plt>:
 8049540:	ff 25 24 a2 06 08    	jmp    *0x806a224
 8049546:	68 18 02 00 00       	push   $0x218
 804954b:	e9 b0 fb ff ff       	jmp    8049100 <_init+0x2c>

08049550 <calloc@plt>:
 8049550:	ff 25 28 a2 06 08    	jmp    *0x806a228
 8049556:	68 20 02 00 00       	push   $0x220
 804955b:	e9 a0 fb ff ff       	jmp    8049100 <_init+0x2c>

Disassembly of section .text:

08049560 <main>:



int
main (int argc, char **argv)
{
 8049560:	8d 64 24 f0          	lea    -0x10(%esp),%esp
 8049564:	89 3c 24             	mov    %edi,(%esp)
 8049567:	89 54 24 04          	mov    %edx,0x4(%esp)
 804956b:	89 4c 24 08          	mov    %ecx,0x8(%esp)
 804956f:	89 44 24 0c          	mov    %eax,0xc(%esp)
 8049573:	b9 19 2d 00 00       	mov    $0x2d19,%ecx
 8049578:	e8 cb b3 00 00       	call   8054948 <__afl_maybe_log>
 804957d:	8b 44 24 0c          	mov    0xc(%esp),%eax
 8049581:	8b 4c 24 08          	mov    0x8(%esp),%ecx
 8049585:	8b 54 24 04          	mov    0x4(%esp),%edx
 8049589:	8b 3c 24             	mov    (%esp),%edi
 804958c:	8d 64 24 10          	lea    0x10(%esp),%esp
 8049590:	8d 4c 24 04          	lea    0x4(%esp),%ecx
 8049594:	83 e4 f0             	and    $0xfffffff0,%esp
 8049597:	ff 71 fc             	pushl  -0x4(%ecx)
 804959a:	55                   	push   %ebp
 804959b:	89 e5                	mov    %esp,%ebp
 804959d:	57                   	push   %edi
 804959e:	56                   	push   %esi
 804959f:	53                   	push   %ebx
 80495a0:	51                   	push   %ecx
 80495a1:	83 ec 74             	sub    $0x74,%esp
 80495a4:	8b 41 04             	mov    0x4(%ecx),%eax
 80495a7:	8b 39                	mov    (%ecx),%edi
  	

int optc = 0;
  bool posixly_correct = (getenv ("POSIXLY_CORRECT") != NULL);
 80495a9:	68 b7 5b 06 08       	push   $0x8065bb7



int
main (int argc, char **argv)
{
 80495ae:	89 c6                	mov    %eax,%esi
 80495b0:	89 45 b8             	mov    %eax,-0x48(%ebp)
  	

int optc = 0;
  bool posixly_correct = (getenv ("POSIXLY_CORRECT") != NULL);
 80495b3:	e8 28 fd ff ff       	call   80492e0 <getenv@plt>
 80495b8:	5a                   	pop    %edx
  char delimiter = '\n';	/* change with --zero-terminated, -z */
  bool output_option_used = false;   /* if true, one of -u/-d/-D/-c was used */

  file[0] = file[1] = "-";
  initialize_main (&argc, &argv);
  set_program_name (argv[0]);
 80495b9:	ff 36                	pushl  (%esi)
main (int argc, char **argv)
{
  	

int optc = 0;
  bool posixly_correct = (getenv ("POSIXLY_CORRECT") != NULL);
 80495bb:	85 c0                	test   %eax,%eax
  int nfiles = 0;
  char const *file[2];
  char delimiter = '\n';	/* change with --zero-terminated, -z */
  bool output_option_used = false;   /* if true, one of -u/-d/-D/-c was used */

  file[0] = file[1] = "-";
 80495bd:	c7 45 cc 1e 67 06 08 	movl   $0x806671e,-0x34(%ebp)
main (int argc, char **argv)
{
  	

int optc = 0;
  bool posixly_correct = (getenv ("POSIXLY_CORRECT") != NULL);
 80495c4:	0f 95 45 c0          	setne  -0x40(%ebp)
  int nfiles = 0;
  char const *file[2];
  char delimiter = '\n';	/* change with --zero-terminated, -z */
  bool output_option_used = false;   /* if true, one of -u/-d/-D/-c was used */

  file[0] = file[1] = "-";
 80495c8:	c7 45 c8 1e 67 06 08 	movl   $0x806671e,-0x38(%ebp)
  initialize_main (&argc, &argv);
  set_program_name (argv[0]);
 80495cf:	e8 2c eb 00 00       	call   8058100 <set_program_name>
  setlocale (LC_ALL, "");
 80495d4:	59                   	pop    %ecx
 80495d5:	5b                   	pop    %ebx
 80495d6:	68 dd 6a 06 08       	push   $0x8066add
 80495db:	6a 06                	push   $0x6
  	

int optc = 0;
  bool posixly_correct = (getenv ("POSIXLY_CORRECT") != NULL);
  enum Skip_field_option_type skip_field_option_type = SFO_NONE;
  int nfiles = 0;
 80495dd:	31 db                	xor    %ebx,%ebx
  bool output_option_used = false;   /* if true, one of -u/-d/-D/-c was used */

  file[0] = file[1] = "-";
  initialize_main (&argc, &argv);
  set_program_name (argv[0]);
  setlocale (LC_ALL, "");
 80495df:	e8 8c fe ff ff       	call   8049470 <setlocale@plt>
  bindtextdomain (PACKAGE, LOCALEDIR);
 80495e4:	5e                   	pop    %esi
 80495e5:	58                   	pop    %eax
 80495e6:	68 c7 5b 06 08       	push   $0x8065bc7
 80495eb:	68 a9 5b 06 08       	push   $0x8065ba9
int
main (int argc, char **argv)
{
  	

int optc = 0;
 80495f0:	31 f6                	xor    %esi,%esi

  file[0] = file[1] = "-";
  initialize_main (&argc, &argv);
  set_program_name (argv[0]);
  setlocale (LC_ALL, "");
  bindtextdomain (PACKAGE, LOCALEDIR);
 80495f2:	e8 d9 fe ff ff       	call   80494d0 <bindtextdomain@plt>
  textdomain (PACKAGE);
 80495f7:	c7 04 24 a9 5b 06 08 	movl   $0x8065ba9,(%esp)
 80495fe:	e8 2d fc ff ff       	call   8049230 <textdomain@plt>
  hard_LC_COLLATE = hard_locale (LC_COLLATE);
 8049603:	c7 04 24 03 00 00 00 	movl   $0x3,(%esp)
 804960a:	e8 d1 d0 00 00       	call   80566e0 <hard_locale>

  atexit (close_stdout);
 804960f:	c7 04 24 00 57 05 08 	movl   $0x8055700,(%esp)
  initialize_main (&argc, &argv);
  set_program_name (argv[0]);
  setlocale (LC_ALL, "");
  bindtextdomain (PACKAGE, LOCALEDIR);
  textdomain (PACKAGE);
  hard_LC_COLLATE = hard_locale (LC_COLLATE);
 8049616:	a2 1c a3 06 08       	mov    %al,0x806a31c

  atexit (close_stdout);
 804961b:	e8 60 c4 01 00       	call   8065a80 <atexit>

  skip_chars = 0;
 8049620:	c7 05 14 a3 06 08 00 	movl   $0x0,0x806a314
 8049627:	00 00 00 
  skip_fields = 0;
 804962a:	c7 05 18 a3 06 08 00 	movl   $0x0,0x806a318
 8049631:	00 00 00 
  check_chars = SIZE_MAX;
  output_unique = output_first_repeated = true;
  output_later_repeated = false;
  countmode = count_none;
  delimit_groups = DM_NONE;
 8049634:	83 c4 10             	add    $0x10,%esp

  atexit (close_stdout);

  skip_chars = 0;
  skip_fields = 0;
  check_chars = SIZE_MAX;
 8049637:	c7 05 10 a3 06 08 ff 	movl   $0xffffffff,0x806a310
 804963e:	ff ff ff 
  output_unique = output_first_repeated = true;
 8049641:	c6 05 0a a3 06 08 01 	movb   $0x1,0x806a30a
 8049648:	c6 05 0b a3 06 08 01 	movb   $0x1,0x806a30b
  output_later_repeated = false;
 804964f:	c6 05 09 a3 06 08 00 	movb   $0x0,0x806a309
  countmode = count_none;
 8049656:	c7 05 0c a3 06 08 01 	movl   $0x1,0x806a30c
 804965d:	00 00 00 
  delimit_groups = DM_NONE;
 8049660:	c7 05 04 a3 06 08 00 	movl   $0x0,0x806a304
 8049667:	00 00 00 
  bool posixly_correct = (getenv ("POSIXLY_CORRECT") != NULL);
  enum Skip_field_option_type skip_field_option_type = SFO_NONE;
  int nfiles = 0;
  char const *file[2];
  char delimiter = '\n';	/* change with --zero-terminated, -z */
  bool output_option_used = false;   /* if true, one of -u/-d/-D/-c was used */
 804966a:	c6 45 b0 00          	movb   $0x0,-0x50(%ebp)
int optc = 0;
  bool posixly_correct = (getenv ("POSIXLY_CORRECT") != NULL);
  enum Skip_field_option_type skip_field_option_type = SFO_NONE;
  int nfiles = 0;
  char const *file[2];
  char delimiter = '\n';	/* change with --zero-terminated, -z */
 804966e:	c6 45 9e 0a          	movb   $0xa,-0x62(%ebp)
{
  	

int optc = 0;
  bool posixly_correct = (getenv ("POSIXLY_CORRECT") != NULL);
  enum Skip_field_option_type skip_field_option_type = SFO_NONE;
 8049672:	c7 45 ac 00 00 00 00 	movl   $0x0,-0x54(%ebp)
 8049679:	8d 76 00             	lea    0x0(%esi),%esi
         seen; or if pedantic and a file was seen; or if not
         obsolete.  */

      
// ABS Label 466
if(optc < 0)  {
 804967c:	8d 64 24 f0          	lea    -0x10(%esp),%esp
 8049680:	89 3c 24             	mov    %edi,(%esp)
 8049683:	89 54 24 04          	mov    %edx,0x4(%esp)
 8049687:	89 4c 24 08          	mov    %ecx,0x8(%esp)
 804968b:	89 44 24 0c          	mov    %eax,0xc(%esp)
 804968f:	b9 4b fd 00 00       	mov    $0xfd4b,%ecx
 8049694:	e8 af b2 00 00       	call   8054948 <__afl_maybe_log>
 8049699:	8b 44 24 0c          	mov    0xc(%esp),%eax
 804969d:	8b 4c 24 08          	mov    0x8(%esp),%ecx
 80496a1:	8b 54 24 04          	mov    0x4(%esp),%edx
 80496a5:	8b 3c 24             	mov    (%esp),%edi
 80496a8:	8d 64 24 10          	lea    0x10(%esp),%esp
 80496ac:	85 f6                	test   %esi,%esi
 80496ae:	0f 88 50 07 00 00    	js     8049e04 <main+0x8a4>
 80496b4:	8d 64 24 f0          	lea    -0x10(%esp),%esp
 80496b8:	89 3c 24             	mov    %edi,(%esp)
 80496bb:	89 54 24 04          	mov    %edx,0x4(%esp)
 80496bf:	89 4c 24 08          	mov    %ecx,0x8(%esp)
 80496c3:	89 44 24 0c          	mov    %eax,0xc(%esp)
 80496c7:	b9 5f d4 00 00       	mov    $0xd45f,%ecx
 80496cc:	e8 77 b2 00 00       	call   8054948 <__afl_maybe_log>
 80496d1:	8b 44 24 0c          	mov    0xc(%esp),%eax
 80496d5:	8b 4c 24 08          	mov    0x8(%esp),%ecx
 80496d9:	8b 54 24 04          	mov    0x4(%esp),%edx
 80496dd:	8b 3c 24             	mov    (%esp),%edi
 80496e0:	8d 64 24 10          	lea    0x10(%esp),%esp
 80496e4:	8d 74 26 00          	lea    0x0(%esi,%eiz,1),%esi
	report_label_coverage("ABS", 466);
}

// COR Label 467
if((optc == -1 && (posixly_correct && nfiles != 0)) != (optc == -1 || (posixly_correct && nfiles != 0)))  {
 80496e8:	85 db                	test   %ebx,%ebx
 80496ea:	0f 95 45 c4          	setne  -0x3c(%ebp)
 80496ee:	0f b6 55 c4          	movzbl -0x3c(%ebp),%edx
 80496f2:	22 55 c0             	and    -0x40(%ebp),%dl
 80496f5:	88 55 bc             	mov    %dl,-0x44(%ebp)
 80496f8:	0f 85 d2 0a 00 00    	jne    804a1d0 <main+0xc70>
 80496fe:	66 90                	xchg   %ax,%ax
 8049700:	8d 64 24 f0          	lea    -0x10(%esp),%esp
 8049704:	89 3c 24             	mov    %edi,(%esp)
 8049707:	89 54 24 04          	mov    %edx,0x4(%esp)
 804970b:	89 4c 24 08          	mov    %ecx,0x8(%esp)
 804970f:	89 44 24 0c          	mov    %eax,0xc(%esp)
 8049713:	b9 a9 f5 00 00       	mov    $0xf5a9,%ecx
 8049718:	e8 2b b2 00 00       	call   8054948 <__afl_maybe_log>
 804971d:	8b 44 24 0c          	mov    0xc(%esp),%eax
 8049721:	8b 4c 24 08          	mov    0x8(%esp),%ecx
 8049725:	8b 54 24 04          	mov    0x4(%esp),%edx
 8049729:	8b 3c 24             	mov    (%esp),%edi
 804972c:	8d 64 24 10          	lea    0x10(%esp),%esp
	report_label_coverage("COR", 467);
}

// ROR Label 468
if((optc != -1) != (optc == -1))  {
 8049730:	83 fe ff             	cmp    $0xffffffff,%esi
 8049733:	0f 94 c0             	sete   %al
 8049736:	8d 76 00             	lea    0x0(%esi),%esi
 8049739:	8d bc 27 00 00 00 00 	lea    0x0(%edi,%eiz,1),%edi
	report_label_coverage("ROR", 468);
 8049740:	83 ec 08             	sub    $0x8,%esp
 8049743:	88 45 b4             	mov    %al,-0x4c(%ebp)
 8049746:	68 d4 01 00 00       	push   $0x1d4
 804974b:	68 17 5b 06 08       	push   $0x8065b17
 8049750:	e8 2b 79 00 00       	call   8051080 <report_label_coverage>
 8049755:	0f b6 45 b4          	movzbl -0x4c(%ebp),%eax
 8049759:	83 c4 10             	add    $0x10,%esp
}

// MCC Label 469
if(optc == -1 && ( posixly_correct && nfiles != 0 ) ) {
 804975c:	8d 64 24 f0          	lea    -0x10(%esp),%esp
 8049760:	89 3c 24             	mov    %edi,(%esp)
 8049763:	89 54 24 04          	mov    %edx,0x4(%esp)
 8049767:	89 4c 24 08          	mov    %ecx,0x8(%esp)
 804976b:	89 44 24 0c          	mov    %eax,0xc(%esp)
 804976f:	b9 d5 a4 00 00       	mov    $0xa4d5,%ecx
 8049774:	e8 cf b1 00 00       	call   8054948 <__afl_maybe_log>
 8049779:	8b 44 24 0c          	mov    0xc(%esp),%eax
 804977d:	8b 4c 24 08          	mov    0x8(%esp),%ecx
 8049781:	8b 54 24 04          	mov    0x4(%esp),%edx
 8049785:	8b 3c 24             	mov    (%esp),%edi
 8049788:	8d 64 24 10          	lea    0x10(%esp),%esp
 804978c:	84 c0                	test   %al,%al
 804978e:	0f 85 4c 07 00 00    	jne    8049ee0 <main+0x980>
 8049794:	8d 64 24 f0          	lea    -0x10(%esp),%esp
 8049798:	89 3c 24             	mov    %edi,(%esp)
 804979b:	89 54 24 04          	mov    %edx,0x4(%esp)
 804979f:	89 4c 24 08          	mov    %ecx,0x8(%esp)
 80497a3:	89 44 24 0c          	mov    %eax,0xc(%esp)
 80497a7:	b9 44 33 00 00       	mov    $0x3344,%ecx
 80497ac:	e8 97 b1 00 00       	call   8054948 <__afl_maybe_log>
 80497b1:	8b 44 24 0c          	mov    0xc(%esp),%eax
 80497b5:	8b 4c 24 08          	mov    0x8(%esp),%ecx
 80497b9:	8b 54 24 04          	mov    0x4(%esp),%edx
 80497bd:	8b 3c 24             	mov    (%esp),%edi
 80497c0:	8d 64 24 10          	lea    0x10(%esp),%esp
// MCC Label 472
if(optc == -1 && ( !(posixly_correct) && !(nfiles != 0) ) ) {
	report_label_coverage("MCC", 472);
}
// MCC Label 473
if(!(optc == -1) && ( posixly_correct && nfiles != 0 ) ) {
 80497c4:	80 7d bc 00          	cmpb   $0x0,-0x44(%ebp)
 80497c8:	0f 85 1a 0d 00 00    	jne    804a4e8 <main+0xf88>
 80497ce:	66 90                	xchg   %ax,%ax
 80497d0:	8d 64 24 f0          	lea    -0x10(%esp),%esp
 80497d4:	89 3c 24             	mov    %edi,(%esp)
 80497d7:	89 54 24 04          	mov    %edx,0x4(%esp)
 80497db:	89 4c 24 08          	mov    %ecx,0x8(%esp)
 80497df:	89 44 24 0c          	mov    %eax,0xc(%esp)
 80497e3:	b9 ae cb 00 00       	mov    $0xcbae,%ecx
 80497e8:	e8 5b b1 00 00       	call   8054948 <__afl_maybe_log>
 80497ed:	8b 44 24 0c          	mov    0xc(%esp),%eax
 80497f1:	8b 4c 24 08          	mov    0x8(%esp),%ecx
 80497f5:	8b 54 24 04          	mov    0x4(%esp),%edx
 80497f9:	8b 3c 24             	mov    (%esp),%edi
 80497fc:	8d 64 24 10          	lea    0x10(%esp),%esp
	report_label_coverage("MCC", 473);
}
// MCC Label 474
if(!(optc == -1) && ( posixly_correct && !(nfiles != 0) ) ) {
 8049800:	8d 64 24 f0          	lea    -0x10(%esp),%esp
 8049804:	89 3c 24             	mov    %edi,(%esp)
 8049807:	89 54 24 04          	mov    %edx,0x4(%esp)
 804980b:	89 4c 24 08          	mov    %ecx,0x8(%esp)
 804980f:	89 44 24 0c          	mov    %eax,0xc(%esp)
 8049813:	b9 3d 5a 00 00       	mov    $0x5a3d,%ecx
 8049818:	e8 2b b1 00 00       	call   8054948 <__afl_maybe_log>
 804981d:	8b 44 24 0c          	mov    0xc(%esp),%eax
 8049821:	8b 4c 24 08          	mov    0x8(%esp),%ecx
 8049825:	8b 54 24 04          	mov    0x4(%esp),%edx
 8049829:	8b 3c 24             	mov    (%esp),%edi
 804982c:	8d 64 24 10          	lea    0x10(%esp),%esp
 8049830:	85 db                	test   %ebx,%ebx
 8049832:	0f 94 c0             	sete   %al
 8049835:	0f 85 85 00 00 00    	jne    80498c0 <main+0x360>
 804983b:	90                   	nop
 804983c:	8d 64 24 f0          	lea    -0x10(%esp),%esp
 8049840:	89 3c 24             	mov    %edi,(%esp)
 8049843:	89 54 24 04          	mov    %edx,0x4(%esp)
 8049847:	89 4c 24 08          	mov    %ecx,0x8(%esp)
 804984b:	89 44 24 0c          	mov    %eax,0xc(%esp)
 804984f:	b9 61 82 00 00       	mov    $0x8261,%ecx
 8049854:	e8 ef b0 00 00       	call   8054948 <__afl_maybe_log>
 8049859:	8b 44 24 0c          	mov    0xc(%esp),%eax
 804985d:	8b 4c 24 08          	mov    0x8(%esp),%ecx
 8049861:	8b 54 24 04          	mov    0x4(%esp),%edx
 8049865:	8b 3c 24             	mov    (%esp),%edi
 8049868:	8d 64 24 10          	lea    0x10(%esp),%esp
 804986c:	80 7d c0 00          	cmpb   $0x0,-0x40(%ebp)
 8049870:	74 4e                	je     80498c0 <main+0x360>
 8049872:	66 90                	xchg   %ax,%ax
 8049874:	8d 64 24 f0          	lea    -0x10(%esp),%esp
 8049878:	89 3c 24             	mov    %edi,(%esp)
 804987b:	89 54 24 04          	mov    %edx,0x4(%esp)
 804987f:	89 4c 24 08          	mov    %ecx,0x8(%esp)
 8049883:	89 44 24 0c          	mov    %eax,0xc(%esp)
 8049887:	b9 ea 30 00 00       	mov    $0x30ea,%ecx
 804988c:	e8 b7 b0 00 00       	call   8054948 <__afl_maybe_log>
 8049891:	8b 44 24 0c          	mov    0xc(%esp),%eax
 8049895:	8b 4c 24 08          	mov    0x8(%esp),%ecx
 8049899:	8b 54 24 04          	mov    0x4(%esp),%edx
 804989d:	8b 3c 24             	mov    (%esp),%edi
 80498a0:	8d 64 24 10          	lea    0x10(%esp),%esp
	report_label_coverage("MCC", 474);
 80498a4:	83 ec 08             	sub    $0x8,%esp
 80498a7:	88 45 b4             	mov    %al,-0x4c(%ebp)
 80498aa:	68 da 01 00 00       	push   $0x1da
 80498af:	68 1b 5b 06 08       	push   $0x8065b1b
 80498b4:	e8 c7 77 00 00       	call   8051080 <report_label_coverage>
 80498b9:	0f b6 45 b4          	movzbl -0x4c(%ebp),%eax
 80498bd:	83 c4 10             	add    $0x10,%esp
}
// MCC Label 475
if(!(optc == -1) && ( !(posixly_correct) && nfiles != 0 ) ) {
 80498c0:	8d 64 24 f0          	lea    -0x10(%esp),%esp
 80498c4:	89 3c 24             	mov    %edi,(%esp)
 80498c7:	89 54 24 04          	mov    %edx,0x4(%esp)
 80498cb:	89 4c 24 08          	mov    %ecx,0x8(%esp)
 80498cf:	89 44 24 0c          	mov    %eax,0xc(%esp)
 80498d3:	b9 82 29 00 00       	mov    $0x2982,%ecx
 80498d8:	e8 6b b0 00 00       	call   8054948 <__afl_maybe_log>
 80498dd:	8b 44 24 0c          	mov    0xc(%esp),%eax
 80498e1:	8b 4c 24 08          	mov    0x8(%esp),%ecx
 80498e5:	8b 54 24 04          	mov    0x4(%esp),%edx
 80498e9:	8b 3c 24             	mov    (%esp),%edi
 80498ec:	8d 64 24 10          	lea    0x10(%esp),%esp
 80498f0:	0f b6 55 c4          	movzbl -0x3c(%ebp),%edx
 80498f4:	38 55 c0             	cmp    %dl,-0x40(%ebp)
 80498f7:	0f 82 c3 0b 00 00    	jb     804a4c0 <main+0xf60>
 80498fd:	8d 76 00             	lea    0x0(%esi),%esi
 8049900:	8d 64 24 f0          	lea    -0x10(%esp),%esp
 8049904:	89 3c 24             	mov    %edi,(%esp)
 8049907:	89 54 24 04          	mov    %edx,0x4(%esp)
 804990b:	89 4c 24 08          	mov    %ecx,0x8(%esp)
 804990f:	89 44 24 0c          	mov    %eax,0xc(%esp)
 8049913:	b9 6c a0 00 00       	mov    $0xa06c,%ecx
 8049918:	e8 2b b0 00 00       	call   8054948 <__afl_maybe_log>
 804991d:	8b 44 24 0c          	mov    0xc(%esp),%eax
 8049921:	8b 4c 24 08          	mov    0x8(%esp),%ecx
 8049925:	8b 54 24 04          	mov    0x4(%esp),%edx
 8049929:	8b 3c 24             	mov    (%esp),%edi
 804992c:	8d 64 24 10          	lea    0x10(%esp),%esp
	report_label_coverage("MCC", 475);
}
// MCC Label 476
if(!(optc == -1) && ( !(posixly_correct) && !(nfiles != 0) ) ) {
 8049930:	8d 64 24 f0          	lea    -0x10(%esp),%esp
 8049934:	89 3c 24             	mov    %edi,(%esp)
 8049937:	89 54 24 04          	mov    %edx,0x4(%esp)
 804993b:	89 4c 24 08          	mov    %ecx,0x8(%esp)
 804993f:	89 44 24 0c          	mov    %eax,0xc(%esp)
 8049943:	b9 c6 63 00 00       	mov    $0x63c6,%ecx
 8049948:	e8 fb af 00 00       	call   8054948 <__afl_maybe_log>
 804994d:	8b 44 24 0c          	mov    0xc(%esp),%eax
 8049951:	8b 4c 24 08          	mov    0x8(%esp),%ecx
 8049955:	8b 54 24 04          	mov    0x4(%esp),%edx
 8049959:	8b 3c 24             	mov    (%esp),%edi
 804995c:	8d 64 24 10          	lea    0x10(%esp),%esp
 8049960:	38 45 c0             	cmp    %al,-0x40(%ebp)
 8049963:	0f 82 37 0b 00 00    	jb     804a4a0 <main+0xf40>
 8049969:	8d 76 00             	lea    0x0(%esi),%esi
 804996c:	8d 64 24 f0          	lea    -0x10(%esp),%esp
 8049970:	89 3c 24             	mov    %edi,(%esp)
 8049973:	89 54 24 04          	mov    %edx,0x4(%esp)
 8049977:	89 4c 24 08          	mov    %ecx,0x8(%esp)
 804997b:	89 44 24 0c          	mov    %eax,0xc(%esp)
 804997f:	b9 c8 5b 00 00       	mov    $0x5bc8,%ecx
 8049984:	e8 bf af 00 00       	call   8054948 <__afl_maybe_log>
 8049989:	8b 44 24 0c          	mov    0xc(%esp),%eax
 804998d:	8b 4c 24 08          	mov    0x8(%esp),%ecx
 8049991:	8b 54 24 04          	mov    0x4(%esp),%edx
 8049995:	8b 3c 24             	mov    (%esp),%edi
 8049998:	8d 64 24 10          	lea    0x10(%esp),%esp
	report_label_coverage("MCC", 476);
}
if (optc == -1 || (posixly_correct && nfiles != 0))
 804999c:	8d 64 24 f0          	lea    -0x10(%esp),%esp
 80499a0:	89 3c 24             	mov    %edi,(%esp)
 80499a3:	89 54 24 04          	mov    %edx,0x4(%esp)
 80499a7:	89 4c 24 08          	mov    %ecx,0x8(%esp)
 80499ab:	89 44 24 0c          	mov    %eax,0xc(%esp)
 80499af:	b9 4d 29 00 00       	mov    $0x294d,%ecx
 80499b4:	e8 8f af 00 00       	call   8054948 <__afl_maybe_log>
 80499b9:	8b 44 24 0c          	mov    0xc(%esp),%eax
 80499bd:	8b 4c 24 08          	mov    0x8(%esp),%ecx
 80499c1:	8b 54 24 04          	mov    0x4(%esp),%edx
 80499c5:	8b 3c 24             	mov    (%esp),%edi
 80499c8:	8d 64 24 10          	lea    0x10(%esp),%esp
 80499cc:	80 7d bc 00          	cmpb   $0x0,-0x44(%ebp)
 80499d0:	0f 84 92 08 00 00    	je     804a268 <main+0xd08>
 80499d6:	66 90                	xchg   %ax,%ax
 80499d8:	8d 64 24 f0          	lea    -0x10(%esp),%esp
 80499dc:	89 3c 24             	mov    %edi,(%esp)
 80499df:	89 54 24 04          	mov    %edx,0x4(%esp)
 80499e3:	89 4c 24 08          	mov    %ecx,0x8(%esp)
 80499e7:	89 44 24 0c          	mov    %eax,0xc(%esp)
 80499eb:	b9 f8 64 00 00       	mov    $0x64f8,%ecx
 80499f0:	e8 53 af 00 00       	call   8054948 <__afl_maybe_log>
 80499f5:	8b 44 24 0c          	mov    0xc(%esp),%eax
 80499f9:	8b 4c 24 08          	mov    0x8(%esp),%ecx
 80499fd:	8b 54 24 04          	mov    0x4(%esp),%edx
 8049a01:	8b 3c 24             	mov    (%esp),%edi
 8049a04:	8d 64 24 10          	lea    0x10(%esp),%esp
    if (((optc = temp_1) == temp_2))
      label_3:
        {
            
// ABS Label 477
if(argc < 0)  {
 8049a08:	8d 64 24 f0          	lea    -0x10(%esp),%esp
 8049a0c:	89 3c 24             	mov    %edi,(%esp)
 8049a0f:	89 54 24 04          	mov    %edx,0x4(%esp)
 8049a13:	89 4c 24 08          	mov    %ecx,0x8(%esp)
 8049a17:	89 44 24 0c          	mov    %eax,0xc(%esp)
 8049a1b:	b9 ec 83 00 00       	mov    $0x83ec,%ecx
 8049a20:	e8 23 af 00 00       	call   8054948 <__afl_maybe_log>
 8049a25:	8b 44 24 0c          	mov    0xc(%esp),%eax
 8049a29:	8b 4c 24 08          	mov    0x8(%esp),%ecx
 8049a2d:	8b 54 24 04          	mov    0x4(%esp),%edx
 8049a31:	8b 3c 24             	mov    (%esp),%edi
 8049a34:	8d 64 24 10          	lea    0x10(%esp),%esp
 8049a38:	85 ff                	test   %edi,%edi
 8049a3a:	0f 88 e8 06 00 00    	js     804a128 <main+0xbc8>
 8049a40:	8d 64 24 f0          	lea    -0x10(%esp),%esp
 8049a44:	89 3c 24             	mov    %edi,(%esp)
 8049a47:	89 54 24 04          	mov    %edx,0x4(%esp)
 8049a4b:	89 4c 24 08          	mov    %ecx,0x8(%esp)
 8049a4f:	89 44 24 0c          	mov    %eax,0xc(%esp)
 8049a53:	b9 32 0d 00 00       	mov    $0xd32,%ecx
 8049a58:	e8 eb ae 00 00       	call   8054948 <__afl_maybe_log>
 8049a5d:	8b 44 24 0c          	mov    0xc(%esp),%eax
 8049a61:	8b 4c 24 08          	mov    0x8(%esp),%ecx
 8049a65:	8b 54 24 04          	mov    0x4(%esp),%edx
 8049a69:	8b 3c 24             	mov    (%esp),%edi
 8049a6c:	8d 64 24 10          	lea    0x10(%esp),%esp
	report_label_coverage("ABS", 477);
}
// ABS Label 478
if(optind < 0)  {
 8049a70:	8d 64 24 f0          	lea    -0x10(%esp),%esp
 8049a74:	89 3c 24             	mov    %edi,(%esp)
 8049a77:	89 54 24 04          	mov    %edx,0x4(%esp)
 8049a7b:	89 4c 24 08          	mov    %ecx,0x8(%esp)
 8049a7f:	89 44 24 0c          	mov    %eax,0xc(%esp)
 8049a83:	b9 01 2f 00 00       	mov    $0x2f01,%ecx
 8049a88:	e8 bb ae 00 00       	call   8054948 <__afl_maybe_log>
 8049a8d:	8b 44 24 0c          	mov    0xc(%esp),%eax
 8049a91:	8b 4c 24 08          	mov    0x8(%esp),%ecx
 8049a95:	8b 54 24 04          	mov    0x4(%esp),%edx
 8049a99:	8b 3c 24             	mov    (%esp),%edi
 8049a9c:	8d 64 24 10          	lea    0x10(%esp),%esp
 8049aa0:	a1 cc a2 06 08       	mov    0x806a2cc,%eax
 8049aa5:	85 c0                	test   %eax,%eax
 8049aa7:	0f 88 03 07 00 00    	js     804a1b0 <main+0xc50>
 8049aad:	8d 76 00             	lea    0x0(%esi),%esi
 8049ab0:	8d 64 24 f0          	lea    -0x10(%esp),%esp
 8049ab4:	89 3c 24             	mov    %edi,(%esp)
 8049ab7:	89 54 24 04          	mov    %edx,0x4(%esp)
 8049abb:	89 4c 24 08          	mov    %ecx,0x8(%esp)
 8049abf:	89 44 24 0c          	mov    %eax,0xc(%esp)
 8049ac3:	b9 c6 96 00 00       	mov    $0x96c6,%ecx
 8049ac8:	e8 7b ae 00 00       	call   8054948 <__afl_maybe_log>
 8049acd:	8b 44 24 0c          	mov    0xc(%esp),%eax
 8049ad1:	8b 4c 24 08          	mov    0x8(%esp),%ecx
 8049ad5:	8b 54 24 04          	mov    0x4(%esp),%edx
 8049ad9:	8b 3c 24             	mov    (%esp),%edi
 8049adc:	8d 64 24 10          	lea    0x10(%esp),%esp
	report_label_coverage("ABS", 478);
}

// ROR Label 479
if((argc < optind) != (argc <= optind))  {
 8049ae0:	8d 64 24 f0          	lea    -0x10(%esp),%esp
 8049ae4:	89 3c 24             	mov    %edi,(%esp)
 8049ae7:	89 54 24 04          	mov    %edx,0x4(%esp)
 8049aeb:	89 4c 24 08          	mov    %ecx,0x8(%esp)
 8049aef:	89 44 24 0c          	mov    %eax,0xc(%esp)
 8049af3:	b9 60 e9 00 00       	mov    $0xe960,%ecx
 8049af8:	e8 4b ae 00 00       	call   8054948 <__afl_maybe_log>
 8049afd:	8b 44 24 0c          	mov    0xc(%esp),%eax
 8049b01:	8b 4c 24 08          	mov    0x8(%esp),%ecx
 8049b05:	8b 54 24 04          	mov    0x4(%esp),%edx
 8049b09:	8b 3c 24             	mov    (%esp),%edi
 8049b0c:	8d 64 24 10          	lea    0x10(%esp),%esp
 8049b10:	39 c7                	cmp    %eax,%edi
 8049b12:	0f 9e c2             	setle  %dl
 8049b15:	0f 9c c1             	setl   %cl
 8049b18:	38 d1                	cmp    %dl,%cl
 8049b1a:	74 4f                	je     8049b6b <main+0x60b>
 8049b1c:	8d 64 24 f0          	lea    -0x10(%esp),%esp
 8049b20:	89 3c 24             	mov    %edi,(%esp)
 8049b23:	89 54 24 04          	mov    %edx,0x4(%esp)
 8049b27:	89 4c 24 08          	mov    %ecx,0x8(%esp)
 8049b2b:	89 44 24 0c          	mov    %eax,0xc(%esp)
 8049b2f:	b9 e2 53 00 00       	mov    $0x53e2,%ecx
 8049b34:	e8 0f ae 00 00       	call   8054948 <__afl_maybe_log>
 8049b39:	8b 44 24 0c          	mov    0xc(%esp),%eax
 8049b3d:	8b 4c 24 08          	mov    0x8(%esp),%ecx
 8049b41:	8b 54 24 04          	mov    0x4(%esp),%edx
 8049b45:	8b 3c 24             	mov    (%esp),%edi
 8049b48:	8d 64 24 10          	lea    0x10(%esp),%esp
	report_label_coverage("ROR", 479);
 8049b4c:	83 ec 08             	sub    $0x8,%esp
 8049b4f:	68 df 01 00 00       	push   $0x1df
 8049b54:	68 17 5b 06 08       	push   $0x8065b17
 8049b59:	e8 22 75 00 00       	call   8051080 <report_label_coverage>
 8049b5e:	a1 cc a2 06 08       	mov    0x806a2cc,%eax
 8049b63:	83 c4 10             	add    $0x10,%esp
 8049b66:	39 c7                	cmp    %eax,%edi
 8049b68:	0f 9e c2             	setle  %dl
 8049b6b:	90                   	nop
}
// ROR Label 480
if((argc > optind) != (argc <= optind))  {
 8049b6c:	8d 64 24 f0          	lea    -0x10(%esp),%esp
 8049b70:	89 3c 24             	mov    %edi,(%esp)
 8049b73:	89 54 24 04          	mov    %edx,0x4(%esp)
 8049b77:	89 4c 24 08          	mov    %ecx,0x8(%esp)
 8049b7b:	89 44 24 0c          	mov    %eax,0xc(%esp)
 8049b7f:	b9 d3 e7 00 00       	mov    $0xe7d3,%ecx
 8049b84:	e8 bf ad 00 00       	call   8054948 <__afl_maybe_log>
 8049b89:	8b 44 24 0c          	mov    0xc(%esp),%eax
 8049b8d:	8b 4c 24 08          	mov    0x8(%esp),%ecx
 8049b91:	8b 54 24 04          	mov    0x4(%esp),%edx
 8049b95:	8b 3c 24             	mov    (%esp),%edi
 8049b98:	8d 64 24 10          	lea    0x10(%esp),%esp
 8049b9c:	39 c7                	cmp    %eax,%edi
 8049b9e:	0f 9f c1             	setg   %cl
 8049ba1:	38 d1                	cmp    %dl,%cl
 8049ba3:	74 52                	je     8049bf7 <main+0x697>
 8049ba5:	8d 76 00             	lea    0x0(%esi),%esi
 8049ba8:	8d 64 24 f0          	lea    -0x10(%esp),%esp
 8049bac:	89 3c 24             	mov    %edi,(%esp)
 8049baf:	89 54 24 04          	mov    %edx,0x4(%esp)
 8049bb3:	89 4c 24 08          	mov    %ecx,0x8(%esp)
 8049bb7:	89 44 24 0c          	mov    %eax,0xc(%esp)
 8049bbb:	b9 f8 22 00 00       	mov    $0x22f8,%ecx
 8049bc0:	e8 83 ad 00 00       	call   8054948 <__afl_maybe_log>
 8049bc5:	8b 44 24 0c          	mov    0xc(%esp),%eax
 8049bc9:	8b 4c 24 08          	mov    0x8(%esp),%ecx
 8049bcd:	8b 54 24 04          	mov    0x4(%esp),%edx
 8049bd1:	8b 3c 24             	mov    (%esp),%edi
 8049bd4:	8d 64 24 10          	lea    0x10(%esp),%esp
	report_label_coverage("ROR", 480);
 8049bd8:	83 ec 08             	sub    $0x8,%esp
 8049bdb:	68 e0 01 00 00       	push   $0x1e0
 8049be0:	68 17 5b 06 08       	push   $0x8065b17
 8049be5:	e8 96 74 00 00       	call   8051080 <report_label_coverage>
 8049bea:	a1 cc a2 06 08       	mov    0x806a2cc,%eax
 8049bef:	83 c4 10             	add    $0x10,%esp
 8049bf2:	39 f8                	cmp    %edi,%eax
 8049bf4:	0f 9d c2             	setge  %dl
 8049bf7:	90                   	nop
}
// ROR Label 481
if((argc >= optind) != (argc <= optind))  {
 8049bf8:	8d 64 24 f0          	lea    -0x10(%esp),%esp
 8049bfc:	89 3c 24             	mov    %edi,(%esp)
 8049bff:	89 54 24 04          	mov    %edx,0x4(%esp)
 8049c03:	89 4c 24 08          	mov    %ecx,0x8(%esp)
 8049c07:	89 44 24 0c          	mov    %eax,0xc(%esp)
 8049c0b:	b9 c9 8c 00 00       	mov    $0x8cc9,%ecx
 8049c10:	e8 33 ad 00 00       	call   8054948 <__afl_maybe_log>
 8049c15:	8b 44 24 0c          	mov    0xc(%esp),%eax
 8049c19:	8b 4c 24 08          	mov    0x8(%esp),%ecx
 8049c1d:	8b 54 24 04          	mov    0x4(%esp),%edx
 8049c21:	8b 3c 24             	mov    (%esp),%edi
 8049c24:	8d 64 24 10          	lea    0x10(%esp),%esp
 8049c28:	39 f8                	cmp    %edi,%eax
 8049c2a:	0f 9e c1             	setle  %cl
 8049c2d:	38 d1                	cmp    %dl,%cl
 8049c2f:	74 4d                	je     8049c7e <main+0x71e>
 8049c31:	8d 76 00             	lea    0x0(%esi),%esi
 8049c34:	8d 64 24 f0          	lea    -0x10(%esp),%esp
 8049c38:	89 3c 24             	mov    %edi,(%esp)
 8049c3b:	89 54 24 04          	mov    %edx,0x4(%esp)
 8049c3f:	89 4c 24 08          	mov    %ecx,0x8(%esp)
 8049c43:	89 44 24 0c          	mov    %eax,0xc(%esp)
 8049c47:	b9 e3 ae 00 00       	mov    $0xaee3,%ecx
 8049c4c:	e8 f7 ac 00 00       	call   8054948 <__afl_maybe_log>
 8049c51:	8b 44 24 0c          	mov    0xc(%esp),%eax
 8049c55:	8b 4c 24 08          	mov    0x8(%esp),%ecx
 8049c59:	8b 54 24 04          	mov    0x4(%esp),%edx
 8049c5d:	8b 3c 24             	mov    (%esp),%edi
 8049c60:	8d 64 24 10          	lea    0x10(%esp),%esp
	report_label_coverage("ROR", 481);
 8049c64:	83 ec 08             	sub    $0x8,%esp
 8049c67:	68 e1 01 00 00       	push   $0x1e1
 8049c6c:	68 17 5b 06 08       	push   $0x8065b17
 8049c71:	e8 0a 74 00 00       	call   8051080 <report_label_coverage>
 8049c76:	a1 cc a2 06 08       	mov    0x806a2cc,%eax
 8049c7b:	83 c4 10             	add    $0x10,%esp
 8049c7e:	66 90                	xchg   %ax,%ax
}
if (argc <= optind)
 8049c80:	8d 64 24 f0          	lea    -0x10(%esp),%esp
 8049c84:	89 3c 24             	mov    %edi,(%esp)
 8049c87:	89 54 24 04          	mov    %edx,0x4(%esp)
 8049c8b:	89 4c 24 08          	mov    %ecx,0x8(%esp)
 8049c8f:	89 44 24 0c          	mov    %eax,0xc(%esp)
 8049c93:	b9 98 94 00 00       	mov    $0x9498,%ecx
 8049c98:	e8 ab ac 00 00       	call   8054948 <__afl_maybe_log>
 8049c9d:	8b 44 24 0c          	mov    0xc(%esp),%eax
 8049ca1:	8b 4c 24 08          	mov    0x8(%esp),%ecx
 8049ca5:	8b 54 24 04          	mov    0x4(%esp),%edx
 8049ca9:	8b 3c 24             	mov    (%esp),%edi
 8049cac:	8d 64 24 10          	lea    0x10(%esp),%esp
 8049cb0:	39 c7                	cmp    %eax,%edi
 8049cb2:	0f 8e e3 0d 00 00    	jle    804aa9b <main+0x153b>
 8049cb8:	8d 64 24 f0          	lea    -0x10(%esp),%esp
 8049cbc:	89 3c 24             	mov    %edi,(%esp)
 8049cbf:	89 54 24 04          	mov    %edx,0x4(%esp)
 8049cc3:	89 4c 24 08          	mov    %ecx,0x8(%esp)
 8049cc7:	89 44 24 0c          	mov    %eax,0xc(%esp)
 8049ccb:	b9 f3 f9 00 00       	mov    $0xf9f3,%ecx
 8049cd0:	e8 73 ac 00 00       	call   8054948 <__afl_maybe_log>
 8049cd5:	8b 44 24 0c          	mov    0xc(%esp),%eax
 8049cd9:	8b 4c 24 08          	mov    0x8(%esp),%ecx
 8049cdd:	8b 54 24 04          	mov    0x4(%esp),%edx
 8049ce1:	8b 3c 24             	mov    (%esp),%edi
 8049ce4:	8d 64 24 10          	lea    0x10(%esp),%esp
if(nfiles < 0)  {
	report_label_coverage("ABS", 482);
}

// ROR Label 483
if((nfiles != 2) != (nfiles == 2))  {
 8049ce8:	83 fb 02             	cmp    $0x2,%ebx
 8049ceb:	0f 94 c2             	sete   %dl
 8049cee:	0f 95 c1             	setne  %cl
 8049cf1:	38 d1                	cmp    %dl,%cl
 8049cf3:	74 54                	je     8049d49 <main+0x7e9>
 8049cf5:	8d 76 00             	lea    0x0(%esi),%esi
 8049cf8:	8d 64 24 f0          	lea    -0x10(%esp),%esp
 8049cfc:	89 3c 24             	mov    %edi,(%esp)
 8049cff:	89 54 24 04          	mov    %edx,0x4(%esp)
 8049d03:	89 4c 24 08          	mov    %ecx,0x8(%esp)
 8049d07:	89 44 24 0c          	mov    %eax,0xc(%esp)
 8049d0b:	b9 a3 b7 00 00       	mov    $0xb7a3,%ecx
 8049d10:	e8 33 ac 00 00       	call   8054948 <__afl_maybe_log>
 8049d15:	8b 44 24 0c          	mov    0xc(%esp),%eax
 8049d19:	8b 4c 24 08          	mov    0x8(%esp),%ecx
 8049d1d:	8b 54 24 04          	mov    0x4(%esp),%edx
 8049d21:	8b 3c 24             	mov    (%esp),%edi
 8049d24:	8d 64 24 10          	lea    0x10(%esp),%esp
	report_label_coverage("ROR", 483);
 8049d28:	83 ec 08             	sub    $0x8,%esp
 8049d2b:	88 55 c4             	mov    %dl,-0x3c(%ebp)
 8049d2e:	68 e3 01 00 00       	push   $0x1e3
 8049d33:	68 17 5b 06 08       	push   $0x8065b17
 8049d38:	e8 43 73 00 00       	call   8051080 <report_label_coverage>
 8049d3d:	0f b6 55 c4          	movzbl -0x3c(%ebp),%edx
 8049d41:	a1 cc a2 06 08       	mov    0x806a2cc,%eax
 8049d46:	83 c4 10             	add    $0x10,%esp
 8049d49:	8d 76 00             	lea    0x0(%esi),%esi
}
if (nfiles == 2) {
 8049d4c:	8d 64 24 f0          	lea    -0x10(%esp),%esp
 8049d50:	89 3c 24             	mov    %edi,(%esp)
 8049d53:	89 54 24 04          	mov    %edx,0x4(%esp)
 8049d57:	89 4c 24 08          	mov    %ecx,0x8(%esp)
 8049d5b:	89 44 24 0c          	mov    %eax,0xc(%esp)
 8049d5f:	b9 a0 bb 00 00       	mov    $0xbba0,%ecx
 8049d64:	e8 df ab 00 00       	call   8054948 <__afl_maybe_log>
 8049d69:	8b 44 24 0c          	mov    0xc(%esp),%eax
 8049d6d:	8b 4c 24 08          	mov    0x8(%esp),%ecx
 8049d71:	8b 54 24 04          	mov    0x4(%esp),%edx
 8049d75:	8b 3c 24             	mov    (%esp),%edi
 8049d78:	8d 64 24 10          	lea    0x10(%esp),%esp
 8049d7c:	84 d2                	test   %dl,%dl
 8049d7e:	0f 85 8f 6c 00 00    	jne    8050a13 <main+0x74b3>
 8049d84:	8d 64 24 f0          	lea    -0x10(%esp),%esp
 8049d88:	89 3c 24             	mov    %edi,(%esp)
 8049d8b:	89 54 24 04          	mov    %edx,0x4(%esp)
 8049d8f:	89 4c 24 08          	mov    %ecx,0x8(%esp)
 8049d93:	89 44 24 0c          	mov    %eax,0xc(%esp)
 8049d97:	b9 9e de 00 00       	mov    $0xde9e,%ecx
 8049d9c:	e8 a7 ab 00 00       	call   8054948 <__afl_maybe_log>
 8049da1:	8b 44 24 0c          	mov    0xc(%esp),%eax
 8049da5:	8b 4c 24 08          	mov    0x8(%esp),%ecx
 8049da9:	8b 54 24 04          	mov    0x4(%esp),%edx
 8049dad:	8b 3c 24             	mov    (%esp),%edi
 8049db0:	8d 64 24 10          	lea    0x10(%esp),%esp
                error(0, 0, gettext("extra operand %s"), quote(argv[optind]));
                usage(1);
            }
            file[nfiles++] = argv[optind++];
 8049db4:	8b 55 b8             	mov    -0x48(%ebp),%edx
 8049db7:	8d 48 01             	lea    0x1(%eax),%ecx
 8049dba:	89 0d cc a2 06 08    	mov    %ecx,0x806a2cc
 8049dc0:	8b 04 82             	mov    (%edx,%eax,4),%eax
 8049dc3:	89 44 9d c8          	mov    %eax,-0x38(%ebp,%ebx,4)
 8049dc7:	83 c3 01             	add    $0x1,%ebx
         seen; or if pedantic and a file was seen; or if not
         obsolete.  */

      
// ABS Label 466
if(optc < 0)  {
 8049dca:	85 f6                	test   %esi,%esi
 8049dcc:	0f 89 16 f9 ff ff    	jns    80496e8 <main+0x188>
 8049dd2:	66 90                	xchg   %ax,%ax
 8049dd4:	8d 64 24 f0          	lea    -0x10(%esp),%esp
 8049dd8:	89 3c 24             	mov    %edi,(%esp)
 8049ddb:	89 54 24 04          	mov    %edx,0x4(%esp)
 8049ddf:	89 4c 24 08          	mov    %ecx,0x8(%esp)
 8049de3:	89 44 24 0c          	mov    %eax,0xc(%esp)
 8049de7:	b9 88 07 00 00       	mov    $0x788,%ecx
 8049dec:	e8 57 ab 00 00       	call   8054948 <__afl_maybe_log>
 8049df1:	8b 44 24 0c          	mov    0xc(%esp),%eax
 8049df5:	8b 4c 24 08          	mov    0x8(%esp),%ecx
 8049df9:	8b 54 24 04          	mov    0x4(%esp),%edx
 8049dfd:	8b 3c 24             	mov    (%esp),%edi
 8049e00:	8d 64 24 10          	lea    0x10(%esp),%esp
	report_label_coverage("ABS", 466);
 8049e04:	8d 64 24 f0          	lea    -0x10(%esp),%esp
 8049e08:	89 3c 24             	mov    %edi,(%esp)
 8049e0b:	89 54 24 04          	mov    %edx,0x4(%esp)
 8049e0f:	89 4c 24 08          	mov    %ecx,0x8(%esp)
 8049e13:	89 44 24 0c          	mov    %eax,0xc(%esp)
 8049e17:	b9 f1 59 00 00       	mov    $0x59f1,%ecx
 8049e1c:	e8 27 ab 00 00       	call   8054948 <__afl_maybe_log>
 8049e21:	8b 44 24 0c          	mov    0xc(%esp),%eax
 8049e25:	8b 4c 24 08          	mov    0x8(%esp),%ecx
 8049e29:	8b 54 24 04          	mov    0x4(%esp),%edx
 8049e2d:	8b 3c 24             	mov    (%esp),%edi
 8049e30:	8d 64 24 10          	lea    0x10(%esp),%esp
 8049e34:	83 ec 08             	sub    $0x8,%esp
 8049e37:	68 d2 01 00 00       	push   $0x1d2
 8049e3c:	68 2d 5b 06 08       	push   $0x8065b2d
 8049e41:	e8 3a 72 00 00       	call   8051080 <report_label_coverage>
}

// COR Label 467
if((optc == -1 && (posixly_correct && nfiles != 0)) != (optc == -1 || (posixly_correct && nfiles != 0)))  {
 8049e46:	83 c4 10             	add    $0x10,%esp
 8049e49:	83 fe ff             	cmp    $0xffffffff,%esi
 8049e4c:	0f 85 96 f8 ff ff    	jne    80496e8 <main+0x188>
 8049e52:	66 90                	xchg   %ax,%ax
 8049e54:	8d 64 24 f0          	lea    -0x10(%esp),%esp
 8049e58:	89 3c 24             	mov    %edi,(%esp)
 8049e5b:	89 54 24 04          	mov    %edx,0x4(%esp)
 8049e5f:	89 4c 24 08          	mov    %ecx,0x8(%esp)
 8049e63:	89 44 24 0c          	mov    %eax,0xc(%esp)
 8049e67:	b9 75 e0 00 00       	mov    $0xe075,%ecx
 8049e6c:	e8 d7 aa 00 00       	call   8054948 <__afl_maybe_log>
 8049e71:	8b 44 24 0c          	mov    0xc(%esp),%eax
 8049e75:	8b 4c 24 08          	mov    0x8(%esp),%ecx
 8049e79:	8b 54 24 04          	mov    0x4(%esp),%edx
 8049e7d:	8b 3c 24             	mov    (%esp),%edi
 8049e80:	8d 64 24 10          	lea    0x10(%esp),%esp
 8049e84:	85 db                	test   %ebx,%ebx
 8049e86:	0f 95 45 c4          	setne  -0x3c(%ebp)
 8049e8a:	0f b6 4d c4          	movzbl -0x3c(%ebp),%ecx
 8049e8e:	22 4d c0             	and    -0x40(%ebp),%cl
 8049e91:	88 4d bc             	mov    %cl,-0x44(%ebp)
 8049e94:	0f 84 3d 03 00 00    	je     804a1d7 <main+0xc77>
 8049e9a:	66 90                	xchg   %ax,%ax
 8049e9c:	8d 64 24 f0          	lea    -0x10(%esp),%esp
 8049ea0:	89 3c 24             	mov    %edi,(%esp)
 8049ea3:	89 54 24 04          	mov    %edx,0x4(%esp)
 8049ea7:	89 4c 24 08          	mov    %ecx,0x8(%esp)
 8049eab:	89 44 24 0c          	mov    %eax,0xc(%esp)
 8049eaf:	b9 dd d0 00 00       	mov    $0xd0dd,%ecx
 8049eb4:	e8 8f aa 00 00       	call   8054948 <__afl_maybe_log>
 8049eb9:	8b 44 24 0c          	mov    0xc(%esp),%eax
 8049ebd:	8b 4c 24 08          	mov    0x8(%esp),%ecx
 8049ec1:	8b 54 24 04          	mov    0x4(%esp),%edx
 8049ec5:	8b 3c 24             	mov    (%esp),%edi
 8049ec8:	8d 64 24 10          	lea    0x10(%esp),%esp
 8049ecc:	0f b6 45 bc          	movzbl -0x44(%ebp),%eax
 8049ed0:	88 45 c4             	mov    %al,-0x3c(%ebp)
 8049ed3:	e9 68 f8 ff ff       	jmp    8049740 <main+0x1e0>
 8049ed8:	90                   	nop
 8049ed9:	8d b4 26 00 00 00 00 	lea    0x0(%esi,%eiz,1),%esi
if((optc != -1) != (optc == -1))  {
	report_label_coverage("ROR", 468);
}

// MCC Label 469
if(optc == -1 && ( posixly_correct && nfiles != 0 ) ) {
 8049ee0:	80 7d bc 00          	cmpb   $0x0,-0x44(%ebp)
 8049ee4:	0f 85 1e 06 00 00    	jne    804a508 <main+0xfa8>
 8049eea:	66 90                	xchg   %ax,%ax
 8049eec:	8d 64 24 f0          	lea    -0x10(%esp),%esp
 8049ef0:	89 3c 24             	mov    %edi,(%esp)
 8049ef3:	89 54 24 04          	mov    %edx,0x4(%esp)
 8049ef7:	89 4c 24 08          	mov    %ecx,0x8(%esp)
 8049efb:	89 44 24 0c          	mov    %eax,0xc(%esp)
 8049eff:	b9 3e ba 00 00       	mov    $0xba3e,%ecx
 8049f04:	e8 3f aa 00 00       	call   8054948 <__afl_maybe_log>
 8049f09:	8b 44 24 0c          	mov    0xc(%esp),%eax
 8049f0d:	8b 4c 24 08          	mov    0x8(%esp),%ecx
 8049f11:	8b 54 24 04          	mov    0x4(%esp),%edx
 8049f15:	8b 3c 24             	mov    (%esp),%edi
 8049f18:	8d 64 24 10          	lea    0x10(%esp),%esp
	report_label_coverage("MCC", 469);
}
// MCC Label 470
if(optc == -1 && ( posixly_correct && !(nfiles != 0) ) ) {
 8049f1c:	8d 64 24 f0          	lea    -0x10(%esp),%esp
 8049f20:	89 3c 24             	mov    %edi,(%esp)
 8049f23:	89 54 24 04          	mov    %edx,0x4(%esp)
 8049f27:	89 4c 24 08          	mov    %ecx,0x8(%esp)
 8049f2b:	89 44 24 0c          	mov    %eax,0xc(%esp)
 8049f2f:	b9 ac b0 00 00       	mov    $0xb0ac,%ecx
 8049f34:	e8 0f aa 00 00       	call   8054948 <__afl_maybe_log>
 8049f39:	8b 44 24 0c          	mov    0xc(%esp),%eax
 8049f3d:	8b 4c 24 08          	mov    0x8(%esp),%ecx
 8049f41:	8b 54 24 04          	mov    0x4(%esp),%edx
 8049f45:	8b 3c 24             	mov    (%esp),%edi
 8049f48:	8d 64 24 10          	lea    0x10(%esp),%esp
 8049f4c:	85 db                	test   %ebx,%ebx
 8049f4e:	0f 94 c0             	sete   %al
 8049f51:	89 c6                	mov    %eax,%esi
 8049f53:	0f 85 80 00 00 00    	jne    8049fd9 <main+0xa79>
 8049f59:	8d 76 00             	lea    0x0(%esi),%esi
 8049f5c:	8d 64 24 f0          	lea    -0x10(%esp),%esp
 8049f60:	89 3c 24             	mov    %edi,(%esp)
 8049f63:	89 54 24 04          	mov    %edx,0x4(%esp)
 8049f67:	89 4c 24 08          	mov    %ecx,0x8(%esp)
 8049f6b:	89 44 24 0c          	mov    %eax,0xc(%esp)
 8049f6f:	b9 18 29 00 00       	mov    $0x2918,%ecx
 8049f74:	e8 cf a9 00 00       	call   8054948 <__afl_maybe_log>
 8049f79:	8b 44 24 0c          	mov    0xc(%esp),%eax
 8049f7d:	8b 4c 24 08          	mov    0x8(%esp),%ecx
 8049f81:	8b 54 24 04          	mov    0x4(%esp),%edx
 8049f85:	8b 3c 24             	mov    (%esp),%edi
 8049f88:	8d 64 24 10          	lea    0x10(%esp),%esp
 8049f8c:	80 7d c0 00          	cmpb   $0x0,-0x40(%ebp)
 8049f90:	74 47                	je     8049fd9 <main+0xa79>
 8049f92:	66 90                	xchg   %ax,%ax
 8049f94:	8d 64 24 f0          	lea    -0x10(%esp),%esp
 8049f98:	89 3c 24             	mov    %edi,(%esp)
 8049f9b:	89 54 24 04          	mov    %edx,0x4(%esp)
 8049f9f:	89 4c 24 08          	mov    %ecx,0x8(%esp)
 8049fa3:	89 44 24 0c          	mov    %eax,0xc(%esp)
 8049fa7:	b9 45 92 00 00       	mov    $0x9245,%ecx
 8049fac:	e8 97 a9 00 00       	call   8054948 <__afl_maybe_log>
 8049fb1:	8b 44 24 0c          	mov    0xc(%esp),%eax
 8049fb5:	8b 4c 24 08          	mov    0x8(%esp),%ecx
 8049fb9:	8b 54 24 04          	mov    0x4(%esp),%edx
 8049fbd:	8b 3c 24             	mov    (%esp),%edi
 8049fc0:	8d 64 24 10          	lea    0x10(%esp),%esp
	report_label_coverage("MCC", 470);
 8049fc4:	83 ec 08             	sub    $0x8,%esp
 8049fc7:	68 d6 01 00 00       	push   $0x1d6
 8049fcc:	68 1b 5b 06 08       	push   $0x8065b1b
 8049fd1:	e8 aa 70 00 00       	call   8051080 <report_label_coverage>
 8049fd6:	83 c4 10             	add    $0x10,%esp
 8049fd9:	8d 76 00             	lea    0x0(%esi),%esi
}
// MCC Label 471
if(optc == -1 && ( !(posixly_correct) && nfiles != 0 ) ) {
 8049fdc:	8d 64 24 f0          	lea    -0x10(%esp),%esp
 8049fe0:	89 3c 24             	mov    %edi,(%esp)
 8049fe3:	89 54 24 04          	mov    %edx,0x4(%esp)
 8049fe7:	89 4c 24 08          	mov    %ecx,0x8(%esp)
 8049feb:	89 44 24 0c          	mov    %eax,0xc(%esp)
 8049fef:	b9 94 eb 00 00       	mov    $0xeb94,%ecx
 8049ff4:	e8 4f a9 00 00       	call   8054948 <__afl_maybe_log>
 8049ff9:	8b 44 24 0c          	mov    0xc(%esp),%eax
 8049ffd:	8b 4c 24 08          	mov    0x8(%esp),%ecx
 804a001:	8b 54 24 04          	mov    0x4(%esp),%edx
 804a005:	8b 3c 24             	mov    (%esp),%edi
 804a008:	8d 64 24 10          	lea    0x10(%esp),%esp
 804a00c:	0f b6 4d c4          	movzbl -0x3c(%ebp),%ecx
 804a010:	38 4d c0             	cmp    %cl,-0x40(%ebp)
 804a013:	0f 82 2f 05 00 00    	jb     804a548 <main+0xfe8>
 804a019:	8d 76 00             	lea    0x0(%esi),%esi
 804a01c:	8d 64 24 f0          	lea    -0x10(%esp),%esp
 804a020:	89 3c 24             	mov    %edi,(%esp)
 804a023:	89 54 24 04          	mov    %edx,0x4(%esp)
 804a027:	89 4c 24 08          	mov    %ecx,0x8(%esp)
 804a02b:	89 44 24 0c          	mov    %eax,0xc(%esp)
 804a02f:	b9 30 42 00 00       	mov    $0x4230,%ecx
 804a034:	e8 0f a9 00 00       	call   8054948 <__afl_maybe_log>
 804a039:	8b 44 24 0c          	mov    0xc(%esp),%eax
 804a03d:	8b 4c 24 08          	mov    0x8(%esp),%ecx
 804a041:	8b 54 24 04          	mov    0x4(%esp),%edx
 804a045:	8b 3c 24             	mov    (%esp),%edi
 804a048:	8d 64 24 10          	lea    0x10(%esp),%esp
	report_label_coverage("MCC", 471);
}
// MCC Label 472
if(optc == -1 && ( !(posixly_correct) && !(nfiles != 0) ) ) {
 804a04c:	8d 64 24 f0          	lea    -0x10(%esp),%esp
 804a050:	89 3c 24             	mov    %edi,(%esp)
 804a053:	89 54 24 04          	mov    %edx,0x4(%esp)
 804a057:	89 4c 24 08          	mov    %ecx,0x8(%esp)
 804a05b:	89 44 24 0c          	mov    %eax,0xc(%esp)
 804a05f:	b9 bf 7a 00 00       	mov    $0x7abf,%ecx
 804a064:	e8 df a8 00 00       	call   8054948 <__afl_maybe_log>
 804a069:	8b 44 24 0c          	mov    0xc(%esp),%eax
 804a06d:	8b 4c 24 08          	mov    0x8(%esp),%ecx
 804a071:	8b 54 24 04          	mov    0x4(%esp),%edx
 804a075:	8b 3c 24             	mov    (%esp),%edi
 804a078:	8d 64 24 10          	lea    0x10(%esp),%esp
 804a07c:	89 f2                	mov    %esi,%edx
 804a07e:	38 55 c0             	cmp    %dl,-0x40(%ebp)
 804a081:	0f 82 a1 04 00 00    	jb     804a528 <main+0xfc8>
 804a087:	90                   	nop
 804a088:	8d 64 24 f0          	lea    -0x10(%esp),%esp
 804a08c:	89 3c 24             	mov    %edi,(%esp)
 804a08f:	89 54 24 04          	mov    %edx,0x4(%esp)
 804a093:	89 4c 24 08          	mov    %ecx,0x8(%esp)
 804a097:	89 44 24 0c          	mov    %eax,0xc(%esp)
 804a09b:	b9 d3 9b 00 00       	mov    $0x9bd3,%ecx
 804a0a0:	e8 a3 a8 00 00       	call   8054948 <__afl_maybe_log>
 804a0a5:	8b 44 24 0c          	mov    0xc(%esp),%eax
 804a0a9:	8b 4c 24 08          	mov    0x8(%esp),%ecx
 804a0ad:	8b 54 24 04          	mov    0x4(%esp),%edx
 804a0b1:	8b 3c 24             	mov    (%esp),%edi
 804a0b4:	8d 64 24 10          	lea    0x10(%esp),%esp
    if (((optc = temp_1) == temp_2))
      label_3:
        {
            
// ABS Label 477
if(argc < 0)  {
 804a0b8:	8d 64 24 f0          	lea    -0x10(%esp),%esp
 804a0bc:	89 3c 24             	mov    %edi,(%esp)
 804a0bf:	89 54 24 04          	mov    %edx,0x4(%esp)
 804a0c3:	89 4c 24 08          	mov    %ecx,0x8(%esp)
 804a0c7:	89 44 24 0c          	mov    %eax,0xc(%esp)
 804a0cb:	b9 22 49 00 00       	mov    $0x4922,%ecx
 804a0d0:	e8 73 a8 00 00       	call   8054948 <__afl_maybe_log>
 804a0d5:	8b 44 24 0c          	mov    0xc(%esp),%eax
 804a0d9:	8b 4c 24 08          	mov    0x8(%esp),%ecx
 804a0dd:	8b 54 24 04          	mov    0x4(%esp),%edx
 804a0e1:	8b 3c 24             	mov    (%esp),%edi
 804a0e4:	8d 64 24 10          	lea    0x10(%esp),%esp
 804a0e8:	85 ff                	test   %edi,%edi
if((optc == -1 && (posixly_correct && nfiles != 0)) != (optc == -1 || (posixly_correct && nfiles != 0)))  {
	report_label_coverage("COR", 467);
}

// ROR Label 468
if((optc != -1) != (optc == -1))  {
 804a0ea:	be ff ff ff ff       	mov    $0xffffffff,%esi
    if (((optc = temp_1) == temp_2))
      label_3:
        {
            
// ABS Label 477
if(argc < 0)  {
 804a0ef:	0f 89 7b f9 ff ff    	jns    8049a70 <main+0x510>
 804a0f5:	8d 76 00             	lea    0x0(%esi),%esi
 804a0f8:	8d 64 24 f0          	lea    -0x10(%esp),%esp
 804a0fc:	89 3c 24             	mov    %edi,(%esp)
 804a0ff:	89 54 24 04          	mov    %edx,0x4(%esp)
 804a103:	89 4c 24 08          	mov    %ecx,0x8(%esp)
 804a107:	89 44 24 0c          	mov    %eax,0xc(%esp)
 804a10b:	b9 bd 2e 00 00       	mov    $0x2ebd,%ecx
 804a110:	e8 33 a8 00 00       	call   8054948 <__afl_maybe_log>
 804a115:	8b 44 24 0c          	mov    0xc(%esp),%eax
 804a119:	8b 4c 24 08          	mov    0x8(%esp),%ecx
 804a11d:	8b 54 24 04          	mov    0x4(%esp),%edx
 804a121:	8b 3c 24             	mov    (%esp),%edi
 804a124:	8d 64 24 10          	lea    0x10(%esp),%esp
	report_label_coverage("ABS", 477);
 804a128:	8d 64 24 f0          	lea    -0x10(%esp),%esp
 804a12c:	89 3c 24             	mov    %edi,(%esp)
 804a12f:	89 54 24 04          	mov    %edx,0x4(%esp)
 804a133:	89 4c 24 08          	mov    %ecx,0x8(%esp)
 804a137:	89 44 24 0c          	mov    %eax,0xc(%esp)
 804a13b:	b9 2d d0 00 00       	mov    $0xd02d,%ecx
 804a140:	e8 03 a8 00 00       	call   8054948 <__afl_maybe_log>
 804a145:	8b 44 24 0c          	mov    0xc(%esp),%eax
 804a149:	8b 4c 24 08          	mov    0x8(%esp),%ecx
 804a14d:	8b 54 24 04          	mov    0x4(%esp),%edx
 804a151:	8b 3c 24             	mov    (%esp),%edi
 804a154:	8d 64 24 10          	lea    0x10(%esp),%esp
 804a158:	83 ec 08             	sub    $0x8,%esp
 804a15b:	68 dd 01 00 00       	push   $0x1dd
 804a160:	68 2d 5b 06 08       	push   $0x8065b2d
 804a165:	e8 16 6f 00 00       	call   8051080 <report_label_coverage>
}
// ABS Label 478
if(optind < 0)  {
 804a16a:	a1 cc a2 06 08       	mov    0x806a2cc,%eax
      label_3:
        {
            
// ABS Label 477
if(argc < 0)  {
	report_label_coverage("ABS", 477);
 804a16f:	83 c4 10             	add    $0x10,%esp
}
// ABS Label 478
if(optind < 0)  {
 804a172:	85 c0                	test   %eax,%eax
 804a174:	0f 89 66 f9 ff ff    	jns    8049ae0 <main+0x580>
 804a17a:	66 90                	xchg   %ax,%ax
 804a17c:	8d 64 24 f0          	lea    -0x10(%esp),%esp
 804a180:	89 3c 24             	mov    %edi,(%esp)
 804a183:	89 54 24 04          	mov    %edx,0x4(%esp)
 804a187:	89 4c 24 08          	mov    %ecx,0x8(%esp)
 804a18b:	89 44 24 0c          	mov    %eax,0xc(%esp)
 804a18f:	b9 9b 31 00 00       	mov    $0x319b,%ecx
 804a194:	e8 af a7 00 00       	call   8054948 <__afl_maybe_log>
 804a199:	8b 44 24 0c          	mov    0xc(%esp),%eax
 804a19d:	8b 4c 24 08          	mov    0x8(%esp),%ecx
 804a1a1:	8b 54 24 04          	mov    0x4(%esp),%edx
 804a1a5:	8b 3c 24             	mov    (%esp),%edi
 804a1a8:	8d 64 24 10          	lea    0x10(%esp),%esp
 804a1ac:	8d 74 26 00          	lea    0x0(%esi,%eiz,1),%esi
	report_label_coverage("ABS", 478);
 804a1b0:	83 ec 08             	sub    $0x8,%esp
 804a1b3:	68 de 01 00 00       	push   $0x1de
 804a1b8:	68 2d 5b 06 08       	push   $0x8065b2d
 804a1bd:	e8 be 6e 00 00       	call   8051080 <report_label_coverage>
 804a1c2:	a1 cc a2 06 08       	mov    0x806a2cc,%eax
 804a1c7:	83 c4 10             	add    $0x10,%esp
 804a1ca:	e9 11 f9 ff ff       	jmp    8049ae0 <main+0x580>
 804a1cf:	90                   	nop
if(optc < 0)  {
	report_label_coverage("ABS", 466);
}

// COR Label 467
if((optc == -1 && (posixly_correct && nfiles != 0)) != (optc == -1 || (posixly_correct && nfiles != 0)))  {
 804a1d0:	0f b6 4d bc          	movzbl -0x44(%ebp),%ecx
 804a1d4:	88 4d c4             	mov    %cl,-0x3c(%ebp)
 804a1d7:	90                   	nop
	report_label_coverage("COR", 467);
 804a1d8:	8d 64 24 f0          	lea    -0x10(%esp),%esp
 804a1dc:	89 3c 24             	mov    %edi,(%esp)
 804a1df:	89 54 24 04          	mov    %edx,0x4(%esp)
 804a1e3:	89 4c 24 08          	mov    %ecx,0x8(%esp)
 804a1e7:	89 44 24 0c          	mov    %eax,0xc(%esp)
 804a1eb:	b9 2c 13 00 00       	mov    $0x132c,%ecx
 804a1f0:	e8 53 a7 00 00       	call   8054948 <__afl_maybe_log>
 804a1f5:	8b 44 24 0c          	mov    0xc(%esp),%eax
 804a1f9:	8b 4c 24 08          	mov    0x8(%esp),%ecx
 804a1fd:	8b 54 24 04          	mov    0x4(%esp),%edx
 804a201:	8b 3c 24             	mov    (%esp),%edi
 804a204:	8d 64 24 10          	lea    0x10(%esp),%esp
 804a208:	83 ec 08             	sub    $0x8,%esp
 804a20b:	68 d3 01 00 00       	push   $0x1d3
 804a210:	68 13 5b 06 08       	push   $0x8065b13
 804a215:	e8 66 6e 00 00       	call   8051080 <report_label_coverage>
}

// ROR Label 468
if((optc != -1) != (optc == -1))  {
 804a21a:	83 c4 10             	add    $0x10,%esp
 804a21d:	83 fe ff             	cmp    $0xffffffff,%esi
 804a220:	0f 94 c0             	sete   %al
 804a223:	0f 95 c2             	setne  %dl
 804a226:	38 c2                	cmp    %al,%dl
 804a228:	0f 84 2e f5 ff ff    	je     804975c <main+0x1fc>
 804a22e:	66 90                	xchg   %ax,%ax
 804a230:	8d 64 24 f0          	lea    -0x10(%esp),%esp
 804a234:	89 3c 24             	mov    %edi,(%esp)
 804a237:	89 54 24 04          	mov    %edx,0x4(%esp)
 804a23b:	89 4c 24 08          	mov    %ecx,0x8(%esp)
 804a23f:	89 44 24 0c          	mov    %eax,0xc(%esp)
 804a243:	b9 33 17 00 00       	mov    $0x1733,%ecx
 804a248:	e8 fb a6 00 00       	call   8054948 <__afl_maybe_log>
 804a24d:	8b 44 24 0c          	mov    0xc(%esp),%eax
 804a251:	8b 4c 24 08          	mov    0x8(%esp),%ecx
 804a255:	8b 54 24 04          	mov    0x4(%esp),%edx
 804a259:	8b 3c 24             	mov    (%esp),%edi
 804a25c:	8d 64 24 10          	lea    0x10(%esp),%esp
 804a260:	e9 db f4 ff ff       	jmp    8049740 <main+0x1e0>
 804a265:	8d 76 00             	lea    0x0(%esi),%esi
	report_label_coverage("MCC", 476);
}
if (optc == -1 || (posixly_correct && nfiles != 0))
    goto label_3;
else {
    int temp_1 = getopt_long(argc, argv, "-0123456789Dcdf:is:uw:z", longopts, ((void *)0));
 804a268:	83 ec 0c             	sub    $0xc,%esp
 804a26b:	6a 00                	push   $0x0
 804a26d:	68 40 65 06 08       	push   $0x8066540
 804a272:	68 df 5b 06 08       	push   $0x8065bdf
 804a277:	ff 75 b8             	pushl  -0x48(%ebp)
 804a27a:	57                   	push   %edi
 804a27b:	e8 e0 f0 ff ff       	call   8049360 <getopt_long@plt>
    int temp_2 = -1;
    if (((optc = temp_1) == temp_2))
 804a280:	83 c4 20             	add    $0x20,%esp
 804a283:	83 f8 ff             	cmp    $0xffffffff,%eax
	report_label_coverage("MCC", 476);
}
if (optc == -1 || (posixly_correct && nfiles != 0))
    goto label_3;
else {
    int temp_1 = getopt_long(argc, argv, "-0123456789Dcdf:is:uw:z", longopts, ((void *)0));
 804a286:	89 c6                	mov    %eax,%esi
    int temp_2 = -1;
    if (((optc = temp_1) == temp_2))
 804a288:	0f 84 7a f7 ff ff    	je     8049a08 <main+0x4a8>
 804a28e:	66 90                	xchg   %ax,%ax
 804a290:	8d 64 24 f0          	lea    -0x10(%esp),%esp
 804a294:	89 3c 24             	mov    %edi,(%esp)
 804a297:	89 54 24 04          	mov    %edx,0x4(%esp)
 804a29b:	89 4c 24 08          	mov    %ecx,0x8(%esp)
 804a29f:	89 44 24 0c          	mov    %eax,0xc(%esp)
 804a2a3:	b9 71 d1 00 00       	mov    $0xd171,%ecx
 804a2a8:	e8 9b a6 00 00       	call   8054948 <__afl_maybe_log>
 804a2ad:	8b 44 24 0c          	mov    0xc(%esp),%eax
 804a2b1:	8b 4c 24 08          	mov    0x8(%esp),%ecx
 804a2b5:	8b 54 24 04          	mov    0x4(%esp),%edx
 804a2b9:	8b 3c 24             	mov    (%esp),%edi
 804a2bc:	8d 64 24 10          	lea    0x10(%esp),%esp
                usage(1);
            }
            file[nfiles++] = argv[optind++];
        }
    else
        switch (optc) {
 804a2c0:	83 f8 64             	cmp    $0x64,%eax
 804a2c3:	0f 84 f7 0f 00 00    	je     804b2c0 <main+0x1d60>
 804a2c9:	8d 76 00             	lea    0x0(%esi),%esi
 804a2cc:	8d 64 24 f0          	lea    -0x10(%esp),%esp
 804a2d0:	89 3c 24             	mov    %edi,(%esp)
 804a2d3:	89 54 24 04          	mov    %edx,0x4(%esp)
 804a2d7:	89 4c 24 08          	mov    %ecx,0x8(%esp)
 804a2db:	89 44 24 0c          	mov    %eax,0xc(%esp)
 804a2df:	b9 af 3f 00 00       	mov    $0x3faf,%ecx
 804a2e4:	e8 5f a6 00 00       	call   8054948 <__afl_maybe_log>
 804a2e9:	8b 44 24 0c          	mov    0xc(%esp),%eax
 804a2ed:	8b 4c 24 08          	mov    0x8(%esp),%ecx
 804a2f1:	8b 54 24 04          	mov    0x4(%esp),%edx
 804a2f5:	8b 3c 24             	mov    (%esp),%edi
 804a2f8:	8d 64 24 10          	lea    0x10(%esp),%esp
 804a2fc:	0f 8e 66 02 00 00    	jle    804a568 <main+0x1008>
 804a302:	66 90                	xchg   %ax,%ax
 804a304:	8d 64 24 f0          	lea    -0x10(%esp),%esp
 804a308:	89 3c 24             	mov    %edi,(%esp)
 804a30b:	89 54 24 04          	mov    %edx,0x4(%esp)
 804a30f:	89 4c 24 08          	mov    %ecx,0x8(%esp)
 804a313:	89 44 24 0c          	mov    %eax,0xc(%esp)
 804a317:	b9 c5 f4 00 00       	mov    $0xf4c5,%ecx
 804a31c:	e8 27 a6 00 00       	call   8054948 <__afl_maybe_log>
 804a321:	8b 44 24 0c          	mov    0xc(%esp),%eax
 804a325:	8b 4c 24 08          	mov    0x8(%esp),%ecx
 804a329:	8b 54 24 04          	mov    0x4(%esp),%edx
 804a32d:	8b 3c 24             	mov    (%esp),%edi
 804a330:	8d 64 24 10          	lea    0x10(%esp),%esp
 804a334:	83 f8 75             	cmp    $0x75,%eax
 804a337:	0f 84 43 0f 00 00    	je     804b280 <main+0x1d20>
 804a33d:	8d 76 00             	lea    0x0(%esi),%esi
 804a340:	8d 64 24 f0          	lea    -0x10(%esp),%esp
 804a344:	89 3c 24             	mov    %edi,(%esp)
 804a347:	89 54 24 04          	mov    %edx,0x4(%esp)
 804a34b:	89 4c 24 08          	mov    %ecx,0x8(%esp)
 804a34f:	89 44 24 0c          	mov    %eax,0xc(%esp)
 804a353:	b9 03 d3 00 00       	mov    $0xd303,%ecx
 804a358:	e8 eb a5 00 00       	call   8054948 <__afl_maybe_log>
 804a35d:	8b 44 24 0c          	mov    0xc(%esp),%eax
 804a361:	8b 4c 24 08          	mov    0x8(%esp),%ecx
 804a365:	8b 54 24 04          	mov    0x4(%esp),%edx
 804a369:	8b 3c 24             	mov    (%esp),%edi
 804a36c:	8d 64 24 10          	lea    0x10(%esp),%esp
 804a370:	0f 8f 5a 03 00 00    	jg     804a6d0 <main+0x1170>
 804a376:	66 90                	xchg   %ax,%ax
 804a378:	8d 64 24 f0          	lea    -0x10(%esp),%esp
 804a37c:	89 3c 24             	mov    %edi,(%esp)
 804a37f:	89 54 24 04          	mov    %edx,0x4(%esp)
 804a383:	89 4c 24 08          	mov    %ecx,0x8(%esp)
 804a387:	89 44 24 0c          	mov    %eax,0xc(%esp)
 804a38b:	b9 0f 8a 00 00       	mov    $0x8a0f,%ecx
 804a390:	e8 b3 a5 00 00       	call   8054948 <__afl_maybe_log>
 804a395:	8b 44 24 0c          	mov    0xc(%esp),%eax
 804a399:	8b 4c 24 08          	mov    0x8(%esp),%ecx
 804a39d:	8b 54 24 04          	mov    0x4(%esp),%edx
 804a3a1:	8b 3c 24             	mov    (%esp),%edi
 804a3a4:	8d 64 24 10          	lea    0x10(%esp),%esp
 804a3a8:	83 f8 69             	cmp    $0x69,%eax
 804a3ab:	0f 84 a0 05 00 00    	je     804a951 <main+0x13f1>
 804a3b1:	8d 76 00             	lea    0x0(%esi),%esi
 804a3b4:	8d 64 24 f0          	lea    -0x10(%esp),%esp
 804a3b8:	89 3c 24             	mov    %edi,(%esp)
 804a3bb:	89 54 24 04          	mov    %edx,0x4(%esp)
 804a3bf:	89 4c 24 08          	mov    %ecx,0x8(%esp)
 804a3c3:	89 44 24 0c          	mov    %eax,0xc(%esp)
 804a3c7:	b9 43 ca 00 00       	mov    $0xca43,%ecx
 804a3cc:	e8 77 a5 00 00       	call   8054948 <__afl_maybe_log>
 804a3d1:	8b 44 24 0c          	mov    0xc(%esp),%eax
 804a3d5:	8b 4c 24 08          	mov    0x8(%esp),%ecx
 804a3d9:	8b 54 24 04          	mov    0x4(%esp),%edx
 804a3dd:	8b 3c 24             	mov    (%esp),%edi
 804a3e0:	8d 64 24 10          	lea    0x10(%esp),%esp
 804a3e4:	83 f8 73             	cmp    $0x73,%eax
 804a3e7:	0f 84 19 0d 00 00    	je     804b106 <main+0x1ba6>
 804a3ed:	8d 76 00             	lea    0x0(%esi),%esi
 804a3f0:	8d 64 24 f0          	lea    -0x10(%esp),%esp
 804a3f4:	89 3c 24             	mov    %edi,(%esp)
 804a3f7:	89 54 24 04          	mov    %edx,0x4(%esp)
 804a3fb:	89 4c 24 08          	mov    %ecx,0x8(%esp)
 804a3ff:	89 44 24 0c          	mov    %eax,0xc(%esp)
 804a403:	b9 e9 33 00 00       	mov    $0x33e9,%ecx
 804a408:	e8 3b a5 00 00       	call   8054948 <__afl_maybe_log>
 804a40d:	8b 44 24 0c          	mov    0xc(%esp),%eax
 804a411:	8b 4c 24 08          	mov    0x8(%esp),%ecx
 804a415:	8b 54 24 04          	mov    0x4(%esp),%edx
 804a419:	8b 3c 24             	mov    (%esp),%edi
 804a41c:	8d 64 24 10          	lea    0x10(%esp),%esp
 804a420:	83 f8 66             	cmp    $0x66,%eax
 804a423:	0f 84 67 05 00 00    	je     804a990 <main+0x1430>
 804a429:	8d 76 00             	lea    0x0(%esi),%esi
 804a42c:	8d 64 24 f0          	lea    -0x10(%esp),%esp
 804a430:	89 3c 24             	mov    %edi,(%esp)
 804a433:	89 54 24 04          	mov    %edx,0x4(%esp)
 804a437:	89 4c 24 08          	mov    %ecx,0x8(%esp)
 804a43b:	89 44 24 0c          	mov    %eax,0xc(%esp)
 804a43f:	b9 c3 c7 00 00       	mov    $0xc7c3,%ecx
 804a444:	e8 ff a4 00 00       	call   8054948 <__afl_maybe_log>
 804a449:	8b 44 24 0c          	mov    0xc(%esp),%eax
 804a44d:	8b 4c 24 08          	mov    0x8(%esp),%ecx
 804a451:	8b 54 24 04          	mov    0x4(%esp),%edx
 804a455:	8b 3c 24             	mov    (%esp),%edi
 804a458:	8d 64 24 10          	lea    0x10(%esp),%esp
            version_etc(stdout, "uniq", "GNU coreutils", Version, ("Richard M. Stallman"), ("David MacKenzie"), (char *)((void *)0));
            exit(0);
            break;
            ;
          default:
            usage(1);
 804a45c:	8d 64 24 f0          	lea    -0x10(%esp),%esp
 804a460:	89 3c 24             	mov    %edi,(%esp)
 804a463:	89 54 24 04          	mov    %edx,0x4(%esp)
 804a467:	89 4c 24 08          	mov    %ecx,0x8(%esp)
 804a46b:	89 44 24 0c          	mov    %eax,0xc(%esp)
 804a46f:	b9 e5 a4 00 00       	mov    $0xa4e5,%ecx
 804a474:	e8 cf a4 00 00       	call   8054948 <__afl_maybe_log>
 804a479:	8b 44 24 0c          	mov    0xc(%esp),%eax
 804a47d:	8b 4c 24 08          	mov    0x8(%esp),%ecx
 804a481:	8b 54 24 04          	mov    0x4(%esp),%edx
 804a485:	8b 3c 24             	mov    (%esp),%edi
 804a488:	8d 64 24 10          	lea    0x10(%esp),%esp
 804a48c:	83 ec 0c             	sub    $0xc,%esp
 804a48f:	6a 01                	push   $0x1
 804a491:	e8 da 9a 00 00       	call   8053f70 <usage>
 804a496:	8d 76 00             	lea    0x0(%esi),%esi
 804a499:	8d bc 27 00 00 00 00 	lea    0x0(%edi,%eiz,1),%edi
if(!(optc == -1) && ( !(posixly_correct) && nfiles != 0 ) ) {
	report_label_coverage("MCC", 475);
}
// MCC Label 476
if(!(optc == -1) && ( !(posixly_correct) && !(nfiles != 0) ) ) {
	report_label_coverage("MCC", 476);
 804a4a0:	83 ec 08             	sub    $0x8,%esp
 804a4a3:	68 dc 01 00 00       	push   $0x1dc
 804a4a8:	68 1b 5b 06 08       	push   $0x8065b1b
 804a4ad:	e8 ce 6b 00 00       	call   8051080 <report_label_coverage>
 804a4b2:	83 c4 10             	add    $0x10,%esp
 804a4b5:	e9 e2 f4 ff ff       	jmp    804999c <main+0x43c>
 804a4ba:	8d b6 00 00 00 00    	lea    0x0(%esi),%esi
if(!(optc == -1) && ( posixly_correct && !(nfiles != 0) ) ) {
	report_label_coverage("MCC", 474);
}
// MCC Label 475
if(!(optc == -1) && ( !(posixly_correct) && nfiles != 0 ) ) {
	report_label_coverage("MCC", 475);
 804a4c0:	83 ec 08             	sub    $0x8,%esp
 804a4c3:	88 45 c4             	mov    %al,-0x3c(%ebp)
 804a4c6:	68 db 01 00 00       	push   $0x1db
 804a4cb:	68 1b 5b 06 08       	push   $0x8065b1b
 804a4d0:	e8 ab 6b 00 00       	call   8051080 <report_label_coverage>
 804a4d5:	83 c4 10             	add    $0x10,%esp
 804a4d8:	0f b6 45 c4          	movzbl -0x3c(%ebp),%eax
 804a4dc:	e9 4f f4 ff ff       	jmp    8049930 <main+0x3d0>
 804a4e1:	8d b4 26 00 00 00 00 	lea    0x0(%esi,%eiz,1),%esi
if(optc == -1 && ( !(posixly_correct) && !(nfiles != 0) ) ) {
	report_label_coverage("MCC", 472);
}
// MCC Label 473
if(!(optc == -1) && ( posixly_correct && nfiles != 0 ) ) {
	report_label_coverage("MCC", 473);
 804a4e8:	83 ec 08             	sub    $0x8,%esp
 804a4eb:	68 d9 01 00 00       	push   $0x1d9
 804a4f0:	68 1b 5b 06 08       	push   $0x8065b1b
 804a4f5:	e8 86 6b 00 00       	call   8051080 <report_label_coverage>
 804a4fa:	83 c4 10             	add    $0x10,%esp
 804a4fd:	e9 fe f2 ff ff       	jmp    8049800 <main+0x2a0>
 804a502:	8d b6 00 00 00 00    	lea    0x0(%esi),%esi
	report_label_coverage("ROR", 468);
}

// MCC Label 469
if(optc == -1 && ( posixly_correct && nfiles != 0 ) ) {
	report_label_coverage("MCC", 469);
 804a508:	83 ec 08             	sub    $0x8,%esp
 804a50b:	68 d5 01 00 00       	push   $0x1d5
 804a510:	68 1b 5b 06 08       	push   $0x8065b1b
 804a515:	e8 66 6b 00 00       	call   8051080 <report_label_coverage>
 804a51a:	83 c4 10             	add    $0x10,%esp
 804a51d:	e9 fa f9 ff ff       	jmp    8049f1c <main+0x9bc>
 804a522:	8d b6 00 00 00 00    	lea    0x0(%esi),%esi
if(optc == -1 && ( !(posixly_correct) && nfiles != 0 ) ) {
	report_label_coverage("MCC", 471);
}
// MCC Label 472
if(optc == -1 && ( !(posixly_correct) && !(nfiles != 0) ) ) {
	report_label_coverage("MCC", 472);
 804a528:	83 ec 08             	sub    $0x8,%esp
 804a52b:	68 d8 01 00 00       	push   $0x1d8
 804a530:	68 1b 5b 06 08       	push   $0x8065b1b
 804a535:	e8 46 6b 00 00       	call   8051080 <report_label_coverage>
 804a53a:	83 c4 10             	add    $0x10,%esp
 804a53d:	e9 76 fb ff ff       	jmp    804a0b8 <main+0xb58>
 804a542:	8d b6 00 00 00 00    	lea    0x0(%esi),%esi
if(optc == -1 && ( posixly_correct && !(nfiles != 0) ) ) {
	report_label_coverage("MCC", 470);
}
// MCC Label 471
if(optc == -1 && ( !(posixly_correct) && nfiles != 0 ) ) {
	report_label_coverage("MCC", 471);
 804a548:	83 ec 08             	sub    $0x8,%esp
 804a54b:	68 d7 01 00 00       	push   $0x1d7
 804a550:	68 1b 5b 06 08       	push   $0x8065b1b
 804a555:	e8 26 6b 00 00       	call   8051080 <report_label_coverage>
 804a55a:	83 c4 10             	add    $0x10,%esp
 804a55d:	e9 ea fa ff ff       	jmp    804a04c <main+0xaec>
 804a562:	8d b6 00 00 00 00    	lea    0x0(%esi),%esi
                usage(1);
            }
            file[nfiles++] = argv[optind++];
        }
    else
        switch (optc) {
 804a568:	83 f8 39             	cmp    $0x39,%eax
 804a56b:	0f 8f 6f 04 00 00    	jg     804a9e0 <main+0x1480>
 804a571:	8d 76 00             	lea    0x0(%esi),%esi
 804a574:	8d 64 24 f0          	lea    -0x10(%esp),%esp
 804a578:	89 3c 24             	mov    %edi,(%esp)
 804a57b:	89 54 24 04          	mov    %edx,0x4(%esp)
 804a57f:	89 4c 24 08          	mov    %ecx,0x8(%esp)
 804a583:	89 44 24 0c          	mov    %eax,0xc(%esp)
 804a587:	b9 e8 46 00 00       	mov    $0x46e8,%ecx
 804a58c:	e8 b7 a3 00 00       	call   8054948 <__afl_maybe_log>
 804a591:	8b 44 24 0c          	mov    0xc(%esp),%eax
 804a595:	8b 4c 24 08          	mov    0x8(%esp),%ecx
 804a599:	8b 54 24 04          	mov    0x4(%esp),%edx
 804a59d:	8b 3c 24             	mov    (%esp),%edi
 804a5a0:	8d 64 24 10          	lea    0x10(%esp),%esp
 804a5a4:	83 f8 30             	cmp    $0x30,%eax
 804a5a7:	0f 8d d9 09 00 00    	jge    804af86 <main+0x1a26>
 804a5ad:	8d 76 00             	lea    0x0(%esi),%esi
 804a5b0:	8d 64 24 f0          	lea    -0x10(%esp),%esp
 804a5b4:	89 3c 24             	mov    %edi,(%esp)
 804a5b7:	89 54 24 04          	mov    %edx,0x4(%esp)
 804a5bb:	89 4c 24 08          	mov    %ecx,0x8(%esp)
 804a5bf:	89 44 24 0c          	mov    %eax,0xc(%esp)
 804a5c3:	b9 9b 00 00 00       	mov    $0x9b,%ecx
 804a5c8:	e8 7b a3 00 00       	call   8054948 <__afl_maybe_log>
 804a5cd:	8b 44 24 0c          	mov    0xc(%esp),%eax
 804a5d1:	8b 4c 24 08          	mov    0x8(%esp),%ecx
 804a5d5:	8b 54 24 04          	mov    0x4(%esp),%edx
 804a5d9:	8b 3c 24             	mov    (%esp),%edi
 804a5dc:	8d 64 24 10          	lea    0x10(%esp),%esp
 804a5e0:	3d 7e ff ff ff       	cmp    $0xffffff7e,%eax
 804a5e5:	0f 84 61 09 00 00    	je     804af4c <main+0x19ec>
 804a5eb:	90                   	nop
 804a5ec:	8d 64 24 f0          	lea    -0x10(%esp),%esp
 804a5f0:	89 3c 24             	mov    %edi,(%esp)
 804a5f3:	89 54 24 04          	mov    %edx,0x4(%esp)
 804a5f7:	89 4c 24 08          	mov    %ecx,0x8(%esp)
 804a5fb:	89 44 24 0c          	mov    %eax,0xc(%esp)
 804a5ff:	b9 cb 59 00 00       	mov    $0x59cb,%ecx
 804a604:	e8 3f a3 00 00       	call   8054948 <__afl_maybe_log>
 804a609:	8b 44 24 0c          	mov    0xc(%esp),%eax
 804a60d:	8b 4c 24 08          	mov    0x8(%esp),%ecx
 804a611:	8b 54 24 04          	mov    0x4(%esp),%edx
 804a615:	8b 3c 24             	mov    (%esp),%edi
 804a618:	8d 64 24 10          	lea    0x10(%esp),%esp
 804a61c:	83 f8 01             	cmp    $0x1,%eax
 804a61f:	0f 84 78 01 00 00    	je     804a79d <main+0x123d>
 804a625:	8d 76 00             	lea    0x0(%esi),%esi
 804a628:	8d 64 24 f0          	lea    -0x10(%esp),%esp
 804a62c:	89 3c 24             	mov    %edi,(%esp)
 804a62f:	89 54 24 04          	mov    %edx,0x4(%esp)
 804a633:	89 4c 24 08          	mov    %ecx,0x8(%esp)
 804a637:	89 44 24 0c          	mov    %eax,0xc(%esp)
 804a63b:	b9 8c 2f 00 00       	mov    $0x2f8c,%ecx
 804a640:	e8 03 a3 00 00       	call   8054948 <__afl_maybe_log>
 804a645:	8b 44 24 0c          	mov    0xc(%esp),%eax
 804a649:	8b 4c 24 08          	mov    0x8(%esp),%ecx
 804a64d:	8b 54 24 04          	mov    0x4(%esp),%edx
 804a651:	8b 3c 24             	mov    (%esp),%edi
 804a654:	8d 64 24 10          	lea    0x10(%esp),%esp
 804a658:	3d 7d ff ff ff       	cmp    $0xffffff7d,%eax
 804a65d:	0f 85 f9 fd ff ff    	jne    804a45c <main+0xefc>
 804a663:	90                   	nop
 804a664:	8d 64 24 f0          	lea    -0x10(%esp),%esp
 804a668:	89 3c 24             	mov    %edi,(%esp)
 804a66b:	89 54 24 04          	mov    %edx,0x4(%esp)
 804a66f:	89 4c 24 08          	mov    %ecx,0x8(%esp)
 804a673:	89 44 24 0c          	mov    %eax,0xc(%esp)
 804a677:	b9 4e cf 00 00       	mov    $0xcf4e,%ecx
 804a67c:	e8 c7 a2 00 00       	call   8054948 <__afl_maybe_log>
 804a681:	8b 44 24 0c          	mov    0xc(%esp),%eax
 804a685:	8b 4c 24 08          	mov    0x8(%esp),%ecx
 804a689:	8b 54 24 04          	mov    0x4(%esp),%edx
 804a68d:	8b 3c 24             	mov    (%esp),%edi
 804a690:	8d 64 24 10          	lea    0x10(%esp),%esp
          case GETOPT_HELP_CHAR:
            usage(0);
            break;
            ;
          case GETOPT_VERSION_CHAR:
            version_etc(stdout, "uniq", "GNU coreutils", Version, ("Richard M. Stallman"), ("David MacKenzie"), (char *)((void *)0));
 804a694:	53                   	push   %ebx
 804a695:	6a 00                	push   $0x0
 804a697:	68 1f 5c 06 08       	push   $0x8065c1f
 804a69c:	68 2f 5c 06 08       	push   $0x8065c2f
 804a6a1:	ff 35 48 a2 06 08    	pushl  0x806a248
 804a6a7:	68 a5 5b 06 08       	push   $0x8065ba5
 804a6ac:	68 28 5b 06 08       	push   $0x8065b28
 804a6b1:	ff 35 d8 a2 06 08    	pushl  0x806a2d8
 804a6b7:	e8 f4 4d 01 00       	call   805f4b0 <version_etc>
            exit(0);
 804a6bc:	83 c4 14             	add    $0x14,%esp
 804a6bf:	6a 00                	push   $0x0
 804a6c1:	e8 6a ec ff ff       	call   8049330 <exit@plt>
 804a6c6:	8d 76 00             	lea    0x0(%esi),%esi
 804a6c9:	8d bc 27 00 00 00 00 	lea    0x0(%edi,%eiz,1),%edi
                usage(1);
            }
            file[nfiles++] = argv[optind++];
        }
    else
        switch (optc) {
 804a6d0:	83 f8 7a             	cmp    $0x7a,%eax
 804a6d3:	0f 84 3c 02 00 00    	je     804a915 <main+0x13b5>
 804a6d9:	8d 76 00             	lea    0x0(%esi),%esi
 804a6dc:	8d 64 24 f0          	lea    -0x10(%esp),%esp
 804a6e0:	89 3c 24             	mov    %edi,(%esp)
 804a6e3:	89 54 24 04          	mov    %edx,0x4(%esp)
 804a6e7:	89 4c 24 08          	mov    %ecx,0x8(%esp)
 804a6eb:	89 44 24 0c          	mov    %eax,0xc(%esp)
 804a6ef:	b9 c9 6d 00 00       	mov    $0x6dc9,%ecx
 804a6f4:	e8 4f a2 00 00       	call   8054948 <__afl_maybe_log>
 804a6f9:	8b 44 24 0c          	mov    0xc(%esp),%eax
 804a6fd:	8b 4c 24 08          	mov    0x8(%esp),%ecx
 804a701:	8b 54 24 04          	mov    0x4(%esp),%edx
 804a705:	8b 3c 24             	mov    (%esp),%edi
 804a708:	8d 64 24 10          	lea    0x10(%esp),%esp
 804a70c:	3d 80 00 00 00       	cmp    $0x80,%eax
 804a711:	0f 84 3a 0a 00 00    	je     804b151 <main+0x1bf1>
 804a717:	90                   	nop
 804a718:	8d 64 24 f0          	lea    -0x10(%esp),%esp
 804a71c:	89 3c 24             	mov    %edi,(%esp)
 804a71f:	89 54 24 04          	mov    %edx,0x4(%esp)
 804a723:	89 4c 24 08          	mov    %ecx,0x8(%esp)
 804a727:	89 44 24 0c          	mov    %eax,0xc(%esp)
 804a72b:	b9 4f a2 00 00       	mov    $0xa24f,%ecx
 804a730:	e8 13 a2 00 00       	call   8054948 <__afl_maybe_log>
 804a735:	8b 44 24 0c          	mov    0xc(%esp),%eax
 804a739:	8b 4c 24 08          	mov    0x8(%esp),%ecx
 804a73d:	8b 54 24 04          	mov    0x4(%esp),%edx
 804a741:	8b 3c 24             	mov    (%esp),%edi
 804a744:	8d 64 24 10          	lea    0x10(%esp),%esp
 804a748:	83 f8 77             	cmp    $0x77,%eax
 804a74b:	0f 85 0b fd ff ff    	jne    804a45c <main+0xefc>
 804a751:	8d 76 00             	lea    0x0(%esi),%esi
 804a754:	8d 64 24 f0          	lea    -0x10(%esp),%esp
 804a758:	89 3c 24             	mov    %edi,(%esp)
 804a75b:	89 54 24 04          	mov    %edx,0x4(%esp)
 804a75f:	89 4c 24 08          	mov    %ecx,0x8(%esp)
 804a763:	89 44 24 0c          	mov    %eax,0xc(%esp)
 804a767:	b9 77 fc 00 00       	mov    $0xfc77,%ecx
 804a76c:	e8 d7 a1 00 00       	call   8054948 <__afl_maybe_log>
 804a771:	8b 44 24 0c          	mov    0xc(%esp),%eax
 804a775:	8b 4c 24 08          	mov    0x8(%esp),%ecx
 804a779:	8b 54 24 04          	mov    0x4(%esp),%edx
 804a77d:	8b 3c 24             	mov    (%esp),%edi
 804a780:	8d 64 24 10          	lea    0x10(%esp),%esp
          case 'u':
            output_first_repeated = 0;
            output_option_used = 1;
            break;
          case 'w':
            check_chars = size_opt(optarg, "invalid number of bytes to compare");
 804a784:	a1 e0 a2 06 08       	mov    0x806a2e0,%eax
 804a789:	ba 60 64 06 08       	mov    $0x8066460,%edx
 804a78e:	e8 fd 67 00 00       	call   8050f90 <size_opt>
 804a793:	a3 10 a3 06 08       	mov    %eax,0x806a310
            break;
 804a798:	e9 4b ef ff ff       	jmp    80496e8 <main+0x188>
 804a79d:	8d 76 00             	lea    0x0(%esi),%esi
    else
        switch (optc) {
          case 1:
            {
                unsigned long size;
                if (optarg[0] == '+' && posix2_version() < 200112 && xstrtoul(optarg, ((void *)0), 10, &size, "") == LONGINT_OK && size <= (18446744073709551615UL))
 804a7a0:	8d 64 24 f0          	lea    -0x10(%esp),%esp
 804a7a4:	89 3c 24             	mov    %edi,(%esp)
 804a7a7:	89 54 24 04          	mov    %edx,0x4(%esp)
 804a7ab:	89 4c 24 08          	mov    %ecx,0x8(%esp)
 804a7af:	89 44 24 0c          	mov    %eax,0xc(%esp)
 804a7b3:	b9 c8 23 00 00       	mov    $0x23c8,%ecx
 804a7b8:	e8 8b a1 00 00       	call   8054948 <__afl_maybe_log>
 804a7bd:	8b 44 24 0c          	mov    0xc(%esp),%eax
 804a7c1:	8b 4c 24 08          	mov    0x8(%esp),%ecx
 804a7c5:	8b 54 24 04          	mov    0x4(%esp),%edx
 804a7c9:	8b 3c 24             	mov    (%esp),%edi
 804a7cc:	8d 64 24 10          	lea    0x10(%esp),%esp
 804a7d0:	8b 0d e0 a2 06 08    	mov    0x806a2e0,%ecx
 804a7d6:	80 39 2b             	cmpb   $0x2b,(%ecx)
 804a7d9:	0f 84 2a 31 00 00    	je     804d909 <main+0x43a9>
 804a7df:	90                   	nop
 804a7e0:	8d 64 24 f0          	lea    -0x10(%esp),%esp
 804a7e4:	89 3c 24             	mov    %edi,(%esp)
 804a7e7:	89 54 24 04          	mov    %edx,0x4(%esp)
 804a7eb:	89 4c 24 08          	mov    %ecx,0x8(%esp)
 804a7ef:	89 44 24 0c          	mov    %eax,0xc(%esp)
 804a7f3:	b9 55 c8 00 00       	mov    $0xc855,%ecx
 804a7f8:	e8 4b a1 00 00       	call   8054948 <__afl_maybe_log>
 804a7fd:	8b 44 24 0c          	mov    0xc(%esp),%eax
 804a801:	8b 4c 24 08          	mov    0x8(%esp),%ecx
 804a805:	8b 54 24 04          	mov    0x4(%esp),%edx
 804a809:	8b 3c 24             	mov    (%esp),%edi
 804a80c:	8d 64 24 10          	lea    0x10(%esp),%esp
if(nfiles < 0)  {
	report_label_coverage("ABS", 484);
}

// ROR Label 485
if((nfiles != 2) != (nfiles == 2))  {
 804a810:	8d 64 24 f0          	lea    -0x10(%esp),%esp
 804a814:	89 3c 24             	mov    %edi,(%esp)
 804a817:	89 54 24 04          	mov    %edx,0x4(%esp)
 804a81b:	89 4c 24 08          	mov    %ecx,0x8(%esp)
 804a81f:	89 44 24 0c          	mov    %eax,0xc(%esp)
 804a823:	b9 66 d7 00 00       	mov    $0xd766,%ecx
 804a828:	e8 1b a1 00 00       	call   8054948 <__afl_maybe_log>
 804a82d:	8b 44 24 0c          	mov    0xc(%esp),%eax
 804a831:	8b 4c 24 08          	mov    0x8(%esp),%ecx
 804a835:	8b 54 24 04          	mov    0x4(%esp),%edx
 804a839:	8b 3c 24             	mov    (%esp),%edi
 804a83c:	8d 64 24 10          	lea    0x10(%esp),%esp
 804a840:	83 fb 02             	cmp    $0x2,%ebx
 804a843:	0f 94 c1             	sete   %cl
 804a846:	0f 95 c2             	setne  %dl
 804a849:	38 ca                	cmp    %cl,%dl
 804a84b:	74 4e                	je     804a89b <main+0x133b>
 804a84d:	8d 76 00             	lea    0x0(%esi),%esi
 804a850:	8d 64 24 f0          	lea    -0x10(%esp),%esp
 804a854:	89 3c 24             	mov    %edi,(%esp)
 804a857:	89 54 24 04          	mov    %edx,0x4(%esp)
 804a85b:	89 4c 24 08          	mov    %ecx,0x8(%esp)
 804a85f:	89 44 24 0c          	mov    %eax,0xc(%esp)
 804a863:	b9 de a4 00 00       	mov    $0xa4de,%ecx
 804a868:	e8 db a0 00 00       	call   8054948 <__afl_maybe_log>
 804a86d:	8b 44 24 0c          	mov    0xc(%esp),%eax
 804a871:	8b 4c 24 08          	mov    0x8(%esp),%ecx
 804a875:	8b 54 24 04          	mov    0x4(%esp),%edx
 804a879:	8b 3c 24             	mov    (%esp),%edi
 804a87c:	8d 64 24 10          	lea    0x10(%esp),%esp
	report_label_coverage("ROR", 485);
 804a880:	50                   	push   %eax
 804a881:	50                   	push   %eax
 804a882:	68 e5 01 00 00       	push   $0x1e5
 804a887:	68 17 5b 06 08       	push   $0x8065b17
 804a88c:	88 4d c4             	mov    %cl,-0x3c(%ebp)
 804a88f:	e8 ec 67 00 00       	call   8051080 <report_label_coverage>
 804a894:	0f b6 4d c4          	movzbl -0x3c(%ebp),%ecx
 804a898:	83 c4 10             	add    $0x10,%esp
 804a89b:	90                   	nop
}
if (nfiles == 2) {
 804a89c:	8d 64 24 f0          	lea    -0x10(%esp),%esp
 804a8a0:	89 3c 24             	mov    %edi,(%esp)
 804a8a3:	89 54 24 04          	mov    %edx,0x4(%esp)
 804a8a7:	89 4c 24 08          	mov    %ecx,0x8(%esp)
 804a8ab:	89 44 24 0c          	mov    %eax,0xc(%esp)
 804a8af:	b9 31 3c 00 00       	mov    $0x3c31,%ecx
 804a8b4:	e8 8f a0 00 00       	call   8054948 <__afl_maybe_log>
 804a8b9:	8b 44 24 0c          	mov    0xc(%esp),%eax
 804a8bd:	8b 4c 24 08          	mov    0x8(%esp),%ecx
 804a8c1:	8b 54 24 04          	mov    0x4(%esp),%edx
 804a8c5:	8b 3c 24             	mov    (%esp),%edi
 804a8c8:	8d 64 24 10          	lea    0x10(%esp),%esp
 804a8cc:	84 c9                	test   %cl,%cl
 804a8ce:	0f 85 3d 65 00 00    	jne    8050e11 <main+0x78b1>
 804a8d4:	8d 64 24 f0          	lea    -0x10(%esp),%esp
 804a8d8:	89 3c 24             	mov    %edi,(%esp)
 804a8db:	89 54 24 04          	mov    %edx,0x4(%esp)
 804a8df:	89 4c 24 08          	mov    %ecx,0x8(%esp)
 804a8e3:	89 44 24 0c          	mov    %eax,0xc(%esp)
 804a8e7:	b9 43 d2 00 00       	mov    $0xd243,%ecx
 804a8ec:	e8 57 a0 00 00       	call   8054948 <__afl_maybe_log>
 804a8f1:	8b 44 24 0c          	mov    0xc(%esp),%eax
 804a8f5:	8b 4c 24 08          	mov    0x8(%esp),%ecx
 804a8f9:	8b 54 24 04          	mov    0x4(%esp),%edx
 804a8fd:	8b 3c 24             	mov    (%esp),%edi
 804a900:	8d 64 24 10          	lea    0x10(%esp),%esp
                    error(0, 0, gettext("extra operand %s"), quote(optarg));
                    usage(1);
                } else
                    file[nfiles++] = optarg;}
 804a904:	a1 e0 a2 06 08       	mov    0x806a2e0,%eax
 804a909:	89 44 9d c8          	mov    %eax,-0x38(%ebp,%ebx,4)
 804a90d:	83 c3 01             	add    $0x1,%ebx
;
            }
            break;
 804a910:	e9 d3 ed ff ff       	jmp    80496e8 <main+0x188>
 804a915:	8d 76 00             	lea    0x0(%esi),%esi
            break;
          case 'w':
            check_chars = size_opt(optarg, "invalid number of bytes to compare");
            break;
          case 'z':
            delimiter = '\x00';
 804a918:	8d 64 24 f0          	lea    -0x10(%esp),%esp
 804a91c:	89 3c 24             	mov    %edi,(%esp)
 804a91f:	89 54 24 04          	mov    %edx,0x4(%esp)
 804a923:	89 4c 24 08          	mov    %ecx,0x8(%esp)
 804a927:	89 44 24 0c          	mov    %eax,0xc(%esp)
 804a92b:	b9 95 ea 00 00       	mov    $0xea95,%ecx
 804a930:	e8 13 a0 00 00       	call   8054948 <__afl_maybe_log>
 804a935:	8b 44 24 0c          	mov    0xc(%esp),%eax
 804a939:	8b 4c 24 08          	mov    0x8(%esp),%ecx
 804a93d:	8b 54 24 04          	mov    0x4(%esp),%edx
 804a941:	8b 3c 24             	mov    (%esp),%edi
 804a944:	8d 64 24 10          	lea    0x10(%esp),%esp
 804a948:	c6 45 9e 00          	movb   $0x0,-0x62(%ebp)
 804a94c:	e9 97 ed ff ff       	jmp    80496e8 <main+0x188>
 804a951:	8d 76 00             	lea    0x0(%esi),%esi
          case 'f':
            skip_field_option_type = SFO_NEW;
            skip_fields = size_opt(optarg, "invalid number of fields to skip");
            break;
          case 'i':
            ignore_case = 1;
 804a954:	8d 64 24 f0          	lea    -0x10(%esp),%esp
 804a958:	89 3c 24             	mov    %edi,(%esp)
 804a95b:	89 54 24 04          	mov    %edx,0x4(%esp)
 804a95f:	89 4c 24 08          	mov    %ecx,0x8(%esp)
 804a963:	89 44 24 0c          	mov    %eax,0xc(%esp)
 804a967:	b9 ac 83 00 00       	mov    $0x83ac,%ecx
 804a96c:	e8 d7 9f 00 00       	call   8054948 <__afl_maybe_log>
 804a971:	8b 44 24 0c          	mov    0xc(%esp),%eax
 804a975:	8b 4c 24 08          	mov    0x8(%esp),%ecx
 804a979:	8b 54 24 04          	mov    0x4(%esp),%edx
 804a97d:	8b 3c 24             	mov    (%esp),%edi
 804a980:	8d 64 24 10          	lea    0x10(%esp),%esp
 804a984:	c6 05 08 a3 06 08 01 	movb   $0x1,0x806a308
            break;
 804a98b:	e9 58 ed ff ff       	jmp    80496e8 <main+0x188>
            else
                grouping = ((grouping_method_map)[__xargmatch_internal("--group", optarg, grouping_method_string, (const char *)(grouping_method_map), sizeof *(grouping_method_map), argmatch_die)]);
            break;
          case 'f':
            skip_field_option_type = SFO_NEW;
            skip_fields = size_opt(optarg, "invalid number of fields to skip");
 804a990:	8d 64 24 f0          	lea    -0x10(%esp),%esp
 804a994:	89 3c 24             	mov    %edi,(%esp)
 804a997:	89 54 24 04          	mov    %edx,0x4(%esp)
 804a99b:	89 4c 24 08          	mov    %ecx,0x8(%esp)
 804a99f:	89 44 24 0c          	mov    %eax,0xc(%esp)
 804a9a3:	b9 40 a1 00 00       	mov    $0xa140,%ecx
 804a9a8:	e8 9b 9f 00 00       	call   8054948 <__afl_maybe_log>
 804a9ad:	8b 44 24 0c          	mov    0xc(%esp),%eax
 804a9b1:	8b 4c 24 08          	mov    0x8(%esp),%ecx
 804a9b5:	8b 54 24 04          	mov    0x4(%esp),%edx
 804a9b9:	8b 3c 24             	mov    (%esp),%edi
 804a9bc:	8d 64 24 10          	lea    0x10(%esp),%esp
 804a9c0:	a1 e0 a2 06 08       	mov    0x806a2e0,%eax
 804a9c5:	ba 1c 64 06 08       	mov    $0x806641c,%edx
 804a9ca:	e8 c1 65 00 00       	call   8050f90 <size_opt>
                grouping = GM_SEPARATE;
            else
                grouping = ((grouping_method_map)[__xargmatch_internal("--group", optarg, grouping_method_string, (const char *)(grouping_method_map), sizeof *(grouping_method_map), argmatch_die)]);
            break;
          case 'f':
            skip_field_option_type = SFO_NEW;
 804a9cf:	c7 45 ac 02 00 00 00 	movl   $0x2,-0x54(%ebp)
            skip_fields = size_opt(optarg, "invalid number of fields to skip");
 804a9d6:	a3 18 a3 06 08       	mov    %eax,0x806a318
            break;
 804a9db:	e9 08 ed ff ff       	jmp    80496e8 <main+0x188>
                usage(1);
            }
            file[nfiles++] = argv[optind++];
        }
    else
        switch (optc) {
 804a9e0:	8d 64 24 f0          	lea    -0x10(%esp),%esp
 804a9e4:	89 3c 24             	mov    %edi,(%esp)
 804a9e7:	89 54 24 04          	mov    %edx,0x4(%esp)
 804a9eb:	89 4c 24 08          	mov    %ecx,0x8(%esp)
 804a9ef:	89 44 24 0c          	mov    %eax,0xc(%esp)
 804a9f3:	b9 c5 13 00 00       	mov    $0x13c5,%ecx
 804a9f8:	e8 4b 9f 00 00       	call   8054948 <__afl_maybe_log>
 804a9fd:	8b 44 24 0c          	mov    0xc(%esp),%eax
 804aa01:	8b 4c 24 08          	mov    0x8(%esp),%ecx
 804aa05:	8b 54 24 04          	mov    0x4(%esp),%edx
 804aa09:	8b 3c 24             	mov    (%esp),%edi
 804aa0c:	8d 64 24 10          	lea    0x10(%esp),%esp
 804aa10:	83 f8 44             	cmp    $0x44,%eax
 804aa13:	0f 84 e7 08 00 00    	je     804b300 <main+0x1da0>
 804aa19:	8d 76 00             	lea    0x0(%esi),%esi
 804aa1c:	8d 64 24 f0          	lea    -0x10(%esp),%esp
 804aa20:	89 3c 24             	mov    %edi,(%esp)
 804aa23:	89 54 24 04          	mov    %edx,0x4(%esp)
 804aa27:	89 4c 24 08          	mov    %ecx,0x8(%esp)
 804aa2b:	89 44 24 0c          	mov    %eax,0xc(%esp)
 804aa2f:	b9 53 11 00 00       	mov    $0x1153,%ecx
 804aa34:	e8 0f 9f 00 00       	call   8054948 <__afl_maybe_log>
 804aa39:	8b 44 24 0c          	mov    0xc(%esp),%eax
 804aa3d:	8b 4c 24 08          	mov    0x8(%esp),%ecx
 804aa41:	8b 54 24 04          	mov    0x4(%esp),%edx
 804aa45:	8b 3c 24             	mov    (%esp),%edi
 804aa48:	8d 64 24 10          	lea    0x10(%esp),%esp
 804aa4c:	83 f8 63             	cmp    $0x63,%eax
 804aa4f:	0f 85 07 fa ff ff    	jne    804a45c <main+0xefc>
 804aa55:	8d 76 00             	lea    0x0(%esi),%esi
 804aa58:	8d 64 24 f0          	lea    -0x10(%esp),%esp
 804aa5c:	89 3c 24             	mov    %edi,(%esp)
 804aa5f:	89 54 24 04          	mov    %edx,0x4(%esp)
 804aa63:	89 4c 24 08          	mov    %ecx,0x8(%esp)
 804aa67:	89 44 24 0c          	mov    %eax,0xc(%esp)
 804aa6b:	b9 2e 00 00 00       	mov    $0x2e,%ecx
 804aa70:	e8 d3 9e 00 00       	call   8054948 <__afl_maybe_log>
 804aa75:	8b 44 24 0c          	mov    0xc(%esp),%eax
 804aa79:	8b 4c 24 08          	mov    0x8(%esp),%ecx
 804aa7d:	8b 54 24 04          	mov    0x4(%esp),%edx
 804aa81:	8b 3c 24             	mov    (%esp),%edi
 804aa84:	8d 64 24 10          	lea    0x10(%esp),%esp

            skip_field_option_type = SFO_OBSOLETE;
            }
            break;
          case 'c':
            countmode = count_occurrences;
 804aa88:	c7 05 0c a3 06 08 00 	movl   $0x0,0x806a30c
 804aa8f:	00 00 00 
            output_option_used = 1;
 804aa92:	c6 45 b0 01          	movb   $0x1,-0x50(%ebp)
            break;
 804aa96:	e9 4d ec ff ff       	jmp    80496e8 <main+0x188>
 804aa9b:	90                   	nop
     avoid the need to specify a grouping method to --all-repeated.
     It was thought best to avoid deprecating those parameters though
     and keep --group separate to other options.  */
  
// COR Label 491
if((grouping != GM_NONE || output_option_used) != (grouping != GM_NONE && output_option_used))  {
 804aa9c:	8d 64 24 f0          	lea    -0x10(%esp),%esp
 804aaa0:	89 3c 24             	mov    %edi,(%esp)
 804aaa3:	89 54 24 04          	mov    %edx,0x4(%esp)
 804aaa7:	89 4c 24 08          	mov    %ecx,0x8(%esp)
 804aaab:	89 44 24 0c          	mov    %eax,0xc(%esp)
 804aaaf:	b9 7a 53 00 00       	mov    $0x537a,%ecx
 804aab4:	e8 8f 9e 00 00       	call   8054948 <__afl_maybe_log>
 804aab9:	8b 44 24 0c          	mov    0xc(%esp),%eax
 804aabd:	8b 4c 24 08          	mov    0x8(%esp),%ecx
 804aac1:	8b 54 24 04          	mov    0x4(%esp),%edx
 804aac5:	8b 3c 24             	mov    (%esp),%edi
 804aac8:	8d 64 24 10          	lea    0x10(%esp),%esp
 804aacc:	8b 35 00 a3 06 08    	mov    0x806a300,%esi
 804aad2:	85 f6                	test   %esi,%esi
 804aad4:	0f 85 62 09 00 00    	jne    804b43c <main+0x1edc>
 804aada:	66 90                	xchg   %ax,%ax
 804aadc:	8d 64 24 f0          	lea    -0x10(%esp),%esp
 804aae0:	89 3c 24             	mov    %edi,(%esp)
 804aae3:	89 54 24 04          	mov    %edx,0x4(%esp)
 804aae7:	89 4c 24 08          	mov    %ecx,0x8(%esp)
 804aaeb:	89 44 24 0c          	mov    %eax,0xc(%esp)
 804aaef:	b9 ea c4 00 00       	mov    $0xc4ea,%ecx
 804aaf4:	e8 4f 9e 00 00       	call   8054948 <__afl_maybe_log>
 804aaf9:	8b 44 24 0c          	mov    0xc(%esp),%eax
 804aafd:	8b 4c 24 08          	mov    0x8(%esp),%ecx
 804ab01:	8b 54 24 04          	mov    0x4(%esp),%edx
 804ab05:	8b 3c 24             	mov    (%esp),%edi
 804ab08:	8d 64 24 10          	lea    0x10(%esp),%esp
 804ab0c:	0f b6 55 b0          	movzbl -0x50(%ebp),%edx
 804ab10:	31 c9                	xor    %ecx,%ecx
 804ab12:	66 90                	xchg   %ax,%ax
 804ab14:	8d 64 24 f0          	lea    -0x10(%esp),%esp
 804ab18:	89 3c 24             	mov    %edi,(%esp)
 804ab1b:	89 54 24 04          	mov    %edx,0x4(%esp)
 804ab1f:	89 4c 24 08          	mov    %ecx,0x8(%esp)
 804ab23:	89 44 24 0c          	mov    %eax,0xc(%esp)
 804ab27:	b9 d0 65 00 00       	mov    $0x65d0,%ecx
 804ab2c:	e8 17 9e 00 00       	call   8054948 <__afl_maybe_log>
 804ab31:	8b 44 24 0c          	mov    0xc(%esp),%eax
 804ab35:	8b 4c 24 08          	mov    0x8(%esp),%ecx
 804ab39:	8b 54 24 04          	mov    0x4(%esp),%edx
 804ab3d:	8b 3c 24             	mov    (%esp),%edi
 804ab40:	8d 64 24 10          	lea    0x10(%esp),%esp
 804ab44:	39 d1                	cmp    %edx,%ecx
 804ab46:	0f 85 7c 62 00 00    	jne    8050dc8 <main+0x7868>
 804ab4c:	8d 64 24 f0          	lea    -0x10(%esp),%esp
 804ab50:	89 3c 24             	mov    %edi,(%esp)
 804ab53:	89 54 24 04          	mov    %edx,0x4(%esp)
 804ab57:	89 4c 24 08          	mov    %ecx,0x8(%esp)
 804ab5b:	89 44 24 0c          	mov    %eax,0xc(%esp)
 804ab5f:	b9 5c 62 00 00       	mov    $0x625c,%ecx
 804ab64:	e8 df 9d 00 00       	call   8054948 <__afl_maybe_log>
 804ab69:	8b 44 24 0c          	mov    0xc(%esp),%eax
 804ab6d:	8b 4c 24 08          	mov    0x8(%esp),%ecx
 804ab71:	8b 54 24 04          	mov    0x4(%esp),%edx
 804ab75:	8b 3c 24             	mov    (%esp),%edi
 804ab78:	8d 64 24 10          	lea    0x10(%esp),%esp
	report_label_coverage("COR", 491);
}

// ROR Label 492
if((grouping == GM_NONE) != (grouping != GM_NONE))  {
 804ab7c:	8d 64 24 f0          	lea    -0x10(%esp),%esp
 804ab80:	89 3c 24             	mov    %edi,(%esp)
 804ab83:	89 54 24 04          	mov    %edx,0x4(%esp)
 804ab87:	89 4c 24 08          	mov    %ecx,0x8(%esp)
 804ab8b:	89 44 24 0c          	mov    %eax,0xc(%esp)
 804ab8f:	b9 c1 f1 00 00       	mov    $0xf1c1,%ecx
 804ab94:	e8 af 9d 00 00       	call   8054948 <__afl_maybe_log>
 804ab99:	8b 44 24 0c          	mov    0xc(%esp),%eax
 804ab9d:	8b 4c 24 08          	mov    0x8(%esp),%ecx
 804aba1:	8b 54 24 04          	mov    0x4(%esp),%edx
 804aba5:	8b 3c 24             	mov    (%esp),%edi
 804aba8:	8d 64 24 10          	lea    0x10(%esp),%esp
 804abac:	85 f6                	test   %esi,%esi
	report_label_coverage("ROR", 492);
 804abae:	51                   	push   %ecx
 804abaf:	51                   	push   %ecx
 804abb0:	68 ec 01 00 00       	push   $0x1ec
 804abb5:	68 17 5b 06 08       	push   $0x8065b17
if((grouping != GM_NONE || output_option_used) != (grouping != GM_NONE && output_option_used))  {
	report_label_coverage("COR", 491);
}

// ROR Label 492
if((grouping == GM_NONE) != (grouping != GM_NONE))  {
 804abba:	0f 94 c0             	sete   %al
 804abbd:	0f 95 c3             	setne  %bl
 804abc0:	89 c7                	mov    %eax,%edi
	report_label_coverage("ROR", 492);
 804abc2:	e8 b9 64 00 00       	call   8051080 <report_label_coverage>
}

// MCC Label 493
if(grouping != GM_NONE && output_option_used ) {
 804abc7:	83 c4 10             	add    $0x10,%esp
 804abca:	84 db                	test   %bl,%bl
 804abcc:	0f 85 e0 09 00 00    	jne    804b5b2 <main+0x2052>
 804abd2:	66 90                	xchg   %ax,%ax
 804abd4:	8d 64 24 f0          	lea    -0x10(%esp),%esp
 804abd8:	89 3c 24             	mov    %edi,(%esp)
 804abdb:	89 54 24 04          	mov    %edx,0x4(%esp)
 804abdf:	89 4c 24 08          	mov    %ecx,0x8(%esp)
 804abe3:	89 44 24 0c          	mov    %eax,0xc(%esp)
 804abe7:	b9 24 75 00 00       	mov    $0x7524,%ecx
 804abec:	e8 57 9d 00 00       	call   8054948 <__afl_maybe_log>
 804abf1:	8b 44 24 0c          	mov    0xc(%esp),%eax
 804abf5:	8b 4c 24 08          	mov    0x8(%esp),%ecx
 804abf9:	8b 54 24 04          	mov    0x4(%esp),%edx
 804abfd:	8b 3c 24             	mov    (%esp),%edi
 804ac00:	8d 64 24 10          	lea    0x10(%esp),%esp
// MCC Label 494
if(grouping != GM_NONE && !(output_option_used) ) {
	report_label_coverage("MCC", 494);
}
// MCC Label 495
if(!(grouping != GM_NONE) && output_option_used ) {
 804ac04:	80 7d b0 00          	cmpb   $0x0,-0x50(%ebp)
 804ac08:	0f 85 27 2b 00 00    	jne    804d735 <main+0x41d5>
 804ac0e:	66 90                	xchg   %ax,%ax
 804ac10:	8d 64 24 f0          	lea    -0x10(%esp),%esp
 804ac14:	89 3c 24             	mov    %edi,(%esp)
 804ac17:	89 54 24 04          	mov    %edx,0x4(%esp)
 804ac1b:	89 4c 24 08          	mov    %ecx,0x8(%esp)
 804ac1f:	89 44 24 0c          	mov    %eax,0xc(%esp)
 804ac23:	b9 eb 97 00 00       	mov    $0x97eb,%ecx
 804ac28:	e8 1b 9d 00 00       	call   8054948 <__afl_maybe_log>
 804ac2d:	8b 44 24 0c          	mov    0xc(%esp),%eax
 804ac31:	8b 4c 24 08          	mov    0x8(%esp),%ecx
 804ac35:	8b 54 24 04          	mov    0x4(%esp),%edx
 804ac39:	8b 3c 24             	mov    (%esp),%edi
 804ac3c:	8d 64 24 10          	lea    0x10(%esp),%esp
	report_label_coverage("MCC", 495);
}
// MCC Label 496
if(!(grouping != GM_NONE) && !(output_option_used) ) {
	report_label_coverage("MCC", 496);
 804ac40:	50                   	push   %eax
 804ac41:	50                   	push   %eax
 804ac42:	68 f0 01 00 00       	push   $0x1f0
 804ac47:	68 1b 5b 06 08       	push   $0x8065b1b
 804ac4c:	e8 2f 64 00 00       	call   8051080 <report_label_coverage>
 804ac51:	83 c4 10             	add    $0x10,%esp
      usage (EXIT_FAILURE);
    }

  
// COR Label 497
if((grouping != GM_NONE || countmode != count_none) != (grouping != GM_NONE && countmode != count_none))  {
 804ac54:	8d 64 24 f0          	lea    -0x10(%esp),%esp
 804ac58:	89 3c 24             	mov    %edi,(%esp)
 804ac5b:	89 54 24 04          	mov    %edx,0x4(%esp)
 804ac5f:	89 4c 24 08          	mov    %ecx,0x8(%esp)
 804ac63:	89 44 24 0c          	mov    %eax,0xc(%esp)
 804ac67:	b9 50 76 00 00       	mov    $0x7650,%ecx
 804ac6c:	e8 d7 9c 00 00       	call   8054948 <__afl_maybe_log>
 804ac71:	8b 44 24 0c          	mov    0xc(%esp),%eax
 804ac75:	8b 4c 24 08          	mov    0x8(%esp),%ecx
 804ac79:	8b 54 24 04          	mov    0x4(%esp),%edx
 804ac7d:	8b 3c 24             	mov    (%esp),%edi
 804ac80:	8d 64 24 10          	lea    0x10(%esp),%esp
 804ac84:	83 3d 0c a3 06 08 01 	cmpl   $0x1,0x806a30c
 804ac8b:	0f 85 e3 09 00 00    	jne    804b674 <main+0x2114>
 804ac91:	8d 76 00             	lea    0x0(%esi),%esi
 804ac94:	8d 64 24 f0          	lea    -0x10(%esp),%esp
 804ac98:	89 3c 24             	mov    %edi,(%esp)
 804ac9b:	89 54 24 04          	mov    %edx,0x4(%esp)
 804ac9f:	89 4c 24 08          	mov    %ecx,0x8(%esp)
 804aca3:	89 44 24 0c          	mov    %eax,0xc(%esp)
 804aca7:	b9 60 48 00 00       	mov    $0x4860,%ecx
 804acac:	e8 97 9c 00 00       	call   8054948 <__afl_maybe_log>
 804acb1:	8b 44 24 0c          	mov    0xc(%esp),%eax
 804acb5:	8b 4c 24 08          	mov    0x8(%esp),%ecx
 804acb9:	8b 54 24 04          	mov    0x4(%esp),%edx
 804acbd:	8b 3c 24             	mov    (%esp),%edi
 804acc0:	8d 64 24 10          	lea    0x10(%esp),%esp
	report_label_coverage("COR", 497);
}

// ROR Label 498
if((grouping == GM_NONE) != (grouping != GM_NONE))  {
 804acc4:	8d 64 24 f0          	lea    -0x10(%esp),%esp
 804acc8:	89 3c 24             	mov    %edi,(%esp)
 804accb:	89 54 24 04          	mov    %edx,0x4(%esp)
 804accf:	89 4c 24 08          	mov    %ecx,0x8(%esp)
 804acd3:	89 44 24 0c          	mov    %eax,0xc(%esp)
 804acd7:	b9 e0 10 00 00       	mov    $0x10e0,%ecx
 804acdc:	e8 67 9c 00 00       	call   8054948 <__afl_maybe_log>
 804ace1:	8b 44 24 0c          	mov    0xc(%esp),%eax
 804ace5:	8b 4c 24 08          	mov    0x8(%esp),%ecx
 804ace9:	8b 54 24 04          	mov    0x4(%esp),%edx
 804aced:	8b 3c 24             	mov    (%esp),%edi
 804acf0:	8d 64 24 10          	lea    0x10(%esp),%esp
 804acf4:	89 f9                	mov    %edi,%ecx
 804acf6:	38 d9                	cmp    %bl,%cl
 804acf8:	74 46                	je     804ad40 <main+0x17e0>
 804acfa:	66 90                	xchg   %ax,%ax
 804acfc:	8d 64 24 f0          	lea    -0x10(%esp),%esp
 804ad00:	89 3c 24             	mov    %edi,(%esp)
 804ad03:	89 54 24 04          	mov    %edx,0x4(%esp)
 804ad07:	89 4c 24 08          	mov    %ecx,0x8(%esp)
 804ad0b:	89 44 24 0c          	mov    %eax,0xc(%esp)
 804ad0f:	b9 39 e9 00 00       	mov    $0xe939,%ecx
 804ad14:	e8 2f 9c 00 00       	call   8054948 <__afl_maybe_log>
 804ad19:	8b 44 24 0c          	mov    0xc(%esp),%eax
 804ad1d:	8b 4c 24 08          	mov    0x8(%esp),%ecx
 804ad21:	8b 54 24 04          	mov    0x4(%esp),%edx
 804ad25:	8b 3c 24             	mov    (%esp),%edi
 804ad28:	8d 64 24 10          	lea    0x10(%esp),%esp
	report_label_coverage("ROR", 498);
 804ad2c:	50                   	push   %eax
 804ad2d:	50                   	push   %eax
 804ad2e:	68 f2 01 00 00       	push   $0x1f2
 804ad33:	68 17 5b 06 08       	push   $0x8065b17
 804ad38:	e8 43 63 00 00       	call   8051080 <report_label_coverage>
 804ad3d:	83 c4 10             	add    $0x10,%esp
}
// ROR Label 499
if((countmode == count_none) != (countmode != count_none))  {
 804ad40:	8d 64 24 f0          	lea    -0x10(%esp),%esp
 804ad44:	89 3c 24             	mov    %edi,(%esp)
 804ad47:	89 54 24 04          	mov    %edx,0x4(%esp)
 804ad4b:	89 4c 24 08          	mov    %ecx,0x8(%esp)
 804ad4f:	89 44 24 0c          	mov    %eax,0xc(%esp)
 804ad53:	b9 ef ec 00 00       	mov    $0xecef,%ecx
 804ad58:	e8 eb 9b 00 00       	call   8054948 <__afl_maybe_log>
 804ad5d:	8b 44 24 0c          	mov    0xc(%esp),%eax
 804ad61:	8b 4c 24 08          	mov    0x8(%esp),%ecx
 804ad65:	8b 54 24 04          	mov    0x4(%esp),%edx
 804ad69:	8b 3c 24             	mov    (%esp),%edi
 804ad6c:	8d 64 24 10          	lea    0x10(%esp),%esp
 804ad70:	8b 35 0c a3 06 08    	mov    0x806a30c,%esi
 804ad76:	83 fe 01             	cmp    $0x1,%esi
 804ad79:	0f 94 c2             	sete   %dl
 804ad7c:	0f 95 c0             	setne  %al
 804ad7f:	38 c2                	cmp    %al,%dl
 804ad81:	89 d7                	mov    %edx,%edi
 804ad83:	74 4e                	je     804add3 <main+0x1873>
 804ad85:	8d 76 00             	lea    0x0(%esi),%esi
 804ad88:	8d 64 24 f0          	lea    -0x10(%esp),%esp
 804ad8c:	89 3c 24             	mov    %edi,(%esp)
 804ad8f:	89 54 24 04          	mov    %edx,0x4(%esp)
 804ad93:	89 4c 24 08          	mov    %ecx,0x8(%esp)
 804ad97:	89 44 24 0c          	mov    %eax,0xc(%esp)
 804ad9b:	b9 53 76 00 00       	mov    $0x7653,%ecx
 804ada0:	e8 a3 9b 00 00       	call   8054948 <__afl_maybe_log>
 804ada5:	8b 44 24 0c          	mov    0xc(%esp),%eax
 804ada9:	8b 4c 24 08          	mov    0x8(%esp),%ecx
 804adad:	8b 54 24 04          	mov    0x4(%esp),%edx
 804adb1:	8b 3c 24             	mov    (%esp),%edi
 804adb4:	8d 64 24 10          	lea    0x10(%esp),%esp
 804adb8:	88 45 c4             	mov    %al,-0x3c(%ebp)
	report_label_coverage("ROR", 499);
 804adbb:	50                   	push   %eax
 804adbc:	50                   	push   %eax
 804adbd:	68 f3 01 00 00       	push   $0x1f3
 804adc2:	68 17 5b 06 08       	push   $0x8065b17
 804adc7:	e8 b4 62 00 00       	call   8051080 <report_label_coverage>
 804adcc:	0f b6 45 c4          	movzbl -0x3c(%ebp),%eax
 804add0:	83 c4 10             	add    $0x10,%esp
 804add3:	90                   	nop
}

// MCC Label 500
if(grouping != GM_NONE && countmode != count_none ) {
 804add4:	8d 64 24 f0          	lea    -0x10(%esp),%esp
 804add8:	89 3c 24             	mov    %edi,(%esp)
 804addb:	89 54 24 04          	mov    %edx,0x4(%esp)
 804addf:	89 4c 24 08          	mov    %ecx,0x8(%esp)
 804ade3:	89 44 24 0c          	mov    %eax,0xc(%esp)
 804ade7:	b9 59 bb 00 00       	mov    $0xbb59,%ecx
 804adec:	e8 57 9b 00 00       	call   8054948 <__afl_maybe_log>
 804adf1:	8b 44 24 0c          	mov    0xc(%esp),%eax
 804adf5:	8b 4c 24 08          	mov    0x8(%esp),%ecx
 804adf9:	8b 54 24 04          	mov    0x4(%esp),%edx
 804adfd:	8b 3c 24             	mov    (%esp),%edi
 804ae00:	8d 64 24 10          	lea    0x10(%esp),%esp
 804ae04:	84 db                	test   %bl,%bl
 804ae06:	0f 84 b1 08 00 00    	je     804b6bd <main+0x215d>
 804ae0c:	8d 64 24 f0          	lea    -0x10(%esp),%esp
 804ae10:	89 3c 24             	mov    %edi,(%esp)
 804ae13:	89 54 24 04          	mov    %edx,0x4(%esp)
 804ae17:	89 4c 24 08          	mov    %ecx,0x8(%esp)
 804ae1b:	89 44 24 0c          	mov    %eax,0xc(%esp)
 804ae1f:	b9 f1 39 00 00       	mov    $0x39f1,%ecx
 804ae24:	e8 1f 9b 00 00       	call   8054948 <__afl_maybe_log>
 804ae29:	8b 44 24 0c          	mov    0xc(%esp),%eax
 804ae2d:	8b 4c 24 08          	mov    0x8(%esp),%ecx
 804ae31:	8b 54 24 04          	mov    0x4(%esp),%edx
 804ae35:	8b 3c 24             	mov    (%esp),%edi
 804ae38:	8d 64 24 10          	lea    0x10(%esp),%esp
 804ae3c:	84 c0                	test   %al,%al
 804ae3e:	0f 84 7c 27 00 00    	je     804d5c0 <main+0x4060>
 804ae44:	8d 64 24 f0          	lea    -0x10(%esp),%esp
 804ae48:	89 3c 24             	mov    %edi,(%esp)
 804ae4b:	89 54 24 04          	mov    %edx,0x4(%esp)
 804ae4f:	89 4c 24 08          	mov    %ecx,0x8(%esp)
 804ae53:	89 44 24 0c          	mov    %eax,0xc(%esp)
 804ae57:	b9 43 09 00 00       	mov    $0x943,%ecx
 804ae5c:	e8 e7 9a 00 00       	call   8054948 <__afl_maybe_log>
 804ae61:	8b 44 24 0c          	mov    0xc(%esp),%eax
 804ae65:	8b 4c 24 08          	mov    0x8(%esp),%ecx
 804ae69:	8b 54 24 04          	mov    0x4(%esp),%edx
 804ae6d:	8b 3c 24             	mov    (%esp),%edi
 804ae70:	8d 64 24 10          	lea    0x10(%esp),%esp
	report_label_coverage("MCC", 500);
 804ae74:	50                   	push   %eax
 804ae75:	50                   	push   %eax
 804ae76:	68 f4 01 00 00       	push   $0x1f4
 804ae7b:	68 1b 5b 06 08       	push   $0x8065b1b
 804ae80:	e8 fb 61 00 00       	call   8051080 <report_label_coverage>
}
// MCC Label 501
if(grouping != GM_NONE && !(countmode != count_none) ) {
 804ae85:	89 f9                	mov    %edi,%ecx
 804ae87:	83 c4 10             	add    $0x10,%esp
 804ae8a:	84 c9                	test   %cl,%cl
 804ae8c:	0f 85 ed 57 00 00    	jne    805067f <main+0x711f>
 804ae92:	66 90                	xchg   %ax,%ax
 804ae94:	8d 64 24 f0          	lea    -0x10(%esp),%esp
 804ae98:	89 3c 24             	mov    %edi,(%esp)
 804ae9b:	89 54 24 04          	mov    %edx,0x4(%esp)
 804ae9f:	89 4c 24 08          	mov    %ecx,0x8(%esp)
 804aea3:	89 44 24 0c          	mov    %eax,0xc(%esp)
 804aea7:	b9 7e 29 00 00       	mov    $0x297e,%ecx
 804aeac:	e8 97 9a 00 00       	call   8054948 <__afl_maybe_log>
 804aeb1:	8b 44 24 0c          	mov    0xc(%esp),%eax
 804aeb5:	8b 4c 24 08          	mov    0x8(%esp),%ecx
 804aeb9:	8b 54 24 04          	mov    0x4(%esp),%edx
 804aebd:	8b 3c 24             	mov    (%esp),%edi
 804aec0:	8d 64 24 10          	lea    0x10(%esp),%esp
	report_label_coverage("MCC", 503);
}
if (grouping != GM_NONE && countmode != count_none)
    {
      error (0, 0,
           _("grouping and printing repeat counts is meaningless"));
 804aec4:	8d 64 24 f0          	lea    -0x10(%esp),%esp
 804aec8:	89 3c 24             	mov    %edi,(%esp)
 804aecb:	89 54 24 04          	mov    %edx,0x4(%esp)
 804aecf:	89 4c 24 08          	mov    %ecx,0x8(%esp)
 804aed3:	89 44 24 0c          	mov    %eax,0xc(%esp)
 804aed7:	b9 35 83 00 00       	mov    $0x8335,%ecx
 804aedc:	e8 67 9a 00 00       	call   8054948 <__afl_maybe_log>
 804aee1:	8b 44 24 0c          	mov    0xc(%esp),%eax
 804aee5:	8b 4c 24 08          	mov    0x8(%esp),%ecx
 804aee9:	8b 54 24 04          	mov    0x4(%esp),%edx
 804aeed:	8b 3c 24             	mov    (%esp),%edi
 804aef0:	8d 64 24 10          	lea    0x10(%esp),%esp
 804aef4:	56                   	push   %esi
 804aef5:	6a 05                	push   $0x5
 804aef7:	68 b4 64 06 08       	push   $0x80664b4
	report_label_coverage("MCC", 509);
}
if (countmode == count_occurrences && output_later_repeated)
    {
      error (0, 0,
           _("printing all duplicated lines and repeat counts is meaningless"));
 804aefc:	8d 64 24 f0          	lea    -0x10(%esp),%esp
 804af00:	89 3c 24             	mov    %edi,(%esp)
 804af03:	89 54 24 04          	mov    %edx,0x4(%esp)
 804af07:	89 4c 24 08          	mov    %ecx,0x8(%esp)
 804af0b:	89 44 24 0c          	mov    %eax,0xc(%esp)
 804af0f:	b9 8e 8f 00 00       	mov    $0x8f8e,%ecx
 804af14:	e8 2f 9a 00 00       	call   8054948 <__afl_maybe_log>
 804af19:	8b 44 24 0c          	mov    0xc(%esp),%eax
 804af1d:	8b 4c 24 08          	mov    0x8(%esp),%ecx
 804af21:	8b 54 24 04          	mov    0x4(%esp),%edx
 804af25:	8b 3c 24             	mov    (%esp),%edi
 804af28:	8d 64 24 10          	lea    0x10(%esp),%esp
 804af2c:	6a 00                	push   $0x0
 804af2e:	e8 dd e2 ff ff       	call   8049210 <dcgettext@plt>
if(!(countmode == count_occurrences) && !(output_later_repeated) ) {
	report_label_coverage("MCC", 509);
}
if (countmode == count_occurrences && output_later_repeated)
    {
      error (0, 0,
 804af33:	83 c4 0c             	add    $0xc,%esp
 804af36:	50                   	push   %eax
 804af37:	6a 00                	push   $0x0
 804af39:	6a 00                	push   $0x0
 804af3b:	e8 80 e3 ff ff       	call   80492c0 <error@plt>
           _("printing all duplicated lines and repeat counts is meaningless"));
      usage (EXIT_FAILURE);
 804af40:	c7 04 24 01 00 00 00 	movl   $0x1,(%esp)
 804af47:	e8 24 90 00 00       	call   8053f70 <usage>
            break;
          case 'z':
            delimiter = '\x00';
            break;
          case GETOPT_HELP_CHAR:
            usage(0);
 804af4c:	8d 64 24 f0          	lea    -0x10(%esp),%esp
 804af50:	89 3c 24             	mov    %edi,(%esp)
 804af53:	89 54 24 04          	mov    %edx,0x4(%esp)
 804af57:	89 4c 24 08          	mov    %ecx,0x8(%esp)
 804af5b:	89 44 24 0c          	mov    %eax,0xc(%esp)
 804af5f:	b9 e8 18 00 00       	mov    $0x18e8,%ecx
 804af64:	e8 df 99 00 00       	call   8054948 <__afl_maybe_log>
 804af69:	8b 44 24 0c          	mov    0xc(%esp),%eax
 804af6d:	8b 4c 24 08          	mov    0x8(%esp),%ecx
 804af71:	8b 54 24 04          	mov    0x4(%esp),%edx
 804af75:	8b 3c 24             	mov    (%esp),%edi
 804af78:	8d 64 24 10          	lea    0x10(%esp),%esp
 804af7c:	83 ec 0c             	sub    $0xc,%esp
 804af7f:	6a 00                	push   $0x0
 804af81:	e8 ea 8f 00 00       	call   8053f70 <usage>
 804af86:	66 90                	xchg   %ax,%ax
          case '8':
          case '9':
            {
                
// ROR Label 486
if((skip_field_option_type != SFO_NEW) != (skip_field_option_type == SFO_NEW))  {
 804af88:	8d 64 24 f0          	lea    -0x10(%esp),%esp
 804af8c:	89 3c 24             	mov    %edi,(%esp)
 804af8f:	89 54 24 04          	mov    %edx,0x4(%esp)
 804af93:	89 4c 24 08          	mov    %ecx,0x8(%esp)
 804af97:	89 44 24 0c          	mov    %eax,0xc(%esp)
 804af9b:	b9 42 10 00 00       	mov    $0x1042,%ecx
 804afa0:	e8 a3 99 00 00       	call   8054948 <__afl_maybe_log>
 804afa5:	8b 44 24 0c          	mov    0xc(%esp),%eax
 804afa9:	8b 4c 24 08          	mov    0x8(%esp),%ecx
 804afad:	8b 54 24 04          	mov    0x4(%esp),%edx
 804afb1:	8b 3c 24             	mov    (%esp),%edi
 804afb4:	8d 64 24 10          	lea    0x10(%esp),%esp
 804afb8:	8b 4d ac             	mov    -0x54(%ebp),%ecx
 804afbb:	83 f9 02             	cmp    $0x2,%ecx
 804afbe:	0f 94 c1             	sete   %cl
 804afc1:	0f 95 c2             	setne  %dl
 804afc4:	38 ca                	cmp    %cl,%dl
 804afc6:	74 4b                	je     804b013 <main+0x1ab3>
 804afc8:	8d 64 24 f0          	lea    -0x10(%esp),%esp
 804afcc:	89 3c 24             	mov    %edi,(%esp)
 804afcf:	89 54 24 04          	mov    %edx,0x4(%esp)
 804afd3:	89 4c 24 08          	mov    %ecx,0x8(%esp)
 804afd7:	89 44 24 0c          	mov    %eax,0xc(%esp)
 804afdb:	b9 76 4a 00 00       	mov    $0x4a76,%ecx
 804afe0:	e8 63 99 00 00       	call   8054948 <__afl_maybe_log>
 804afe5:	8b 44 24 0c          	mov    0xc(%esp),%eax
 804afe9:	8b 4c 24 08          	mov    0x8(%esp),%ecx
 804afed:	8b 54 24 04          	mov    0x4(%esp),%edx
 804aff1:	8b 3c 24             	mov    (%esp),%edi
 804aff4:	8d 64 24 10          	lea    0x10(%esp),%esp
	report_label_coverage("ROR", 486);
 804aff8:	50                   	push   %eax
 804aff9:	50                   	push   %eax
 804affa:	68 e6 01 00 00       	push   $0x1e6
 804afff:	68 17 5b 06 08       	push   $0x8065b17
 804b004:	88 4d c4             	mov    %cl,-0x3c(%ebp)
 804b007:	e8 74 60 00 00       	call   8051080 <report_label_coverage>
 804b00c:	0f b6 4d c4          	movzbl -0x3c(%ebp),%ecx
 804b010:	83 c4 10             	add    $0x10,%esp
 804b013:	90                   	nop
}
if (skip_field_option_type == SFO_NEW)
 804b014:	8d 64 24 f0          	lea    -0x10(%esp),%esp
 804b018:	89 3c 24             	mov    %edi,(%esp)
 804b01b:	89 54 24 04          	mov    %edx,0x4(%esp)
 804b01f:	89 4c 24 08          	mov    %ecx,0x8(%esp)
 804b023:	89 44 24 0c          	mov    %eax,0xc(%esp)
 804b027:	b9 0f a8 00 00       	mov    $0xa80f,%ecx
 804b02c:	e8 17 99 00 00       	call   8054948 <__afl_maybe_log>
 804b031:	8b 44 24 0c          	mov    0xc(%esp),%eax
 804b035:	8b 4c 24 08          	mov    0x8(%esp),%ecx
 804b039:	8b 54 24 04          	mov    0x4(%esp),%edx
 804b03d:	8b 3c 24             	mov    (%esp),%edi
 804b040:	8d 64 24 10          	lea    0x10(%esp),%esp
 804b044:	84 c9                	test   %cl,%cl
 804b046:	8d 56 d0             	lea    -0x30(%esi),%edx
 804b049:	0f 85 21 05 00 00    	jne    804b570 <main+0x2010>
 804b04f:	90                   	nop
 804b050:	8d 64 24 f0          	lea    -0x10(%esp),%esp
 804b054:	89 3c 24             	mov    %edi,(%esp)
 804b057:	89 54 24 04          	mov    %edx,0x4(%esp)
 804b05b:	89 4c 24 08          	mov    %ecx,0x8(%esp)
 804b05f:	89 44 24 0c          	mov    %eax,0xc(%esp)
 804b063:	b9 49 7c 00 00       	mov    $0x7c49,%ecx
 804b068:	e8 db 98 00 00       	call   8054948 <__afl_maybe_log>
 804b06d:	8b 44 24 0c          	mov    0xc(%esp),%eax
 804b071:	8b 4c 24 08          	mov    0x8(%esp),%ecx
 804b075:	8b 54 24 04          	mov    0x4(%esp),%edx
 804b079:	8b 3c 24             	mov    (%esp),%edi
 804b07c:	8d 64 24 10          	lea    0x10(%esp),%esp
              skip_fields = 0;

            if (!DECIMAL_DIGIT_ACCUMULATE (skip_fields, optc - '0', size_t))
 804b080:	a1 18 a3 06 08       	mov    0x806a318,%eax
 804b085:	3d 99 99 99 19       	cmp    $0x19999999,%eax
 804b08a:	0f 86 6f 04 00 00    	jbe    804b4ff <main+0x1f9f>
 804b090:	8d 64 24 f0          	lea    -0x10(%esp),%esp
 804b094:	89 3c 24             	mov    %edi,(%esp)
 804b097:	89 54 24 04          	mov    %edx,0x4(%esp)
 804b09b:	89 4c 24 08          	mov    %ecx,0x8(%esp)
 804b09f:	89 44 24 0c          	mov    %eax,0xc(%esp)
 804b0a3:	b9 5b 09 00 00       	mov    $0x95b,%ecx
 804b0a8:	e8 9b 98 00 00       	call   8054948 <__afl_maybe_log>
 804b0ad:	8b 44 24 0c          	mov    0xc(%esp),%eax
 804b0b1:	8b 4c 24 08          	mov    0x8(%esp),%ecx
 804b0b5:	8b 54 24 04          	mov    0x4(%esp),%edx
 804b0b9:	8b 3c 24             	mov    (%esp),%edi
 804b0bc:	8d 64 24 10          	lea    0x10(%esp),%esp
              skip_fields = SIZE_MAX;
 804b0c0:	8d 64 24 f0          	lea    -0x10(%esp),%esp
 804b0c4:	89 3c 24             	mov    %edi,(%esp)
 804b0c7:	89 54 24 04          	mov    %edx,0x4(%esp)
 804b0cb:	89 4c 24 08          	mov    %ecx,0x8(%esp)
 804b0cf:	89 44 24 0c          	mov    %eax,0xc(%esp)
 804b0d3:	b9 65 23 00 00       	mov    $0x2365,%ecx
 804b0d8:	e8 6b 98 00 00       	call   8054948 <__afl_maybe_log>
 804b0dd:	8b 44 24 0c          	mov    0xc(%esp),%eax
 804b0e1:	8b 4c 24 08          	mov    0x8(%esp),%ecx
 804b0e5:	8b 54 24 04          	mov    0x4(%esp),%edx
 804b0e9:	8b 3c 24             	mov    (%esp),%edi
 804b0ec:	8d 64 24 10          	lea    0x10(%esp),%esp
 804b0f0:	c7 05 18 a3 06 08 ff 	movl   $0xffffffff,0x806a318
 804b0f7:	ff ff ff 

            skip_field_option_type = SFO_OBSOLETE;
 804b0fa:	c7 45 ac 01 00 00 00 	movl   $0x1,-0x54(%ebp)
 804b101:	e9 73 e5 ff ff       	jmp    8049679 <main+0x119>
 804b106:	66 90                	xchg   %ax,%ax
            break;
          case 'i':
            ignore_case = 1;
            break;
          case 's':
            skip_chars = size_opt(optarg, "invalid number of bytes to skip");
 804b108:	8d 64 24 f0          	lea    -0x10(%esp),%esp
 804b10c:	89 3c 24             	mov    %edi,(%esp)
 804b10f:	89 54 24 04          	mov    %edx,0x4(%esp)
 804b113:	89 4c 24 08          	mov    %ecx,0x8(%esp)
 804b117:	89 44 24 0c          	mov    %eax,0xc(%esp)
 804b11b:	b9 b6 21 00 00       	mov    $0x21b6,%ecx
 804b120:	e8 23 98 00 00       	call   8054948 <__afl_maybe_log>
 804b125:	8b 44 24 0c          	mov    0xc(%esp),%eax
 804b129:	8b 4c 24 08          	mov    0x8(%esp),%ecx
 804b12d:	8b 54 24 04          	mov    0x4(%esp),%edx
 804b131:	8b 3c 24             	mov    (%esp),%edi
 804b134:	8d 64 24 10          	lea    0x10(%esp),%esp
 804b138:	a1 e0 a2 06 08       	mov    0x806a2e0,%eax
 804b13d:	ba 40 64 06 08       	mov    $0x8066440,%edx
 804b142:	e8 49 5e 00 00       	call   8050f90 <size_opt>
 804b147:	a3 14 a3 06 08       	mov    %eax,0x806a314
            break;
 804b14c:	e9 97 e5 ff ff       	jmp    80496e8 <main+0x188>
 804b151:	8d 76 00             	lea    0x0(%esi),%esi
if(optarg < 0)  {
	report_label_coverage("ABS", 489);
}

// ROR Label 490
if((optarg != ((void *)0)) != (optarg == ((void *)0)))  {
 804b154:	8d 64 24 f0          	lea    -0x10(%esp),%esp
 804b158:	89 3c 24             	mov    %edi,(%esp)
 804b15b:	89 54 24 04          	mov    %edx,0x4(%esp)
 804b15f:	89 4c 24 08          	mov    %ecx,0x8(%esp)
 804b163:	89 44 24 0c          	mov    %eax,0xc(%esp)
 804b167:	b9 0d 7d 00 00       	mov    $0x7d0d,%ecx
 804b16c:	e8 d7 97 00 00       	call   8054948 <__afl_maybe_log>
 804b171:	8b 44 24 0c          	mov    0xc(%esp),%eax
 804b175:	8b 4c 24 08          	mov    0x8(%esp),%ecx
 804b179:	8b 54 24 04          	mov    0x4(%esp),%edx
 804b17d:	8b 3c 24             	mov    (%esp),%edi
 804b180:	8d 64 24 10          	lea    0x10(%esp),%esp
 804b184:	a1 e0 a2 06 08       	mov    0x806a2e0,%eax
 804b189:	85 c0                	test   %eax,%eax
 804b18b:	0f 95 c1             	setne  %cl
 804b18e:	0f 94 c2             	sete   %dl
 804b191:	38 d1                	cmp    %dl,%cl
 804b193:	74 4c                	je     804b1e1 <main+0x1c81>
 804b195:	8d 76 00             	lea    0x0(%esi),%esi
 804b198:	8d 64 24 f0          	lea    -0x10(%esp),%esp
 804b19c:	89 3c 24             	mov    %edi,(%esp)
 804b19f:	89 54 24 04          	mov    %edx,0x4(%esp)
 804b1a3:	89 4c 24 08          	mov    %ecx,0x8(%esp)
 804b1a7:	89 44 24 0c          	mov    %eax,0xc(%esp)
 804b1ab:	b9 09 11 00 00       	mov    $0x1109,%ecx
 804b1b0:	e8 93 97 00 00       	call   8054948 <__afl_maybe_log>
 804b1b5:	8b 44 24 0c          	mov    0xc(%esp),%eax
 804b1b9:	8b 4c 24 08          	mov    0x8(%esp),%ecx
 804b1bd:	8b 54 24 04          	mov    0x4(%esp),%edx
 804b1c1:	8b 3c 24             	mov    (%esp),%edi
 804b1c4:	8d 64 24 10          	lea    0x10(%esp),%esp
	report_label_coverage("ROR", 490);
 804b1c8:	51                   	push   %ecx
 804b1c9:	51                   	push   %ecx
 804b1ca:	68 ea 01 00 00       	push   $0x1ea
 804b1cf:	68 17 5b 06 08       	push   $0x8065b17
 804b1d4:	e8 a7 5e 00 00       	call   8051080 <report_label_coverage>
 804b1d9:	a1 e0 a2 06 08       	mov    0x806a2e0,%eax
 804b1de:	83 c4 10             	add    $0x10,%esp
 804b1e1:	8d 76 00             	lea    0x0(%esi),%esi
}
if (optarg == ((void *)0))
 804b1e4:	8d 64 24 f0          	lea    -0x10(%esp),%esp
 804b1e8:	89 3c 24             	mov    %edi,(%esp)
 804b1eb:	89 54 24 04          	mov    %edx,0x4(%esp)
 804b1ef:	89 4c 24 08          	mov    %ecx,0x8(%esp)
 804b1f3:	89 44 24 0c          	mov    %eax,0xc(%esp)
 804b1f7:	b9 b0 1f 00 00       	mov    $0x1fb0,%ecx
 804b1fc:	e8 47 97 00 00       	call   8054948 <__afl_maybe_log>
 804b201:	8b 44 24 0c          	mov    0xc(%esp),%eax
 804b205:	8b 4c 24 08          	mov    0x8(%esp),%ecx
 804b209:	8b 54 24 04          	mov    0x4(%esp),%edx
 804b20d:	8b 3c 24             	mov    (%esp),%edi
 804b210:	8d 64 24 10          	lea    0x10(%esp),%esp
 804b214:	85 c0                	test   %eax,%eax
 804b216:	0f 84 5e 02 00 00    	je     804b47a <main+0x1f1a>
 804b21c:	8d 64 24 f0          	lea    -0x10(%esp),%esp
 804b220:	89 3c 24             	mov    %edi,(%esp)
 804b223:	89 54 24 04          	mov    %edx,0x4(%esp)
 804b227:	89 4c 24 08          	mov    %ecx,0x8(%esp)
 804b22b:	89 44 24 0c          	mov    %eax,0xc(%esp)
 804b22f:	b9 ed f3 00 00       	mov    $0xf3ed,%ecx
 804b234:	e8 0f 97 00 00       	call   8054948 <__afl_maybe_log>
 804b239:	8b 44 24 0c          	mov    0xc(%esp),%eax
 804b23d:	8b 4c 24 08          	mov    0x8(%esp),%ecx
 804b241:	8b 54 24 04          	mov    0x4(%esp),%edx
 804b245:	8b 3c 24             	mov    (%esp),%edi
 804b248:	8d 64 24 10          	lea    0x10(%esp),%esp
                grouping = GM_SEPARATE;
            else
                grouping = ((grouping_method_map)[__xargmatch_internal("--group", optarg, grouping_method_string, (const char *)(grouping_method_map), sizeof *(grouping_method_map), argmatch_die)]);
 804b24c:	52                   	push   %edx
 804b24d:	52                   	push   %edx
 804b24e:	ff 35 4c a2 06 08    	pushl  0x806a24c
 804b254:	6a 04                	push   $0x4
 804b256:	68 10 66 06 08       	push   $0x8066610
 804b25b:	68 20 66 06 08       	push   $0x8066620
 804b260:	50                   	push   %eax
 804b261:	68 17 5c 06 08       	push   $0x8065c17
 804b266:	e8 25 a0 00 00       	call   8055290 <__xargmatch_internal>
 804b26b:	8b 0c 85 10 66 06 08 	mov    0x8066610(,%eax,4),%ecx
 804b272:	83 c4 20             	add    $0x20,%esp
 804b275:	89 0d 00 a3 06 08    	mov    %ecx,0x806a300
 804b27b:	e9 68 e4 ff ff       	jmp    80496e8 <main+0x188>
            break;
          case 's':
            skip_chars = size_opt(optarg, "invalid number of bytes to skip");
            break;
          case 'u':
            output_first_repeated = 0;
 804b280:	8d 64 24 f0          	lea    -0x10(%esp),%esp
 804b284:	89 3c 24             	mov    %edi,(%esp)
 804b287:	89 54 24 04          	mov    %edx,0x4(%esp)
 804b28b:	89 4c 24 08          	mov    %ecx,0x8(%esp)
 804b28f:	89 44 24 0c          	mov    %eax,0xc(%esp)
 804b293:	b9 66 d8 00 00       	mov    $0xd866,%ecx
 804b298:	e8 ab 96 00 00       	call   8054948 <__afl_maybe_log>
 804b29d:	8b 44 24 0c          	mov    0xc(%esp),%eax
 804b2a1:	8b 4c 24 08          	mov    0x8(%esp),%ecx
 804b2a5:	8b 54 24 04          	mov    0x4(%esp),%edx
 804b2a9:	8b 3c 24             	mov    (%esp),%edi
 804b2ac:	8d 64 24 10          	lea    0x10(%esp),%esp
 804b2b0:	c6 05 0a a3 06 08 00 	movb   $0x0,0x806a30a
            output_option_used = 1;
 804b2b7:	c6 45 b0 01          	movb   $0x1,-0x50(%ebp)
            break;
 804b2bb:	e9 28 e4 ff ff       	jmp    80496e8 <main+0x188>
          case 'c':
            countmode = count_occurrences;
            output_option_used = 1;
            break;
          case 'd':
            output_unique = 0;
 804b2c0:	8d 64 24 f0          	lea    -0x10(%esp),%esp
 804b2c4:	89 3c 24             	mov    %edi,(%esp)
 804b2c7:	89 54 24 04          	mov    %edx,0x4(%esp)
 804b2cb:	89 4c 24 08          	mov    %ecx,0x8(%esp)
 804b2cf:	89 44 24 0c          	mov    %eax,0xc(%esp)
 804b2d3:	b9 21 f7 00 00       	mov    $0xf721,%ecx
 804b2d8:	e8 6b 96 00 00       	call   8054948 <__afl_maybe_log>
 804b2dd:	8b 44 24 0c          	mov    0xc(%esp),%eax
 804b2e1:	8b 4c 24 08          	mov    0x8(%esp),%ecx
 804b2e5:	8b 54 24 04          	mov    0x4(%esp),%edx
 804b2e9:	8b 3c 24             	mov    (%esp),%edi
 804b2ec:	8d 64 24 10          	lea    0x10(%esp),%esp
 804b2f0:	c6 05 0b a3 06 08 00 	movb   $0x0,0x806a30b
            output_option_used = 1;
 804b2f7:	c6 45 b0 01          	movb   $0x1,-0x50(%ebp)
            break;
 804b2fb:	e9 e8 e3 ff ff       	jmp    80496e8 <main+0x188>
if(optarg < 0)  {
	report_label_coverage("ABS", 487);
}

// ROR Label 488
if((optarg != ((void *)0)) != (optarg == ((void *)0)))  {
 804b300:	8d 64 24 f0          	lea    -0x10(%esp),%esp
 804b304:	89 3c 24             	mov    %edi,(%esp)
 804b307:	89 54 24 04          	mov    %edx,0x4(%esp)
 804b30b:	89 4c 24 08          	mov    %ecx,0x8(%esp)
 804b30f:	89 44 24 0c          	mov    %eax,0xc(%esp)
 804b313:	b9 bb ac 00 00       	mov    $0xacbb,%ecx
 804b318:	e8 2b 96 00 00       	call   8054948 <__afl_maybe_log>
 804b31d:	8b 44 24 0c          	mov    0xc(%esp),%eax
 804b321:	8b 4c 24 08          	mov    0x8(%esp),%ecx
 804b325:	8b 54 24 04          	mov    0x4(%esp),%edx
 804b329:	8b 3c 24             	mov    (%esp),%edi
 804b32c:	8d 64 24 10          	lea    0x10(%esp),%esp
 804b330:	a1 e0 a2 06 08       	mov    0x806a2e0,%eax
          case 'd':
            output_unique = 0;
            output_option_used = 1;
            break;
          case 'D':
            output_unique = 0;
 804b335:	c6 05 0b a3 06 08 00 	movb   $0x0,0x806a30b
            output_later_repeated = 1;
 804b33c:	c6 05 09 a3 06 08 01 	movb   $0x1,0x806a309
if(optarg < 0)  {
	report_label_coverage("ABS", 487);
}

// ROR Label 488
if((optarg != ((void *)0)) != (optarg == ((void *)0)))  {
 804b343:	85 c0                	test   %eax,%eax
 804b345:	0f 95 c1             	setne  %cl
 804b348:	0f 94 c2             	sete   %dl
 804b34b:	38 d1                	cmp    %dl,%cl
 804b34d:	74 4a                	je     804b399 <main+0x1e39>
 804b34f:	90                   	nop
 804b350:	8d 64 24 f0          	lea    -0x10(%esp),%esp
 804b354:	89 3c 24             	mov    %edi,(%esp)
 804b357:	89 54 24 04          	mov    %edx,0x4(%esp)
 804b35b:	89 4c 24 08          	mov    %ecx,0x8(%esp)
 804b35f:	89 44 24 0c          	mov    %eax,0xc(%esp)
 804b363:	b9 2c 41 00 00       	mov    $0x412c,%ecx
 804b368:	e8 db 95 00 00       	call   8054948 <__afl_maybe_log>
 804b36d:	8b 44 24 0c          	mov    0xc(%esp),%eax
 804b371:	8b 4c 24 08          	mov    0x8(%esp),%ecx
 804b375:	8b 54 24 04          	mov    0x4(%esp),%edx
 804b379:	8b 3c 24             	mov    (%esp),%edi
 804b37c:	8d 64 24 10          	lea    0x10(%esp),%esp
	report_label_coverage("ROR", 488);
 804b380:	51                   	push   %ecx
 804b381:	51                   	push   %ecx
 804b382:	68 e8 01 00 00       	push   $0x1e8
 804b387:	68 17 5b 06 08       	push   $0x8065b17
 804b38c:	e8 ef 5c 00 00       	call   8051080 <report_label_coverage>
 804b391:	a1 e0 a2 06 08       	mov    0x806a2e0,%eax
 804b396:	83 c4 10             	add    $0x10,%esp
 804b399:	8d 76 00             	lea    0x0(%esi),%esi
}
if (optarg == ((void *)0))
 804b39c:	8d 64 24 f0          	lea    -0x10(%esp),%esp
 804b3a0:	89 3c 24             	mov    %edi,(%esp)
 804b3a3:	89 54 24 04          	mov    %edx,0x4(%esp)
 804b3a7:	89 4c 24 08          	mov    %ecx,0x8(%esp)
 804b3ab:	89 44 24 0c          	mov    %eax,0xc(%esp)
 804b3af:	b9 ff 07 00 00       	mov    $0x7ff,%ecx
 804b3b4:	e8 8f 95 00 00       	call   8054948 <__afl_maybe_log>
 804b3b9:	8b 44 24 0c          	mov    0xc(%esp),%eax
 804b3bd:	8b 4c 24 08          	mov    0x8(%esp),%ecx
 804b3c1:	8b 54 24 04          	mov    0x4(%esp),%edx
 804b3c5:	8b 3c 24             	mov    (%esp),%edi
 804b3c8:	8d 64 24 10          	lea    0x10(%esp),%esp
 804b3cc:	85 c0                	test   %eax,%eax
 804b3ce:	0f 84 e7 00 00 00    	je     804b4bb <main+0x1f5b>
 804b3d4:	8d 64 24 f0          	lea    -0x10(%esp),%esp
 804b3d8:	89 3c 24             	mov    %edi,(%esp)
 804b3db:	89 54 24 04          	mov    %edx,0x4(%esp)
 804b3df:	89 4c 24 08          	mov    %ecx,0x8(%esp)
 804b3e3:	89 44 24 0c          	mov    %eax,0xc(%esp)
 804b3e7:	b9 af 53 00 00       	mov    $0x53af,%ecx
 804b3ec:	e8 57 95 00 00       	call   8054948 <__afl_maybe_log>
 804b3f1:	8b 44 24 0c          	mov    0xc(%esp),%eax
 804b3f5:	8b 4c 24 08          	mov    0x8(%esp),%ecx
 804b3f9:	8b 54 24 04          	mov    0x4(%esp),%edx
 804b3fd:	8b 3c 24             	mov    (%esp),%edi
 804b400:	8d 64 24 10          	lea    0x10(%esp),%esp
                delimit_groups = DM_NONE;
            else
                delimit_groups = ((delimit_method_map)[__xargmatch_internal("--all-repeated", optarg, delimit_method_string, (const char *)(delimit_method_map), sizeof *(delimit_method_map), argmatch_die)]);
 804b404:	52                   	push   %edx
 804b405:	52                   	push   %edx
 804b406:	ff 35 4c a2 06 08    	pushl  0x806a24c
 804b40c:	6a 04                	push   $0x4
 804b40e:	68 34 66 06 08       	push   $0x8066634
 804b413:	68 40 66 06 08       	push   $0x8066640
 804b418:	50                   	push   %eax
 804b419:	68 08 5c 06 08       	push   $0x8065c08
 804b41e:	e8 6d 9e 00 00       	call   8055290 <__xargmatch_internal>
 804b423:	8b 0c 85 34 66 06 08 	mov    0x8066634(,%eax,4),%ecx
 804b42a:	83 c4 20             	add    $0x20,%esp
            output_option_used = 1;
 804b42d:	c6 45 b0 01          	movb   $0x1,-0x50(%ebp)
	report_label_coverage("ROR", 488);
}
if (optarg == ((void *)0))
                delimit_groups = DM_NONE;
            else
                delimit_groups = ((delimit_method_map)[__xargmatch_internal("--all-repeated", optarg, delimit_method_string, (const char *)(delimit_method_map), sizeof *(delimit_method_map), argmatch_die)]);
 804b431:	89 0d 04 a3 06 08    	mov    %ecx,0x806a304
 804b437:	e9 ac e2 ff ff       	jmp    80496e8 <main+0x188>
     avoid the need to specify a grouping method to --all-repeated.
     It was thought best to avoid deprecating those parameters though
     and keep --group separate to other options.  */
  
// COR Label 491
if((grouping != GM_NONE || output_option_used) != (grouping != GM_NONE && output_option_used))  {
 804b43c:	8d 64 24 f0          	lea    -0x10(%esp),%esp
 804b440:	89 3c 24             	mov    %edi,(%esp)
 804b443:	89 54 24 04          	mov    %edx,0x4(%esp)
 804b447:	89 4c 24 08          	mov    %ecx,0x8(%esp)
 804b44b:	89 44 24 0c          	mov    %eax,0xc(%esp)
 804b44f:	b9 9b f9 00 00       	mov    $0xf99b,%ecx
 804b454:	e8 ef 94 00 00       	call   8054948 <__afl_maybe_log>
 804b459:	8b 44 24 0c          	mov    0xc(%esp),%eax
 804b45d:	8b 4c 24 08          	mov    0x8(%esp),%ecx
 804b461:	8b 54 24 04          	mov    0x4(%esp),%edx
 804b465:	8b 3c 24             	mov    (%esp),%edi
 804b468:	8d 64 24 10          	lea    0x10(%esp),%esp
 804b46c:	0f b6 4d b0          	movzbl -0x50(%ebp),%ecx
 804b470:	ba 01 00 00 00       	mov    $0x1,%edx
 804b475:	e9 98 f6 ff ff       	jmp    804ab12 <main+0x15b2>
 804b47a:	66 90                	xchg   %ax,%ax
// ROR Label 490
if((optarg != ((void *)0)) != (optarg == ((void *)0)))  {
	report_label_coverage("ROR", 490);
}
if (optarg == ((void *)0))
                grouping = GM_SEPARATE;
 804b47c:	8d 64 24 f0          	lea    -0x10(%esp),%esp
 804b480:	89 3c 24             	mov    %edi,(%esp)
 804b483:	89 54 24 04          	mov    %edx,0x4(%esp)
 804b487:	89 4c 24 08          	mov    %ecx,0x8(%esp)
 804b48b:	89 44 24 0c          	mov    %eax,0xc(%esp)
 804b48f:	b9 3d 13 00 00       	mov    $0x133d,%ecx
 804b494:	e8 af 94 00 00       	call   8054948 <__afl_maybe_log>
 804b499:	8b 44 24 0c          	mov    0xc(%esp),%eax
 804b49d:	8b 4c 24 08          	mov    0x8(%esp),%ecx
 804b4a1:	8b 54 24 04          	mov    0x4(%esp),%edx
 804b4a5:	8b 3c 24             	mov    (%esp),%edi
 804b4a8:	8d 64 24 10          	lea    0x10(%esp),%esp
 804b4ac:	c7 05 00 a3 06 08 03 	movl   $0x3,0x806a300
 804b4b3:	00 00 00 
 804b4b6:	e9 2d e2 ff ff       	jmp    80496e8 <main+0x188>
 804b4bb:	90                   	nop
// ROR Label 488
if((optarg != ((void *)0)) != (optarg == ((void *)0)))  {
	report_label_coverage("ROR", 488);
}
if (optarg == ((void *)0))
                delimit_groups = DM_NONE;
 804b4bc:	8d 64 24 f0          	lea    -0x10(%esp),%esp
 804b4c0:	89 3c 24             	mov    %edi,(%esp)
 804b4c3:	89 54 24 04          	mov    %edx,0x4(%esp)
 804b4c7:	89 4c 24 08          	mov    %ecx,0x8(%esp)
 804b4cb:	89 44 24 0c          	mov    %eax,0xc(%esp)
 804b4cf:	b9 2e ec 00 00       	mov    $0xec2e,%ecx
 804b4d4:	e8 6f 94 00 00       	call   8054948 <__afl_maybe_log>
 804b4d9:	8b 44 24 0c          	mov    0xc(%esp),%eax
 804b4dd:	8b 4c 24 08          	mov    0x8(%esp),%ecx
 804b4e1:	8b 54 24 04          	mov    0x4(%esp),%edx
 804b4e5:	8b 3c 24             	mov    (%esp),%edi
 804b4e8:	8d 64 24 10          	lea    0x10(%esp),%esp
 804b4ec:	c7 05 04 a3 06 08 00 	movl   $0x0,0x806a304
 804b4f3:	00 00 00 
            else
                delimit_groups = ((delimit_method_map)[__xargmatch_internal("--all-repeated", optarg, delimit_method_string, (const char *)(delimit_method_map), sizeof *(delimit_method_map), argmatch_die)]);
            output_option_used = 1;
 804b4f6:	c6 45 b0 01          	movb   $0x1,-0x50(%ebp)
 804b4fa:	e9 e9 e1 ff ff       	jmp    80496e8 <main+0x188>
 804b4ff:	90                   	nop
	report_label_coverage("ROR", 486);
}
if (skip_field_option_type == SFO_NEW)
              skip_fields = 0;

            if (!DECIMAL_DIGIT_ACCUMULATE (skip_fields, optc - '0', size_t))
 804b500:	8d 64 24 f0          	lea    -0x10(%esp),%esp
 804b504:	89 3c 24             	mov    %edi,(%esp)
 804b507:	89 54 24 04          	mov    %edx,0x4(%esp)
 804b50b:	89 4c 24 08          	mov    %ecx,0x8(%esp)
 804b50f:	89 44 24 0c          	mov    %eax,0xc(%esp)
 804b513:	b9 0f 03 00 00       	mov    $0x30f,%ecx
 804b518:	e8 2b 94 00 00       	call   8054948 <__afl_maybe_log>
 804b51d:	8b 44 24 0c          	mov    0xc(%esp),%eax
 804b521:	8b 4c 24 08          	mov    0x8(%esp),%ecx
 804b525:	8b 54 24 04          	mov    0x4(%esp),%edx
 804b529:	8b 3c 24             	mov    (%esp),%edi
 804b52c:	8d 64 24 10          	lea    0x10(%esp),%esp
 804b530:	6b d0 0a             	imul   $0xa,%eax,%edx
 804b533:	8d 54 16 d0          	lea    -0x30(%esi,%edx,1),%edx
 804b537:	39 d0                	cmp    %edx,%eax
 804b539:	0f 87 81 fb ff ff    	ja     804b0c0 <main+0x1b60>
 804b53f:	90                   	nop
 804b540:	8d 64 24 f0          	lea    -0x10(%esp),%esp
 804b544:	89 3c 24             	mov    %edi,(%esp)
 804b547:	89 54 24 04          	mov    %edx,0x4(%esp)
 804b54b:	89 4c 24 08          	mov    %ecx,0x8(%esp)
 804b54f:	89 44 24 0c          	mov    %eax,0xc(%esp)
 804b553:	b9 2c 0f 00 00       	mov    $0xf2c,%ecx
 804b558:	e8 eb 93 00 00       	call   8054948 <__afl_maybe_log>
 804b55d:	8b 44 24 0c          	mov    0xc(%esp),%eax
 804b561:	8b 4c 24 08          	mov    0x8(%esp),%ecx
 804b565:	8b 54 24 04          	mov    0x4(%esp),%edx
 804b569:	8b 3c 24             	mov    (%esp),%edi
 804b56c:	8d 64 24 10          	lea    0x10(%esp),%esp
 804b570:	8d 64 24 f0          	lea    -0x10(%esp),%esp
 804b574:	89 3c 24             	mov    %edi,(%esp)
 804b577:	89 54 24 04          	mov    %edx,0x4(%esp)
 804b57b:	89 4c 24 08          	mov    %ecx,0x8(%esp)
 804b57f:	89 44 24 0c          	mov    %eax,0xc(%esp)
 804b583:	b9 e8 1f 00 00       	mov    $0x1fe8,%ecx
 804b588:	e8 bb 93 00 00       	call   8054948 <__afl_maybe_log>
 804b58d:	8b 44 24 0c          	mov    0xc(%esp),%eax
 804b591:	8b 4c 24 08          	mov    0x8(%esp),%ecx
 804b595:	8b 54 24 04          	mov    0x4(%esp),%edx
 804b599:	8b 3c 24             	mov    (%esp),%edi
 804b59c:	8d 64 24 10          	lea    0x10(%esp),%esp
 804b5a0:	89 15 18 a3 06 08    	mov    %edx,0x806a318
              skip_fields = SIZE_MAX;

            skip_field_option_type = SFO_OBSOLETE;
 804b5a6:	c7 45 ac 01 00 00 00 	movl   $0x1,-0x54(%ebp)
 804b5ad:	e9 c7 e0 ff ff       	jmp    8049679 <main+0x119>
 804b5b2:	66 90                	xchg   %ax,%ax
if((grouping == GM_NONE) != (grouping != GM_NONE))  {
	report_label_coverage("ROR", 492);
}

// MCC Label 493
if(grouping != GM_NONE && output_option_used ) {
 804b5b4:	8d 64 24 f0          	lea    -0x10(%esp),%esp
 804b5b8:	89 3c 24             	mov    %edi,(%esp)
 804b5bb:	89 54 24 04          	mov    %edx,0x4(%esp)
 804b5bf:	89 4c 24 08          	mov    %ecx,0x8(%esp)
 804b5c3:	89 44 24 0c          	mov    %eax,0xc(%esp)
 804b5c7:	b9 cf bc 00 00       	mov    $0xbccf,%ecx
 804b5cc:	e8 77 93 00 00       	call   8054948 <__afl_maybe_log>
 804b5d1:	8b 44 24 0c          	mov    0xc(%esp),%eax
 804b5d5:	8b 4c 24 08          	mov    0x8(%esp),%ecx
 804b5d9:	8b 54 24 04          	mov    0x4(%esp),%edx
 804b5dd:	8b 3c 24             	mov    (%esp),%edi
 804b5e0:	8d 64 24 10          	lea    0x10(%esp),%esp
 804b5e4:	80 7d b0 00          	cmpb   $0x0,-0x50(%ebp)
 804b5e8:	0f 85 93 21 00 00    	jne    804d781 <main+0x4221>
 804b5ee:	66 90                	xchg   %ax,%ax
 804b5f0:	8d 64 24 f0          	lea    -0x10(%esp),%esp
 804b5f4:	89 3c 24             	mov    %edi,(%esp)
 804b5f7:	89 54 24 04          	mov    %edx,0x4(%esp)
 804b5fb:	89 4c 24 08          	mov    %ecx,0x8(%esp)
 804b5ff:	89 44 24 0c          	mov    %eax,0xc(%esp)
 804b603:	b9 a0 c4 00 00       	mov    $0xc4a0,%ecx
 804b608:	e8 3b 93 00 00       	call   8054948 <__afl_maybe_log>
 804b60d:	8b 44 24 0c          	mov    0xc(%esp),%eax
 804b611:	8b 4c 24 08          	mov    0x8(%esp),%ecx
 804b615:	8b 54 24 04          	mov    0x4(%esp),%edx
 804b619:	8b 3c 24             	mov    (%esp),%edi
 804b61c:	8d 64 24 10          	lea    0x10(%esp),%esp
	report_label_coverage("MCC", 493);
}
// MCC Label 494
if(grouping != GM_NONE && !(output_option_used) ) {
	report_label_coverage("MCC", 494);
 804b620:	50                   	push   %eax
 804b621:	50                   	push   %eax
 804b622:	68 ee 01 00 00       	push   $0x1ee
 804b627:	68 1b 5b 06 08       	push   $0x8065b1b
 804b62c:	e8 4f 5a 00 00       	call   8051080 <report_label_coverage>
      usage (EXIT_FAILURE);
    }

  
// COR Label 497
if((grouping != GM_NONE || countmode != count_none) != (grouping != GM_NONE && countmode != count_none))  {
 804b631:	83 c4 10             	add    $0x10,%esp
 804b634:	83 3d 0c a3 06 08 01 	cmpl   $0x1,0x806a30c
 804b63b:	0f 85 83 f6 ff ff    	jne    804acc4 <main+0x1764>
 804b641:	8d 76 00             	lea    0x0(%esi),%esi
 804b644:	8d 64 24 f0          	lea    -0x10(%esp),%esp
 804b648:	89 3c 24             	mov    %edi,(%esp)
 804b64b:	89 54 24 04          	mov    %edx,0x4(%esp)
 804b64f:	89 4c 24 08          	mov    %ecx,0x8(%esp)
 804b653:	89 44 24 0c          	mov    %eax,0xc(%esp)
 804b657:	b9 ed 7b 00 00       	mov    $0x7bed,%ecx
 804b65c:	e8 e7 92 00 00       	call   8054948 <__afl_maybe_log>
 804b661:	8b 44 24 0c          	mov    0xc(%esp),%eax
 804b665:	8b 4c 24 08          	mov    0x8(%esp),%ecx
 804b669:	8b 54 24 04          	mov    0x4(%esp),%edx
 804b66d:	8b 3c 24             	mov    (%esp),%edi
 804b670:	8d 64 24 10          	lea    0x10(%esp),%esp
	report_label_coverage("COR", 497);
 804b674:	8d 64 24 f0          	lea    -0x10(%esp),%esp
 804b678:	89 3c 24             	mov    %edi,(%esp)
 804b67b:	89 54 24 04          	mov    %edx,0x4(%esp)
 804b67f:	89 4c 24 08          	mov    %ecx,0x8(%esp)
 804b683:	89 44 24 0c          	mov    %eax,0xc(%esp)
 804b687:	b9 74 05 00 00       	mov    $0x574,%ecx
 804b68c:	e8 b7 92 00 00       	call   8054948 <__afl_maybe_log>
 804b691:	8b 44 24 0c          	mov    0xc(%esp),%eax
 804b695:	8b 4c 24 08          	mov    0x8(%esp),%ecx
 804b699:	8b 54 24 04          	mov    0x4(%esp),%edx
 804b69d:	8b 3c 24             	mov    (%esp),%edi
 804b6a0:	8d 64 24 10          	lea    0x10(%esp),%esp
 804b6a4:	50                   	push   %eax
 804b6a5:	50                   	push   %eax
 804b6a6:	68 f1 01 00 00       	push   $0x1f1
 804b6ab:	68 13 5b 06 08       	push   $0x8065b13
 804b6b0:	e8 cb 59 00 00       	call   8051080 <report_label_coverage>
 804b6b5:	83 c4 10             	add    $0x10,%esp
 804b6b8:	e9 07 f6 ff ff       	jmp    804acc4 <main+0x1764>
 804b6bd:	8d 76 00             	lea    0x0(%esi),%esi
// MCC Label 501
if(grouping != GM_NONE && !(countmode != count_none) ) {
	report_label_coverage("MCC", 501);
}
// MCC Label 502
if(!(grouping != GM_NONE) && countmode != count_none ) {
 804b6c0:	8d 64 24 f0          	lea    -0x10(%esp),%esp
 804b6c4:	89 3c 24             	mov    %edi,(%esp)
 804b6c7:	89 54 24 04          	mov    %edx,0x4(%esp)
 804b6cb:	89 4c 24 08          	mov    %ecx,0x8(%esp)
 804b6cf:	89 44 24 0c          	mov    %eax,0xc(%esp)
 804b6d3:	b9 f9 d5 00 00       	mov    $0xd5f9,%ecx
 804b6d8:	e8 6b 92 00 00       	call   8054948 <__afl_maybe_log>
 804b6dd:	8b 44 24 0c          	mov    0xc(%esp),%eax
 804b6e1:	8b 4c 24 08          	mov    0x8(%esp),%ecx
 804b6e5:	8b 54 24 04          	mov    0x4(%esp),%edx
 804b6e9:	8b 3c 24             	mov    (%esp),%edi
 804b6ec:	8d 64 24 10          	lea    0x10(%esp),%esp
 804b6f0:	84 c0                	test   %al,%al
 804b6f2:	74 44                	je     804b738 <main+0x21d8>
 804b6f4:	8d 64 24 f0          	lea    -0x10(%esp),%esp
 804b6f8:	89 3c 24             	mov    %edi,(%esp)
 804b6fb:	89 54 24 04          	mov    %edx,0x4(%esp)
 804b6ff:	89 4c 24 08          	mov    %ecx,0x8(%esp)
 804b703:	89 44 24 0c          	mov    %eax,0xc(%esp)
 804b707:	b9 ef af 00 00       	mov    $0xafef,%ecx
 804b70c:	e8 37 92 00 00       	call   8054948 <__afl_maybe_log>
 804b711:	8b 44 24 0c          	mov    0xc(%esp),%eax
 804b715:	8b 4c 24 08          	mov    0x8(%esp),%ecx
 804b719:	8b 54 24 04          	mov    0x4(%esp),%edx
 804b71d:	8b 3c 24             	mov    (%esp),%edi
 804b720:	8d 64 24 10          	lea    0x10(%esp),%esp
	report_label_coverage("MCC", 502);
 804b724:	50                   	push   %eax
 804b725:	50                   	push   %eax
 804b726:	68 f6 01 00 00       	push   $0x1f6
 804b72b:	68 1b 5b 06 08       	push   $0x8065b1b
 804b730:	e8 4b 59 00 00       	call   8051080 <report_label_coverage>
 804b735:	83 c4 10             	add    $0x10,%esp
}
// MCC Label 503
if(!(grouping != GM_NONE) && !(countmode != count_none) ) {
 804b738:	8d 64 24 f0          	lea    -0x10(%esp),%esp
 804b73c:	89 3c 24             	mov    %edi,(%esp)
 804b73f:	89 54 24 04          	mov    %edx,0x4(%esp)
 804b743:	89 4c 24 08          	mov    %ecx,0x8(%esp)
 804b747:	89 44 24 0c          	mov    %eax,0xc(%esp)
 804b74b:	b9 45 83 00 00       	mov    $0x8345,%ecx
 804b750:	e8 f3 91 00 00       	call   8054948 <__afl_maybe_log>
 804b755:	8b 44 24 0c          	mov    0xc(%esp),%eax
 804b759:	8b 4c 24 08          	mov    0x8(%esp),%ecx
 804b75d:	8b 54 24 04          	mov    0x4(%esp),%edx
 804b761:	8b 3c 24             	mov    (%esp),%edi
 804b764:	8d 64 24 10          	lea    0x10(%esp),%esp
 804b768:	89 fb                	mov    %edi,%ebx
 804b76a:	84 db                	test   %bl,%bl
 804b76c:	0f 85 63 4d 00 00    	jne    80504d5 <main+0x6f75>
 804b772:	66 90                	xchg   %ax,%ax
 804b774:	8d 64 24 f0          	lea    -0x10(%esp),%esp
 804b778:	89 3c 24             	mov    %edi,(%esp)
 804b77b:	89 54 24 04          	mov    %edx,0x4(%esp)
 804b77f:	89 4c 24 08          	mov    %ecx,0x8(%esp)
 804b783:	89 44 24 0c          	mov    %eax,0xc(%esp)
 804b787:	b9 57 48 00 00       	mov    $0x4857,%ecx
 804b78c:	e8 b7 91 00 00       	call   8054948 <__afl_maybe_log>
 804b791:	8b 44 24 0c          	mov    0xc(%esp),%eax
 804b795:	8b 4c 24 08          	mov    0x8(%esp),%ecx
 804b799:	8b 54 24 04          	mov    0x4(%esp),%edx
 804b79d:	8b 3c 24             	mov    (%esp),%edi
 804b7a0:	8d 64 24 10          	lea    0x10(%esp),%esp
      usage (EXIT_FAILURE);
    }

  
// COR Label 504
if((countmode == count_occurrences || output_later_repeated) != (countmode == count_occurrences && output_later_repeated))  {
 804b7a4:	8d 64 24 f0          	lea    -0x10(%esp),%esp
 804b7a8:	89 3c 24             	mov    %edi,(%esp)
 804b7ab:	89 54 24 04          	mov    %edx,0x4(%esp)
 804b7af:	89 4c 24 08          	mov    %ecx,0x8(%esp)
 804b7b3:	89 44 24 0c          	mov    %eax,0xc(%esp)
 804b7b7:	b9 8a 42 00 00       	mov    $0x428a,%ecx
 804b7bc:	e8 87 91 00 00       	call   8054948 <__afl_maybe_log>
 804b7c1:	8b 44 24 0c          	mov    0xc(%esp),%eax
 804b7c5:	8b 4c 24 08          	mov    0x8(%esp),%ecx
 804b7c9:	8b 54 24 04          	mov    0x4(%esp),%edx
 804b7cd:	8b 3c 24             	mov    (%esp),%edi
 804b7d0:	8d 64 24 10          	lea    0x10(%esp),%esp
 804b7d4:	85 f6                	test   %esi,%esi
 804b7d6:	0f 85 60 1e 00 00    	jne    804d63c <main+0x40dc>
 804b7dc:	8d 64 24 f0          	lea    -0x10(%esp),%esp
 804b7e0:	89 3c 24             	mov    %edi,(%esp)
 804b7e3:	89 54 24 04          	mov    %edx,0x4(%esp)
 804b7e7:	89 4c 24 08          	mov    %ecx,0x8(%esp)
 804b7eb:	89 44 24 0c          	mov    %eax,0xc(%esp)
 804b7ef:	b9 bb dd 00 00       	mov    $0xddbb,%ecx
 804b7f4:	e8 4f 91 00 00       	call   8054948 <__afl_maybe_log>
 804b7f9:	8b 44 24 0c          	mov    0xc(%esp),%eax
 804b7fd:	8b 4c 24 08          	mov    0x8(%esp),%ecx
 804b801:	8b 54 24 04          	mov    0x4(%esp),%edx
 804b805:	8b 3c 24             	mov    (%esp),%edi
 804b808:	8d 64 24 10          	lea    0x10(%esp),%esp
 804b80c:	80 3d 09 a3 06 08 00 	cmpb   $0x0,0x806a309
 804b813:	75 77                	jne    804b88c <main+0x232c>
 804b815:	8d 76 00             	lea    0x0(%esi),%esi
 804b818:	8d 64 24 f0          	lea    -0x10(%esp),%esp
 804b81c:	89 3c 24             	mov    %edi,(%esp)
 804b81f:	89 54 24 04          	mov    %edx,0x4(%esp)
 804b823:	89 4c 24 08          	mov    %ecx,0x8(%esp)
 804b827:	89 44 24 0c          	mov    %eax,0xc(%esp)
 804b82b:	b9 c5 97 00 00       	mov    $0x97c5,%ecx
 804b830:	e8 13 91 00 00       	call   8054948 <__afl_maybe_log>
 804b835:	8b 44 24 0c          	mov    0xc(%esp),%eax
 804b839:	8b 4c 24 08          	mov    0x8(%esp),%ecx
 804b83d:	8b 54 24 04          	mov    0x4(%esp),%edx
 804b841:	8b 3c 24             	mov    (%esp),%edi
 804b844:	8d 64 24 10          	lea    0x10(%esp),%esp
	report_label_coverage("COR", 504);
 804b848:	8d 64 24 f0          	lea    -0x10(%esp),%esp
 804b84c:	89 3c 24             	mov    %edi,(%esp)
 804b84f:	89 54 24 04          	mov    %edx,0x4(%esp)
 804b853:	89 4c 24 08          	mov    %ecx,0x8(%esp)
 804b857:	89 44 24 0c          	mov    %eax,0xc(%esp)
 804b85b:	b9 0a b2 00 00       	mov    $0xb20a,%ecx
 804b860:	e8 e3 90 00 00       	call   8054948 <__afl_maybe_log>
 804b865:	8b 44 24 0c          	mov    0xc(%esp),%eax
 804b869:	8b 4c 24 08          	mov    0x8(%esp),%ecx
 804b86d:	8b 54 24 04          	mov    0x4(%esp),%edx
 804b871:	8b 3c 24             	mov    (%esp),%edi
 804b874:	8d 64 24 10          	lea    0x10(%esp),%esp
 804b878:	53                   	push   %ebx
 804b879:	53                   	push   %ebx
 804b87a:	68 f8 01 00 00       	push   $0x1f8
 804b87f:	68 13 5b 06 08       	push   $0x8065b13
 804b884:	e8 f7 57 00 00       	call   8051080 <report_label_coverage>
 804b889:	83 c4 10             	add    $0x10,%esp
}

// ROR Label 505
if((countmode != count_occurrences) != (countmode == count_occurrences))  {
 804b88c:	8d 64 24 f0          	lea    -0x10(%esp),%esp
 804b890:	89 3c 24             	mov    %edi,(%esp)
 804b893:	89 54 24 04          	mov    %edx,0x4(%esp)
 804b897:	89 4c 24 08          	mov    %ecx,0x8(%esp)
 804b89b:	89 44 24 0c          	mov    %eax,0xc(%esp)
 804b89f:	b9 90 0d 00 00       	mov    $0xd90,%ecx
 804b8a4:	e8 9f 90 00 00       	call   8054948 <__afl_maybe_log>
 804b8a9:	8b 44 24 0c          	mov    0xc(%esp),%eax
 804b8ad:	8b 4c 24 08          	mov    0x8(%esp),%ecx
 804b8b1:	8b 54 24 04          	mov    0x4(%esp),%edx
 804b8b5:	8b 3c 24             	mov    (%esp),%edi
 804b8b8:	8d 64 24 10          	lea    0x10(%esp),%esp
 804b8bc:	85 f6                	test   %esi,%esi
 804b8be:	0f 94 c3             	sete   %bl
 804b8c1:	0f 95 c1             	setne  %cl
 804b8c4:	38 d9                	cmp    %bl,%cl
 804b8c6:	74 44                	je     804b90c <main+0x23ac>
 804b8c8:	8d 64 24 f0          	lea    -0x10(%esp),%esp
 804b8cc:	89 3c 24             	mov    %edi,(%esp)
 804b8cf:	89 54 24 04          	mov    %edx,0x4(%esp)
 804b8d3:	89 4c 24 08          	mov    %ecx,0x8(%esp)
 804b8d7:	89 44 24 0c          	mov    %eax,0xc(%esp)
 804b8db:	b9 87 93 00 00       	mov    $0x9387,%ecx
 804b8e0:	e8 63 90 00 00       	call   8054948 <__afl_maybe_log>
 804b8e5:	8b 44 24 0c          	mov    0xc(%esp),%eax
 804b8e9:	8b 4c 24 08          	mov    0x8(%esp),%ecx
 804b8ed:	8b 54 24 04          	mov    0x4(%esp),%edx
 804b8f1:	8b 3c 24             	mov    (%esp),%edi
 804b8f4:	8d 64 24 10          	lea    0x10(%esp),%esp
	report_label_coverage("ROR", 505);
 804b8f8:	51                   	push   %ecx
 804b8f9:	51                   	push   %ecx
 804b8fa:	68 f9 01 00 00       	push   $0x1f9
 804b8ff:	68 17 5b 06 08       	push   $0x8065b17
 804b904:	e8 77 57 00 00       	call   8051080 <report_label_coverage>
 804b909:	83 c4 10             	add    $0x10,%esp
}

// MCC Label 506
if(countmode == count_occurrences && output_later_repeated ) {
 804b90c:	8d 64 24 f0          	lea    -0x10(%esp),%esp
 804b910:	89 3c 24             	mov    %edi,(%esp)
 804b913:	89 54 24 04          	mov    %edx,0x4(%esp)
 804b917:	89 4c 24 08          	mov    %ecx,0x8(%esp)
 804b91b:	89 44 24 0c          	mov    %eax,0xc(%esp)
 804b91f:	b9 df d9 00 00       	mov    $0xd9df,%ecx
 804b924:	e8 1f 90 00 00       	call   8054948 <__afl_maybe_log>
 804b929:	8b 44 24 0c          	mov    0xc(%esp),%eax
 804b92d:	8b 4c 24 08          	mov    0x8(%esp),%ecx
 804b931:	8b 54 24 04          	mov    0x4(%esp),%edx
 804b935:	8b 3c 24             	mov    (%esp),%edi
 804b938:	8d 64 24 10          	lea    0x10(%esp),%esp
 804b93c:	84 db                	test   %bl,%bl
 804b93e:	0f 84 69 1a 00 00    	je     804d3ad <main+0x3e4d>
 804b944:	8d 64 24 f0          	lea    -0x10(%esp),%esp
 804b948:	89 3c 24             	mov    %edi,(%esp)
 804b94b:	89 54 24 04          	mov    %edx,0x4(%esp)
 804b94f:	89 4c 24 08          	mov    %ecx,0x8(%esp)
 804b953:	89 44 24 0c          	mov    %eax,0xc(%esp)
 804b957:	b9 f5 a8 00 00       	mov    $0xa8f5,%ecx
 804b95c:	e8 e7 8f 00 00       	call   8054948 <__afl_maybe_log>
 804b961:	8b 44 24 0c          	mov    0xc(%esp),%eax
 804b965:	8b 4c 24 08          	mov    0x8(%esp),%ecx
 804b969:	8b 54 24 04          	mov    0x4(%esp),%edx
 804b96d:	8b 3c 24             	mov    (%esp),%edi
 804b970:	8d 64 24 10          	lea    0x10(%esp),%esp
 804b974:	80 3d 09 a3 06 08 00 	cmpb   $0x0,0x806a309
 804b97b:	0f 85 9c 1e 00 00    	jne    804d81d <main+0x42bd>
 804b981:	8d 76 00             	lea    0x0(%esi),%esi
 804b984:	8d 64 24 f0          	lea    -0x10(%esp),%esp
 804b988:	89 3c 24             	mov    %edi,(%esp)
 804b98b:	89 54 24 04          	mov    %edx,0x4(%esp)
 804b98f:	89 4c 24 08          	mov    %ecx,0x8(%esp)
 804b993:	89 44 24 0c          	mov    %eax,0xc(%esp)
 804b997:	b9 61 e4 00 00       	mov    $0xe461,%ecx
 804b99c:	e8 a7 8f 00 00       	call   8054948 <__afl_maybe_log>
 804b9a1:	8b 44 24 0c          	mov    0xc(%esp),%eax
 804b9a5:	8b 4c 24 08          	mov    0x8(%esp),%ecx
 804b9a9:	8b 54 24 04          	mov    0x4(%esp),%edx
 804b9ad:	8b 3c 24             	mov    (%esp),%edi
 804b9b0:	8d 64 24 10          	lea    0x10(%esp),%esp
	report_label_coverage("MCC", 506);
}
// MCC Label 507
if(countmode == count_occurrences && !(output_later_repeated) ) {
	report_label_coverage("MCC", 507);
 804b9b4:	53                   	push   %ebx
 804b9b5:	53                   	push   %ebx
 804b9b6:	68 fb 01 00 00       	push   $0x1fb
 804b9bb:	68 1b 5b 06 08       	push   $0x8065b1b
 804b9c0:	e8 bb 56 00 00       	call   8051080 <report_label_coverage>
 804b9c5:	83 c4 10             	add    $0x10,%esp

// ABS Label 465
if(delimiter < 0)  {
	report_label_coverage("ABS", 465);
}
check_file (file[0], file[1], delimiter);
 804b9c8:	8d 64 24 f0          	lea    -0x10(%esp),%esp
 804b9cc:	89 3c 24             	mov    %edi,(%esp)
 804b9cf:	89 54 24 04          	mov    %edx,0x4(%esp)
 804b9d3:	89 4c 24 08          	mov    %ecx,0x8(%esp)
 804b9d7:	89 44 24 0c          	mov    %eax,0xc(%esp)
 804b9db:	b9 2e 73 00 00       	mov    $0x732e,%ecx
 804b9e0:	e8 63 8f 00 00       	call   8054948 <__afl_maybe_log>
 804b9e5:	8b 44 24 0c          	mov    0xc(%esp),%eax
 804b9e9:	8b 4c 24 08          	mov    0x8(%esp),%ecx
 804b9ed:	8b 54 24 04          	mov    0x4(%esp),%edx
 804b9f1:	8b 3c 24             	mov    (%esp),%edi
 804b9f4:	8d 64 24 10          	lea    0x10(%esp),%esp
 804b9f8:	8b 7d c8             	mov    -0x38(%ebp),%edi
 804b9fb:	8b 75 cc             	mov    -0x34(%ebp),%esi
{
  struct linebuffer lb1, lb2;
  struct linebuffer *thisline, *prevline;

  {
    int temp_1 = !((strcmp(infile, "-") == 0) || freopen_safer(infile, "r", stdin));
 804b9fe:	80 3f 2d             	cmpb   $0x2d,(%edi)

// ABS Label 465
if(delimiter < 0)  {
	report_label_coverage("ABS", 465);
}
check_file (file[0], file[1], delimiter);
 804ba01:	89 7d 98             	mov    %edi,-0x68(%ebp)
{
  struct linebuffer lb1, lb2;
  struct linebuffer *thisline, *prevline;

  {
    int temp_1 = !((strcmp(infile, "-") == 0) || freopen_safer(infile, "r", stdin));
 804ba04:	0f 84 17 16 00 00    	je     804d021 <main+0x3ac1>
 804ba0a:	66 90                	xchg   %ax,%ax
 804ba0c:	8d 64 24 f0          	lea    -0x10(%esp),%esp
 804ba10:	89 3c 24             	mov    %edi,(%esp)
 804ba13:	89 54 24 04          	mov    %edx,0x4(%esp)
 804ba17:	89 4c 24 08          	mov    %ecx,0x8(%esp)
 804ba1b:	89 44 24 0c          	mov    %eax,0xc(%esp)
 804ba1f:	b9 23 26 00 00       	mov    $0x2623,%ecx
 804ba24:	e8 1f 8f 00 00       	call   8054948 <__afl_maybe_log>
 804ba29:	8b 44 24 0c          	mov    0xc(%esp),%eax
 804ba2d:	8b 4c 24 08          	mov    0x8(%esp),%ecx
 804ba31:	8b 54 24 04          	mov    0x4(%esp),%edx
 804ba35:	8b 3c 24             	mov    (%esp),%edi
 804ba38:	8d 64 24 10          	lea    0x10(%esp),%esp
 804ba3c:	8d 64 24 f0          	lea    -0x10(%esp),%esp
 804ba40:	89 3c 24             	mov    %edi,(%esp)
 804ba43:	89 54 24 04          	mov    %edx,0x4(%esp)
 804ba47:	89 4c 24 08          	mov    %ecx,0x8(%esp)
 804ba4b:	89 44 24 0c          	mov    %eax,0xc(%esp)
 804ba4f:	b9 a2 b4 00 00       	mov    $0xb4a2,%ecx
 804ba54:	e8 ef 8e 00 00       	call   8054948 <__afl_maybe_log>
 804ba59:	8b 44 24 0c          	mov    0xc(%esp),%eax
 804ba5d:	8b 4c 24 08          	mov    0x8(%esp),%ecx
 804ba61:	8b 54 24 04          	mov    0x4(%esp),%edx
 804ba65:	8b 3c 24             	mov    (%esp),%edi
 804ba68:	8d 64 24 10          	lea    0x10(%esp),%esp
 804ba6c:	50                   	push   %eax
 804ba6d:	ff 35 d0 a2 06 08    	pushl  0x806a2d0
 804ba73:	68 b9 66 06 08       	push   $0x80666b9
 804ba78:	ff 75 98             	pushl  -0x68(%ebp)
 804ba7b:	e8 f0 a3 00 00       	call   8055e70 <freopen_safer>
    
// ABS Label 249
if(temp_1 < 0)  {
	report_label_coverage("ABS", 249);
}
if (temp_1)
 804ba80:	83 c4 10             	add    $0x10,%esp
 804ba83:	85 c0                	test   %eax,%eax
 804ba85:	75 4a                	jne    804bad1 <main+0x2571>
 804ba87:	90                   	nop
 804ba88:	8d 64 24 f0          	lea    -0x10(%esp),%esp
 804ba8c:	89 3c 24             	mov    %edi,(%esp)
 804ba8f:	89 54 24 04          	mov    %edx,0x4(%esp)
 804ba93:	89 4c 24 08          	mov    %ecx,0x8(%esp)
 804ba97:	89 44 24 0c          	mov    %eax,0xc(%esp)
 804ba9b:	b9 38 75 00 00       	mov    $0x7538,%ecx
 804baa0:	e8 a3 8e 00 00       	call   8054948 <__afl_maybe_log>
 804baa5:	8b 44 24 0c          	mov    0xc(%esp),%eax
 804baa9:	8b 4c 24 08          	mov    0x8(%esp),%ecx
 804baad:	8b 54 24 04          	mov    0x4(%esp),%edx
 804bab1:	8b 3c 24             	mov    (%esp),%edi
 804bab4:	8d 64 24 10          	lea    0x10(%esp),%esp
        error(1, (*__errno_location()), "%s", infile);
 804bab8:	e8 43 d9 ff ff       	call   8049400 <__errno_location@plt>
 804babd:	ff 75 98             	pushl  -0x68(%ebp)
 804bac0:	68 ac 66 06 08       	push   $0x80666ac
 804bac5:	ff 30                	pushl  (%eax)
 804bac7:	6a 01                	push   $0x1
 804bac9:	e8 f2 d7 ff ff       	call   80492c0 <error@plt>
 804bace:	83 c4 10             	add    $0x10,%esp
 804bad1:	8d 76 00             	lea    0x0(%esi),%esi
}
;
  {
    int temp_1 = !((strcmp(outfile, "-") == 0) || freopen_safer(outfile, "w", stdout));
 804bad4:	8d 64 24 f0          	lea    -0x10(%esp),%esp
 804bad8:	89 3c 24             	mov    %edi,(%esp)
 804badb:	89 54 24 04          	mov    %edx,0x4(%esp)
 804badf:	89 4c 24 08          	mov    %ecx,0x8(%esp)
 804bae3:	89 44 24 0c          	mov    %eax,0xc(%esp)
 804bae7:	b9 d1 7e 00 00       	mov    $0x7ed1,%ecx
 804baec:	e8 57 8e 00 00       	call   8054948 <__afl_maybe_log>
 804baf1:	8b 44 24 0c          	mov    0xc(%esp),%eax
 804baf5:	8b 4c 24 08          	mov    0x8(%esp),%ecx
 804baf9:	8b 54 24 04          	mov    0x4(%esp),%edx
 804bafd:	8b 3c 24             	mov    (%esp),%edi
 804bb00:	8d 64 24 10          	lea    0x10(%esp),%esp
 804bb04:	80 3e 2d             	cmpb   $0x2d,(%esi)
 804bb07:	0f 84 a0 14 00 00    	je     804cfad <main+0x3a4d>
 804bb0d:	8d 76 00             	lea    0x0(%esi),%esi
 804bb10:	8d 64 24 f0          	lea    -0x10(%esp),%esp
 804bb14:	89 3c 24             	mov    %edi,(%esp)
 804bb17:	89 54 24 04          	mov    %edx,0x4(%esp)
 804bb1b:	89 4c 24 08          	mov    %ecx,0x8(%esp)
 804bb1f:	89 44 24 0c          	mov    %eax,0xc(%esp)
 804bb23:	b9 ac 55 00 00       	mov    $0x55ac,%ecx
 804bb28:	e8 1b 8e 00 00       	call   8054948 <__afl_maybe_log>
 804bb2d:	8b 44 24 0c          	mov    0xc(%esp),%eax
 804bb31:	8b 4c 24 08          	mov    0x8(%esp),%ecx
 804bb35:	8b 54 24 04          	mov    0x4(%esp),%edx
 804bb39:	8b 3c 24             	mov    (%esp),%edi
 804bb3c:	8d 64 24 10          	lea    0x10(%esp),%esp
 804bb40:	8d 64 24 f0          	lea    -0x10(%esp),%esp
 804bb44:	89 3c 24             	mov    %edi,(%esp)
 804bb47:	89 54 24 04          	mov    %edx,0x4(%esp)
 804bb4b:	89 4c 24 08          	mov    %ecx,0x8(%esp)
 804bb4f:	89 44 24 0c          	mov    %eax,0xc(%esp)
 804bb53:	b9 c2 83 00 00       	mov    $0x83c2,%ecx
 804bb58:	e8 eb 8d 00 00       	call   8054948 <__afl_maybe_log>
 804bb5d:	8b 44 24 0c          	mov    0xc(%esp),%eax
 804bb61:	8b 4c 24 08          	mov    0x8(%esp),%ecx
 804bb65:	8b 54 24 04          	mov    0x4(%esp),%edx
 804bb69:	8b 3c 24             	mov    (%esp),%edi
 804bb6c:	8d 64 24 10          	lea    0x10(%esp),%esp
 804bb70:	50                   	push   %eax
 804bb71:	ff 35 d8 a2 06 08    	pushl  0x806a2d8
 804bb77:	68 43 5c 06 08       	push   $0x8065c43
 804bb7c:	56                   	push   %esi
 804bb7d:	e8 ee a2 00 00       	call   8055e70 <freopen_safer>
    
// ABS Label 250
if(temp_1 < 0)  {
	report_label_coverage("ABS", 250);
}
if (temp_1)
 804bb82:	83 c4 10             	add    $0x10,%esp
 804bb85:	85 c0                	test   %eax,%eax
 804bb87:	75 4a                	jne    804bbd3 <main+0x2673>
 804bb89:	8d 76 00             	lea    0x0(%esi),%esi
 804bb8c:	8d 64 24 f0          	lea    -0x10(%esp),%esp
 804bb90:	89 3c 24             	mov    %edi,(%esp)
 804bb93:	89 54 24 04          	mov    %edx,0x4(%esp)
 804bb97:	89 4c 24 08          	mov    %ecx,0x8(%esp)
 804bb9b:	89 44 24 0c          	mov    %eax,0xc(%esp)
 804bb9f:	b9 2f 63 00 00       	mov    $0x632f,%ecx
 804bba4:	e8 9f 8d 00 00       	call   8054948 <__afl_maybe_log>
 804bba9:	8b 44 24 0c          	mov    0xc(%esp),%eax
 804bbad:	8b 4c 24 08          	mov    0x8(%esp),%ecx
 804bbb1:	8b 54 24 04          	mov    0x4(%esp),%edx
 804bbb5:	8b 3c 24             	mov    (%esp),%edi
 804bbb8:	8d 64 24 10          	lea    0x10(%esp),%esp
        error(1, (*__errno_location()), "%s", outfile);
 804bbbc:	e8 3f d8 ff ff       	call   8049400 <__errno_location@plt>
 804bbc1:	56                   	push   %esi
 804bbc2:	68 ac 66 06 08       	push   $0x80666ac
 804bbc7:	ff 30                	pushl  (%eax)
 804bbc9:	6a 01                	push   $0x1
 804bbcb:	e8 f0 d6 ff ff       	call   80492c0 <error@plt>
 804bbd0:	83 c4 10             	add    $0x10,%esp
 804bbd3:	90                   	nop
  
// ABS Label 246
if(stdin < 0)  {
	report_label_coverage("ABS", 246);
}
fadvise (stdin, FADVISE_SEQUENTIAL);
 804bbd4:	8d 64 24 f0          	lea    -0x10(%esp),%esp
 804bbd8:	89 3c 24             	mov    %edi,(%esp)
 804bbdb:	89 54 24 04          	mov    %edx,0x4(%esp)
 804bbdf:	89 4c 24 08          	mov    %ecx,0x8(%esp)
 804bbe3:	89 44 24 0c          	mov    %eax,0xc(%esp)
 804bbe7:	b9 5c d4 00 00       	mov    $0xd45c,%ecx
 804bbec:	e8 57 8d 00 00       	call   8054948 <__afl_maybe_log>
 804bbf1:	8b 44 24 0c          	mov    0xc(%esp),%eax
 804bbf5:	8b 4c 24 08          	mov    0x8(%esp),%ecx
 804bbf9:	8b 54 24 04          	mov    0x4(%esp),%edx
 804bbfd:	8b 3c 24             	mov    (%esp),%edi
 804bc00:	8d 64 24 10          	lea    0x10(%esp),%esp
 804bc04:	50                   	push   %eax
 804bc05:	50                   	push   %eax
 804bc06:	6a 02                	push   $0x2
 804bc08:	ff 35 d0 a2 06 08    	pushl  0x806a2d0
 804bc0e:	e8 2d 9f 00 00       	call   8055b40 <fadvise>
  
// ABS Label 247
if(thisline < 0)  {
	report_label_coverage("ABS", 247);
}
initbuffer (thisline);
 804bc13:	8d 45 d0             	lea    -0x30(%ebp),%eax
 804bc16:	89 04 24             	mov    %eax,(%esp)
 804bc19:	e8 32 ad 00 00       	call   8056950 <initbuffer>
  
// ABS Label 248
if(prevline < 0)  {
	report_label_coverage("ABS", 248);
}
initbuffer (prevline);
 804bc1e:	8d 55 dc             	lea    -0x24(%ebp),%edx
 804bc21:	89 14 24             	mov    %edx,(%esp)
 804bc24:	e8 27 ad 00 00       	call   8056950 <initbuffer>

     3. All other cases.
  */
  
// COR Label 251
if((output_unique && output_first_repeated || countmode == count_none) != (output_unique && output_first_repeated && countmode == count_none))  {
 804bc29:	0f b6 0d 0b a3 06 08 	movzbl 0x806a30b,%ecx
 804bc30:	83 c4 10             	add    $0x10,%esp
 804bc33:	84 c9                	test   %cl,%cl
 804bc35:	0f 84 f6 12 00 00    	je     804cf31 <main+0x39d1>
 804bc3b:	90                   	nop
 804bc3c:	8d 64 24 f0          	lea    -0x10(%esp),%esp
 804bc40:	89 3c 24             	mov    %edi,(%esp)
 804bc43:	89 54 24 04          	mov    %edx,0x4(%esp)
 804bc47:	89 4c 24 08          	mov    %ecx,0x8(%esp)
 804bc4b:	89 44 24 0c          	mov    %eax,0xc(%esp)
 804bc4f:	b9 75 52 00 00       	mov    $0x5275,%ecx
 804bc54:	e8 ef 8c 00 00       	call   8054948 <__afl_maybe_log>
 804bc59:	8b 44 24 0c          	mov    0xc(%esp),%eax
 804bc5d:	8b 4c 24 08          	mov    0x8(%esp),%ecx
 804bc61:	8b 54 24 04          	mov    0x4(%esp),%edx
 804bc65:	8b 3c 24             	mov    (%esp),%edi
 804bc68:	8d 64 24 10          	lea    0x10(%esp),%esp
 804bc6c:	80 3d 0a a3 06 08 00 	cmpb   $0x0,0x806a30a
 804bc73:	0f 84 b8 12 00 00    	je     804cf31 <main+0x39d1>
 804bc79:	8d 76 00             	lea    0x0(%esi),%esi
 804bc7c:	8d 64 24 f0          	lea    -0x10(%esp),%esp
 804bc80:	89 3c 24             	mov    %edi,(%esp)
 804bc83:	89 54 24 04          	mov    %edx,0x4(%esp)
 804bc87:	89 4c 24 08          	mov    %ecx,0x8(%esp)
 804bc8b:	89 44 24 0c          	mov    %eax,0xc(%esp)
 804bc8f:	b9 e8 7e 00 00       	mov    $0x7ee8,%ecx
 804bc94:	e8 af 8c 00 00       	call   8054948 <__afl_maybe_log>
 804bc99:	8b 44 24 0c          	mov    0xc(%esp),%eax
 804bc9d:	8b 4c 24 08          	mov    0x8(%esp),%ecx
 804bca1:	8b 54 24 04          	mov    0x4(%esp),%edx
 804bca5:	8b 3c 24             	mov    (%esp),%edi
 804bca8:	8d 64 24 10          	lea    0x10(%esp),%esp
 804bcac:	83 3d 0c a3 06 08 01 	cmpl   $0x1,0x806a30c
 804bcb3:	0f 84 34 16 00 00    	je     804d2ed <main+0x3d8d>
 804bcb9:	8d 76 00             	lea    0x0(%esi),%esi
 804bcbc:	8d 64 24 f0          	lea    -0x10(%esp),%esp
 804bcc0:	89 3c 24             	mov    %edi,(%esp)
 804bcc3:	89 54 24 04          	mov    %edx,0x4(%esp)
 804bcc7:	89 4c 24 08          	mov    %ecx,0x8(%esp)
 804bccb:	89 44 24 0c          	mov    %eax,0xc(%esp)
 804bccf:	b9 80 3b 00 00       	mov    $0x3b80,%ecx
 804bcd4:	e8 6f 8c 00 00       	call   8054948 <__afl_maybe_log>
 804bcd9:	8b 44 24 0c          	mov    0xc(%esp),%eax
 804bcdd:	8b 4c 24 08          	mov    0x8(%esp),%ecx
 804bce1:	8b 54 24 04          	mov    0x4(%esp),%edx
 804bce5:	8b 3c 24             	mov    (%esp),%edi
 804bce8:	8d 64 24 10          	lea    0x10(%esp),%esp
	report_label_coverage("COR", 251);
 804bcec:	8d 64 24 f0          	lea    -0x10(%esp),%esp
 804bcf0:	89 3c 24             	mov    %edi,(%esp)
 804bcf3:	89 54 24 04          	mov    %edx,0x4(%esp)
 804bcf7:	89 4c 24 08          	mov    %ecx,0x8(%esp)
 804bcfb:	89 44 24 0c          	mov    %eax,0xc(%esp)
 804bcff:	b9 c1 7c 00 00       	mov    $0x7cc1,%ecx
 804bd04:	e8 3f 8c 00 00       	call   8054948 <__afl_maybe_log>
 804bd09:	8b 44 24 0c          	mov    0xc(%esp),%eax
 804bd0d:	8b 4c 24 08          	mov    0x8(%esp),%ecx
 804bd11:	8b 54 24 04          	mov    0x4(%esp),%edx
 804bd15:	8b 3c 24             	mov    (%esp),%edi
 804bd18:	8d 64 24 10          	lea    0x10(%esp),%esp
 804bd1c:	50                   	push   %eax
 804bd1d:	50                   	push   %eax
 804bd1e:	68 fb 00 00 00       	push   $0xfb
 804bd23:	68 13 5b 06 08       	push   $0x8065b13
 804bd28:	88 4d c4             	mov    %cl,-0x3c(%ebp)
 804bd2b:	e8 50 53 00 00       	call   8051080 <report_label_coverage>
 804bd30:	0f b6 4d c4          	movzbl -0x3c(%ebp),%ecx
 804bd34:	83 c4 10             	add    $0x10,%esp
 804bd37:	90                   	nop
}
// COR Label 252
if((output_unique || output_first_repeated) != (output_unique && output_first_repeated))  {
 804bd38:	8d 64 24 f0          	lea    -0x10(%esp),%esp
 804bd3c:	89 3c 24             	mov    %edi,(%esp)
 804bd3f:	89 54 24 04          	mov    %edx,0x4(%esp)
 804bd43:	89 4c 24 08          	mov    %ecx,0x8(%esp)
 804bd47:	89 44 24 0c          	mov    %eax,0xc(%esp)
 804bd4b:	b9 df c5 00 00       	mov    $0xc5df,%ecx
 804bd50:	e8 f3 8b 00 00       	call   8054948 <__afl_maybe_log>
 804bd55:	8b 44 24 0c          	mov    0xc(%esp),%eax
 804bd59:	8b 4c 24 08          	mov    0x8(%esp),%ecx
 804bd5d:	8b 54 24 04          	mov    0x4(%esp),%edx
 804bd61:	8b 3c 24             	mov    (%esp),%edi
 804bd64:	8d 64 24 10          	lea    0x10(%esp),%esp
 804bd68:	84 c9                	test   %cl,%cl
 804bd6a:	0f 85 7d 15 00 00    	jne    804d2ed <main+0x3d8d>
 804bd70:	8d 64 24 f0          	lea    -0x10(%esp),%esp
 804bd74:	89 3c 24             	mov    %edi,(%esp)
 804bd77:	89 54 24 04          	mov    %edx,0x4(%esp)
 804bd7b:	89 4c 24 08          	mov    %ecx,0x8(%esp)
 804bd7f:	89 44 24 0c          	mov    %eax,0xc(%esp)
 804bd83:	b9 0d ac 00 00       	mov    $0xac0d,%ecx
 804bd88:	e8 bb 8b 00 00       	call   8054948 <__afl_maybe_log>
 804bd8d:	8b 44 24 0c          	mov    0xc(%esp),%eax
 804bd91:	8b 4c 24 08          	mov    0x8(%esp),%ecx
 804bd95:	8b 54 24 04          	mov    0x4(%esp),%edx
 804bd99:	8b 3c 24             	mov    (%esp),%edi
 804bd9c:	8d 64 24 10          	lea    0x10(%esp),%esp
 804bda0:	80 3d 0a a3 06 08 00 	cmpb   $0x0,0x806a30a
 804bda7:	0f 85 c3 17 00 00    	jne    804d570 <main+0x4010>
 804bdad:	8d 76 00             	lea    0x0(%esi),%esi
 804bdb0:	8d 64 24 f0          	lea    -0x10(%esp),%esp
 804bdb4:	89 3c 24             	mov    %edi,(%esp)
 804bdb7:	89 54 24 04          	mov    %edx,0x4(%esp)
 804bdbb:	89 4c 24 08          	mov    %ecx,0x8(%esp)
 804bdbf:	89 44 24 0c          	mov    %eax,0xc(%esp)
 804bdc3:	b9 4c 93 00 00       	mov    $0x934c,%ecx
 804bdc8:	e8 7b 8b 00 00       	call   8054948 <__afl_maybe_log>
 804bdcd:	8b 44 24 0c          	mov    0xc(%esp),%eax
 804bdd1:	8b 4c 24 08          	mov    0x8(%esp),%ecx
 804bdd5:	8b 54 24 04          	mov    0x4(%esp),%edx
 804bdd9:	8b 3c 24             	mov    (%esp),%edi
 804bddc:	8d 64 24 10          	lea    0x10(%esp),%esp
	report_label_coverage("COR", 252);
}

// ROR Label 253
if((countmode != count_none) != (countmode == count_none))  {
 804bde0:	8d 64 24 f0          	lea    -0x10(%esp),%esp
 804bde4:	89 3c 24             	mov    %edi,(%esp)
 804bde7:	89 54 24 04          	mov    %edx,0x4(%esp)
 804bdeb:	89 4c 24 08          	mov    %ecx,0x8(%esp)
 804bdef:	89 44 24 0c          	mov    %eax,0xc(%esp)
 804bdf3:	b9 8f 0a 00 00       	mov    $0xa8f,%ecx
 804bdf8:	e8 4b 8b 00 00       	call   8054948 <__afl_maybe_log>
 804bdfd:	8b 44 24 0c          	mov    0xc(%esp),%eax
 804be01:	8b 4c 24 08          	mov    0x8(%esp),%ecx
 804be05:	8b 54 24 04          	mov    0x4(%esp),%edx
 804be09:	8b 3c 24             	mov    (%esp),%edi
 804be0c:	8d 64 24 10          	lea    0x10(%esp),%esp
 804be10:	8b 35 0c a3 06 08    	mov    0x806a30c,%esi
 804be16:	83 ee 01             	sub    $0x1,%esi
 804be19:	0f 95 c2             	setne  %dl
 804be1c:	0f 94 c0             	sete   %al
 804be1f:	38 c2                	cmp    %al,%dl
 804be21:	0f 84 8a 00 00 00    	je     804beb1 <main+0x2951>
 804be27:	90                   	nop
 804be28:	8d 64 24 f0          	lea    -0x10(%esp),%esp
 804be2c:	89 3c 24             	mov    %edi,(%esp)
 804be2f:	89 54 24 04          	mov    %edx,0x4(%esp)
 804be33:	89 4c 24 08          	mov    %ecx,0x8(%esp)
 804be37:	89 44 24 0c          	mov    %eax,0xc(%esp)
 804be3b:	b9 de 97 00 00       	mov    $0x97de,%ecx
 804be40:	e8 03 8b 00 00       	call   8054948 <__afl_maybe_log>
 804be45:	8b 44 24 0c          	mov    0xc(%esp),%eax
 804be49:	8b 4c 24 08          	mov    0x8(%esp),%ecx
 804be4d:	8b 54 24 04          	mov    0x4(%esp),%edx
 804be51:	8b 3c 24             	mov    (%esp),%edi
 804be54:	8d 64 24 10          	lea    0x10(%esp),%esp
	report_label_coverage("ROR", 253);
 804be58:	8d 64 24 f0          	lea    -0x10(%esp),%esp
 804be5c:	89 3c 24             	mov    %edi,(%esp)
 804be5f:	89 54 24 04          	mov    %edx,0x4(%esp)
 804be63:	89 4c 24 08          	mov    %ecx,0x8(%esp)
 804be67:	89 44 24 0c          	mov    %eax,0xc(%esp)
 804be6b:	b9 8c b5 00 00       	mov    $0xb58c,%ecx
 804be70:	e8 d3 8a 00 00       	call   8054948 <__afl_maybe_log>
 804be75:	8b 44 24 0c          	mov    0xc(%esp),%eax
 804be79:	8b 4c 24 08          	mov    0x8(%esp),%ecx
 804be7d:	8b 54 24 04          	mov    0x4(%esp),%edx
 804be81:	8b 3c 24             	mov    (%esp),%edi
 804be84:	8d 64 24 10          	lea    0x10(%esp),%esp
 804be88:	56                   	push   %esi
 804be89:	56                   	push   %esi
 804be8a:	68 fd 00 00 00       	push   $0xfd
 804be8f:	68 17 5b 06 08       	push   $0x8065b17
 804be94:	88 45 bc             	mov    %al,-0x44(%ebp)
 804be97:	88 55 c0             	mov    %dl,-0x40(%ebp)
 804be9a:	88 4d c4             	mov    %cl,-0x3c(%ebp)
 804be9d:	e8 de 51 00 00       	call   8051080 <report_label_coverage>
 804bea2:	0f b6 45 bc          	movzbl -0x44(%ebp),%eax
 804bea6:	0f b6 55 c0          	movzbl -0x40(%ebp),%edx
 804beaa:	83 c4 10             	add    $0x10,%esp
 804bead:	0f b6 4d c4          	movzbl -0x3c(%ebp),%ecx
 804beb1:	8d 76 00             	lea    0x0(%esi),%esi
}

// MCC Label 254
if(output_unique && output_first_repeated && countmode == count_none ) {
 804beb4:	8d 64 24 f0          	lea    -0x10(%esp),%esp
 804beb8:	89 3c 24             	mov    %edi,(%esp)
 804bebb:	89 54 24 04          	mov    %edx,0x4(%esp)
 804bebf:	89 4c 24 08          	mov    %ecx,0x8(%esp)
 804bec3:	89 44 24 0c          	mov    %eax,0xc(%esp)
 804bec7:	b9 c2 23 00 00       	mov    $0x23c2,%ecx
 804becc:	e8 77 8a 00 00       	call   8054948 <__afl_maybe_log>
 804bed1:	8b 44 24 0c          	mov    0xc(%esp),%eax
 804bed5:	8b 4c 24 08          	mov    0x8(%esp),%ecx
 804bed9:	8b 54 24 04          	mov    0x4(%esp),%edx
 804bedd:	8b 3c 24             	mov    (%esp),%edi
 804bee0:	8d 64 24 10          	lea    0x10(%esp),%esp
 804bee4:	84 c9                	test   %cl,%cl
 804bee6:	0f 84 a9 11 00 00    	je     804d095 <main+0x3b35>
 804beec:	8d 64 24 f0          	lea    -0x10(%esp),%esp
 804bef0:	89 3c 24             	mov    %edi,(%esp)
 804bef3:	89 54 24 04          	mov    %edx,0x4(%esp)
 804bef7:	89 4c 24 08          	mov    %ecx,0x8(%esp)
 804befb:	89 44 24 0c          	mov    %eax,0xc(%esp)
 804beff:	b9 94 05 00 00       	mov    $0x594,%ecx
 804bf04:	e8 3f 8a 00 00       	call   8054948 <__afl_maybe_log>
 804bf09:	8b 44 24 0c          	mov    0xc(%esp),%eax
 804bf0d:	8b 4c 24 08          	mov    0x8(%esp),%ecx
 804bf11:	8b 54 24 04          	mov    0x4(%esp),%edx
 804bf15:	8b 3c 24             	mov    (%esp),%edi
 804bf18:	8d 64 24 10          	lea    0x10(%esp),%esp
 804bf1c:	8d 64 24 f0          	lea    -0x10(%esp),%esp
 804bf20:	89 3c 24             	mov    %edi,(%esp)
 804bf23:	89 54 24 04          	mov    %edx,0x4(%esp)
 804bf27:	89 4c 24 08          	mov    %ecx,0x8(%esp)
 804bf2b:	89 44 24 0c          	mov    %eax,0xc(%esp)
 804bf2f:	b9 85 fb 00 00       	mov    $0xfb85,%ecx
 804bf34:	e8 0f 8a 00 00       	call   8054948 <__afl_maybe_log>
 804bf39:	8b 44 24 0c          	mov    0xc(%esp),%eax
 804bf3d:	8b 4c 24 08          	mov    0x8(%esp),%ecx
 804bf41:	8b 54 24 04          	mov    0x4(%esp),%edx
 804bf45:	8b 3c 24             	mov    (%esp),%edi
 804bf48:	8d 64 24 10          	lea    0x10(%esp),%esp
 804bf4c:	0f b6 0d 0a a3 06 08 	movzbl 0x806a30a,%ecx
 804bf53:	89 c3                	mov    %eax,%ebx
 804bf55:	20 cb                	and    %cl,%bl
 804bf57:	88 5d 9d             	mov    %bl,-0x63(%ebp)
 804bf5a:	0f 85 7b 48 00 00    	jne    80507db <main+0x727b>
 804bf60:	8d 64 24 f0          	lea    -0x10(%esp),%esp
 804bf64:	89 3c 24             	mov    %edi,(%esp)
 804bf67:	89 54 24 04          	mov    %edx,0x4(%esp)
 804bf6b:	89 4c 24 08          	mov    %ecx,0x8(%esp)
 804bf6f:	89 44 24 0c          	mov    %eax,0xc(%esp)
 804bf73:	b9 a5 11 00 00       	mov    $0x11a5,%ecx
 804bf78:	e8 cb 89 00 00       	call   8054948 <__afl_maybe_log>
 804bf7d:	8b 44 24 0c          	mov    0xc(%esp),%eax
 804bf81:	8b 4c 24 08          	mov    0x8(%esp),%ecx
 804bf85:	8b 54 24 04          	mov    0x4(%esp),%edx
 804bf89:	8b 3c 24             	mov    (%esp),%edi
 804bf8c:	8d 64 24 10          	lea    0x10(%esp),%esp
	report_label_coverage("MCC", 254);
}
// MCC Label 255
if(output_unique && output_first_repeated && !(countmode == count_none) ) {
 804bf90:	8d 64 24 f0          	lea    -0x10(%esp),%esp
 804bf94:	89 3c 24             	mov    %edi,(%esp)
 804bf97:	89 54 24 04          	mov    %edx,0x4(%esp)
 804bf9b:	89 4c 24 08          	mov    %ecx,0x8(%esp)
 804bf9f:	89 44 24 0c          	mov    %eax,0xc(%esp)
 804bfa3:	b9 d4 ea 00 00       	mov    $0xead4,%ecx
 804bfa8:	e8 9b 89 00 00       	call   8054948 <__afl_maybe_log>
 804bfad:	8b 44 24 0c          	mov    0xc(%esp),%eax
 804bfb1:	8b 4c 24 08          	mov    0x8(%esp),%ecx
 804bfb5:	8b 54 24 04          	mov    0x4(%esp),%edx
 804bfb9:	8b 3c 24             	mov    (%esp),%edi
 804bfbc:	8d 64 24 10          	lea    0x10(%esp),%esp
 804bfc0:	84 d2                	test   %dl,%dl
 804bfc2:	0f 84 8d 00 00 00    	je     804c055 <main+0x2af5>
 804bfc8:	8d 64 24 f0          	lea    -0x10(%esp),%esp
 804bfcc:	89 3c 24             	mov    %edi,(%esp)
 804bfcf:	89 54 24 04          	mov    %edx,0x4(%esp)
 804bfd3:	89 4c 24 08          	mov    %ecx,0x8(%esp)
 804bfd7:	89 44 24 0c          	mov    %eax,0xc(%esp)
 804bfdb:	b9 aa 59 00 00       	mov    $0x59aa,%ecx
 804bfe0:	e8 63 89 00 00       	call   8054948 <__afl_maybe_log>
 804bfe5:	8b 44 24 0c          	mov    0xc(%esp),%eax
 804bfe9:	8b 4c 24 08          	mov    0x8(%esp),%ecx
 804bfed:	8b 54 24 04          	mov    0x4(%esp),%edx
 804bff1:	8b 3c 24             	mov    (%esp),%edi
 804bff4:	8d 64 24 10          	lea    0x10(%esp),%esp
 804bff8:	84 c9                	test   %cl,%cl
 804bffa:	74 59                	je     804c055 <main+0x2af5>
 804bffc:	8d 64 24 f0          	lea    -0x10(%esp),%esp
 804c000:	89 3c 24             	mov    %edi,(%esp)
 804c003:	89 54 24 04          	mov    %edx,0x4(%esp)
 804c007:	89 4c 24 08          	mov    %ecx,0x8(%esp)
 804c00b:	89 44 24 0c          	mov    %eax,0xc(%esp)
 804c00f:	b9 67 6c 00 00       	mov    $0x6c67,%ecx
 804c014:	e8 2f 89 00 00       	call   8054948 <__afl_maybe_log>
 804c019:	8b 44 24 0c          	mov    0xc(%esp),%eax
 804c01d:	8b 4c 24 08          	mov    0x8(%esp),%ecx
 804c021:	8b 54 24 04          	mov    0x4(%esp),%edx
 804c025:	8b 3c 24             	mov    (%esp),%edi
 804c028:	8d 64 24 10          	lea    0x10(%esp),%esp
 804c02c:	88 4d bc             	mov    %cl,-0x44(%ebp)
	report_label_coverage("MCC", 255);
 804c02f:	51                   	push   %ecx
 804c030:	51                   	push   %ecx
 804c031:	68 ff 00 00 00       	push   $0xff
 804c036:	68 1b 5b 06 08       	push   $0x8065b1b
 804c03b:	88 45 c0             	mov    %al,-0x40(%ebp)
 804c03e:	88 55 c4             	mov    %dl,-0x3c(%ebp)
 804c041:	e8 3a 50 00 00       	call   8051080 <report_label_coverage>
 804c046:	0f b6 55 c4          	movzbl -0x3c(%ebp),%edx
 804c04a:	0f b6 45 c0          	movzbl -0x40(%ebp),%eax
 804c04e:	83 c4 10             	add    $0x10,%esp
 804c051:	0f b6 4d bc          	movzbl -0x44(%ebp),%ecx
 804c055:	8d 76 00             	lea    0x0(%esi),%esi
}
// MCC Label 256
if(output_unique && !(output_first_repeated) && countmode == count_none ) {
 804c058:	8d 64 24 f0          	lea    -0x10(%esp),%esp
 804c05c:	89 3c 24             	mov    %edi,(%esp)
 804c05f:	89 54 24 04          	mov    %edx,0x4(%esp)
 804c063:	89 4c 24 08          	mov    %ecx,0x8(%esp)
 804c067:	89 44 24 0c          	mov    %eax,0xc(%esp)
 804c06b:	b9 4f 9d 00 00       	mov    $0x9d4f,%ecx
 804c070:	e8 d3 88 00 00       	call   8054948 <__afl_maybe_log>
 804c075:	8b 44 24 0c          	mov    0xc(%esp),%eax
 804c079:	8b 4c 24 08          	mov    0x8(%esp),%ecx
 804c07d:	8b 54 24 04          	mov    0x4(%esp),%edx
 804c081:	8b 3c 24             	mov    (%esp),%edi
 804c084:	8d 64 24 10          	lea    0x10(%esp),%esp
 804c088:	38 c8                	cmp    %cl,%al
 804c08a:	0f 87 f2 46 00 00    	ja     8050782 <main+0x7222>
 804c090:	8d 64 24 f0          	lea    -0x10(%esp),%esp
 804c094:	89 3c 24             	mov    %edi,(%esp)
 804c097:	89 54 24 04          	mov    %edx,0x4(%esp)
 804c09b:	89 4c 24 08          	mov    %ecx,0x8(%esp)
 804c09f:	89 44 24 0c          	mov    %eax,0xc(%esp)
 804c0a3:	b9 02 eb 00 00       	mov    $0xeb02,%ecx
 804c0a8:	e8 9b 88 00 00       	call   8054948 <__afl_maybe_log>
 804c0ad:	8b 44 24 0c          	mov    0xc(%esp),%eax
 804c0b1:	8b 4c 24 08          	mov    0x8(%esp),%ecx
 804c0b5:	8b 54 24 04          	mov    0x4(%esp),%edx
 804c0b9:	8b 3c 24             	mov    (%esp),%edi
 804c0bc:	8d 64 24 10          	lea    0x10(%esp),%esp
	report_label_coverage("MCC", 256);
}
// MCC Label 257
if(output_unique && !(output_first_repeated) && !(countmode == count_none) ) {
 804c0c0:	8d 64 24 f0          	lea    -0x10(%esp),%esp
 804c0c4:	89 3c 24             	mov    %edi,(%esp)
 804c0c7:	89 54 24 04          	mov    %edx,0x4(%esp)
 804c0cb:	89 4c 24 08          	mov    %ecx,0x8(%esp)
 804c0cf:	89 44 24 0c          	mov    %eax,0xc(%esp)
 804c0d3:	b9 46 bd 00 00       	mov    $0xbd46,%ecx
 804c0d8:	e8 6b 88 00 00       	call   8054948 <__afl_maybe_log>
 804c0dd:	8b 44 24 0c          	mov    0xc(%esp),%eax
 804c0e1:	8b 4c 24 08          	mov    0x8(%esp),%ecx
 804c0e5:	8b 54 24 04          	mov    0x4(%esp),%edx
 804c0e9:	8b 3c 24             	mov    (%esp),%edi
 804c0ec:	8d 64 24 10          	lea    0x10(%esp),%esp
 804c0f0:	38 ca                	cmp    %cl,%dl
 804c0f2:	76 44                	jbe    804c138 <main+0x2bd8>
 804c0f4:	8d 64 24 f0          	lea    -0x10(%esp),%esp
 804c0f8:	89 3c 24             	mov    %edi,(%esp)
 804c0fb:	89 54 24 04          	mov    %edx,0x4(%esp)
 804c0ff:	89 4c 24 08          	mov    %ecx,0x8(%esp)
 804c103:	89 44 24 0c          	mov    %eax,0xc(%esp)
 804c107:	b9 c7 3f 00 00       	mov    $0x3fc7,%ecx
 804c10c:	e8 37 88 00 00       	call   8054948 <__afl_maybe_log>
 804c111:	8b 44 24 0c          	mov    0xc(%esp),%eax
 804c115:	8b 4c 24 08          	mov    0x8(%esp),%ecx
 804c119:	8b 54 24 04          	mov    0x4(%esp),%edx
 804c11d:	8b 3c 24             	mov    (%esp),%edi
 804c120:	8d 64 24 10          	lea    0x10(%esp),%esp
	report_label_coverage("MCC", 257);
 804c124:	50                   	push   %eax
 804c125:	50                   	push   %eax
 804c126:	68 01 01 00 00       	push   $0x101
 804c12b:	68 1b 5b 06 08       	push   $0x8065b1b
 804c130:	e8 4b 4f 00 00       	call   8051080 <report_label_coverage>
 804c135:	83 c4 10             	add    $0x10,%esp
}
// MCC Label 261
if(!(output_unique) && !(output_first_repeated) && !(countmode == count_none) ) {
	report_label_coverage("MCC", 261);
}
if (output_unique && output_first_repeated && countmode == count_none)
 804c138:	8d 64 24 f0          	lea    -0x10(%esp),%esp
 804c13c:	89 3c 24             	mov    %edi,(%esp)
 804c13f:	89 54 24 04          	mov    %edx,0x4(%esp)
 804c143:	89 4c 24 08          	mov    %ecx,0x8(%esp)
 804c147:	89 44 24 0c          	mov    %eax,0xc(%esp)
 804c14b:	b9 21 5b 00 00       	mov    $0x5b21,%ecx
 804c150:	e8 f3 87 00 00       	call   8054948 <__afl_maybe_log>
 804c155:	8b 44 24 0c          	mov    0xc(%esp),%eax
 804c159:	8b 4c 24 08          	mov    0x8(%esp),%ecx
 804c15d:	8b 54 24 04          	mov    0x4(%esp),%edx
 804c161:	8b 3c 24             	mov    (%esp),%edi
 804c164:	8d 64 24 10          	lea    0x10(%esp),%esp
 804c168:	80 7d 9d 00          	cmpb   $0x0,-0x63(%ebp)
 804c16c:	0f 85 bb 18 00 00    	jne    804da2d <main+0x44cd>
 804c172:	66 90                	xchg   %ax,%ax
 804c174:	8d 64 24 f0          	lea    -0x10(%esp),%esp
 804c178:	89 3c 24             	mov    %edi,(%esp)
 804c17b:	89 54 24 04          	mov    %edx,0x4(%esp)
 804c17f:	89 4c 24 08          	mov    %ecx,0x8(%esp)
 804c183:	89 44 24 0c          	mov    %eax,0xc(%esp)
 804c187:	b9 90 88 00 00       	mov    $0x8890,%ecx
 804c18c:	e8 b7 87 00 00       	call   8054948 <__afl_maybe_log>
 804c191:	8b 44 24 0c          	mov    0xc(%esp),%eax
 804c195:	8b 4c 24 08          	mov    0x8(%esp),%ecx
 804c199:	8b 54 24 04          	mov    0x4(%esp),%edx
 804c19d:	8b 3c 24             	mov    (%esp),%edi
 804c1a0:	8d 64 24 10          	lea    0x10(%esp),%esp
      size_t prevlen;
      uintmax_t match_count = 0;
      bool first_delimiter = true;

      {
    struct linebuffer *temp_1 = readlinebuffer_delim(prevline, stdin, delimiter);
 804c1a4:	8d 64 24 f0          	lea    -0x10(%esp),%esp
 804c1a8:	89 3c 24             	mov    %edi,(%esp)
 804c1ab:	89 54 24 04          	mov    %edx,0x4(%esp)
 804c1af:	89 4c 24 08          	mov    %ecx,0x8(%esp)
 804c1b3:	89 44 24 0c          	mov    %eax,0xc(%esp)
 804c1b7:	b9 83 8c 00 00       	mov    $0x8c83,%ecx
 804c1bc:	e8 87 87 00 00       	call   8054948 <__afl_maybe_log>
 804c1c1:	8b 44 24 0c          	mov    0xc(%esp),%eax
 804c1c5:	8b 4c 24 08          	mov    0x8(%esp),%ecx
 804c1c9:	8b 54 24 04          	mov    0x4(%esp),%edx
 804c1cd:	8b 3c 24             	mov    (%esp),%edi
 804c1d0:	8d 64 24 10          	lea    0x10(%esp),%esp
 804c1d4:	0f be 75 9e          	movsbl -0x62(%ebp),%esi
 804c1d8:	8d 7d dc             	lea    -0x24(%ebp),%edi
 804c1db:	51                   	push   %ecx
 804c1dc:	56                   	push   %esi
 804c1dd:	ff 35 d0 a2 06 08    	pushl  0x806a2d0
 804c1e3:	57                   	push   %edi
 804c1e4:	89 75 ac             	mov    %esi,-0x54(%ebp)
 804c1e7:	e8 b4 a7 00 00       	call   80569a0 <readlinebuffer_delim>
if(temp_1 < 0)  {
	report_label_coverage("ABS", 432);
}

// ROR Label 433
if((temp_1 != 0) != (temp_1 == 0))  {
 804c1ec:	83 c4 10             	add    $0x10,%esp
 804c1ef:	85 c0                	test   %eax,%eax
 804c1f1:	0f 94 c2             	sete   %dl
 804c1f4:	0f 95 c0             	setne  %al
 804c1f7:	38 d0                	cmp    %dl,%al
 804c1f9:	74 4c                	je     804c247 <main+0x2ce7>
 804c1fb:	90                   	nop
 804c1fc:	8d 64 24 f0          	lea    -0x10(%esp),%esp
 804c200:	89 3c 24             	mov    %edi,(%esp)
 804c203:	89 54 24 04          	mov    %edx,0x4(%esp)
 804c207:	89 4c 24 08          	mov    %ecx,0x8(%esp)
 804c20b:	89 44 24 0c          	mov    %eax,0xc(%esp)
 804c20f:	b9 e1 24 00 00       	mov    $0x24e1,%ecx
 804c214:	e8 2f 87 00 00       	call   8054948 <__afl_maybe_log>
 804c219:	8b 44 24 0c          	mov    0xc(%esp),%eax
 804c21d:	8b 4c 24 08          	mov    0x8(%esp),%ecx
 804c221:	8b 54 24 04          	mov    0x4(%esp),%edx
 804c225:	8b 3c 24             	mov    (%esp),%edi
 804c228:	8d 64 24 10          	lea    0x10(%esp),%esp
 804c22c:	88 55 c4             	mov    %dl,-0x3c(%ebp)
	report_label_coverage("ROR", 433);
 804c22f:	52                   	push   %edx
 804c230:	52                   	push   %edx
 804c231:	68 b1 01 00 00       	push   $0x1b1
 804c236:	68 17 5b 06 08       	push   $0x8065b17
 804c23b:	e8 40 4e 00 00       	call   8051080 <report_label_coverage>
 804c240:	0f b6 55 c4          	movzbl -0x3c(%ebp),%edx
 804c244:	83 c4 10             	add    $0x10,%esp
 804c247:	90                   	nop
}
if (temp_1 == 0)
 804c248:	8d 64 24 f0          	lea    -0x10(%esp),%esp
 804c24c:	89 3c 24             	mov    %edi,(%esp)
 804c24f:	89 54 24 04          	mov    %edx,0x4(%esp)
 804c253:	89 4c 24 08          	mov    %ecx,0x8(%esp)
 804c257:	89 44 24 0c          	mov    %eax,0xc(%esp)
 804c25b:	b9 85 2d 00 00       	mov    $0x2d85,%ecx
 804c260:	e8 e3 86 00 00       	call   8054948 <__afl_maybe_log>
 804c265:	8b 44 24 0c          	mov    0xc(%esp),%eax
 804c269:	8b 4c 24 08          	mov    0x8(%esp),%ecx
 804c26d:	8b 54 24 04          	mov    0x4(%esp),%edx
 804c271:	8b 3c 24             	mov    (%esp),%edi
 804c274:	8d 64 24 10          	lea    0x10(%esp),%esp
 804c278:	84 d2                	test   %dl,%dl
 804c27a:	0f 85 8d 05 00 00    	jne    804c80d <main+0x32ad>
 804c280:	8d 64 24 f0          	lea    -0x10(%esp),%esp
 804c284:	89 3c 24             	mov    %edi,(%esp)
 804c287:	89 54 24 04          	mov    %edx,0x4(%esp)
 804c28b:	89 4c 24 08          	mov    %ecx,0x8(%esp)
 804c28f:	89 44 24 0c          	mov    %eax,0xc(%esp)
 804c293:	b9 6c 76 00 00       	mov    $0x766c,%ecx
 804c298:	e8 ab 86 00 00       	call   8054948 <__afl_maybe_log>
 804c29d:	8b 44 24 0c          	mov    0xc(%esp),%eax
 804c2a1:	8b 4c 24 08          	mov    0x8(%esp),%ecx
 804c2a5:	8b 54 24 04          	mov    0x4(%esp),%edx
 804c2a9:	8b 3c 24             	mov    (%esp),%edi
 804c2ac:	8d 64 24 10          	lea    0x10(%esp),%esp
        goto closefiles;
}
;
      prevfield = find_field (prevline);
 804c2b0:	8d 55 e4             	lea    -0x1c(%ebp),%edx
 804c2b3:	8d 45 e0             	lea    -0x20(%ebp),%eax
if(stdin < 0)  {
	report_label_coverage("ABS", 246);
}
fadvise (stdin, FADVISE_SEQUENTIAL);

  thisline = &lb1;
 804c2b6:	8d 5d d0             	lea    -0x30(%ebp),%ebx
}
if (temp_1 == 0)
        goto closefiles;
}
;
      prevfield = find_field (prevline);
 804c2b9:	e8 02 4e 00 00       	call   80510c0 <find_field.isra.3>
      prevlen = prevline->length - 1 - (prevfield - prevline->buffer);
 804c2be:	8b 4d e4             	mov    -0x1c(%ebp),%ecx
 804c2c1:	8b 75 e0             	mov    -0x20(%ebp),%esi
}
if (temp_1 == 0)
        goto closefiles;
}
;
      prevfield = find_field (prevline);
 804c2c4:	89 45 bc             	mov    %eax,-0x44(%ebp)
  else
    {
      char *prevfield;
      size_t prevlen;
      uintmax_t match_count = 0;
      bool first_delimiter = true;
 804c2c7:	c6 45 9f 01          	movb   $0x1,-0x61(%ebp)
if (temp_1 == 0)
        goto closefiles;
}
;
      prevfield = find_field (prevline);
      prevlen = prevline->length - 1 - (prevfield - prevline->buffer);
 804c2cb:	29 c1                	sub    %eax,%ecx
	report_label_coverage("ABS", 246);
}
fadvise (stdin, FADVISE_SEQUENTIAL);

  thisline = &lb1;
  prevline = &lb2;
 804c2cd:	8d 45 dc             	lea    -0x24(%ebp),%eax
if (temp_1 == 0)
        goto closefiles;
}
;
      prevfield = find_field (prevline);
      prevlen = prevline->length - 1 - (prevfield - prevline->buffer);
 804c2d0:	8d 7c 0e ff          	lea    -0x1(%esi,%ecx,1),%edi
    }
  else
    {
      char *prevfield;
      size_t prevlen;
      uintmax_t match_count = 0;
 804c2d4:	31 f6                	xor    %esi,%esi
	report_label_coverage("ABS", 246);
}
fadvise (stdin, FADVISE_SEQUENTIAL);

  thisline = &lb1;
  prevline = &lb2;
 804c2d6:	89 45 b0             	mov    %eax,-0x50(%ebp)
if (temp_1 == 0)
        goto closefiles;
}
;
      prevfield = find_field (prevline);
      prevlen = prevline->length - 1 - (prevfield - prevline->buffer);
 804c2d9:	89 7d b8             	mov    %edi,-0x48(%ebp)
    }
  else
    {
      char *prevfield;
      size_t prevlen;
      uintmax_t match_count = 0;
 804c2dc:	31 ff                	xor    %edi,%edi
 804c2de:	66 90                	xchg   %ax,%ax
      prevlen = prevline->length - 1 - (prevfield - prevline->buffer);

      while (1)
    {
        {
            int temp_1 = !(!feof_unlocked(stdin));
 804c2e0:	8b 15 d0 a2 06 08    	mov    0x806a2d0,%edx
            
// ABS Label 434
if(temp_1 < 0)  {
	report_label_coverage("ABS", 434);
}
if (temp_1)
 804c2e6:	f6 02 10             	testb  $0x10,(%edx)
 804c2e9:	0f 85 dd 04 00 00    	jne    804c7cc <main+0x326c>
 804c2ef:	90                   	nop
 804c2f0:	8d 64 24 f0          	lea    -0x10(%esp),%esp
 804c2f4:	89 3c 24             	mov    %edi,(%esp)
 804c2f7:	89 54 24 04          	mov    %edx,0x4(%esp)
 804c2fb:	89 4c 24 08          	mov    %ecx,0x8(%esp)
 804c2ff:	89 44 24 0c          	mov    %eax,0xc(%esp)
 804c303:	b9 f2 71 00 00       	mov    $0x71f2,%ecx
 804c308:	e8 3b 86 00 00       	call   8054948 <__afl_maybe_log>
 804c30d:	8b 44 24 0c          	mov    0xc(%esp),%eax
 804c311:	8b 4c 24 08          	mov    0x8(%esp),%ecx
 804c315:	8b 54 24 04          	mov    0x4(%esp),%edx
 804c319:	8b 3c 24             	mov    (%esp),%edi
 804c31c:	8d 64 24 10          	lea    0x10(%esp),%esp
        {
            _Bool match;
            char *thisfield;
            size_t thislen;
            {
                struct linebuffer *temp_3 = readlinebuffer_delim(thisline, stdin, delimiter);
 804c320:	8d 64 24 f0          	lea    -0x10(%esp),%esp
 804c324:	89 3c 24             	mov    %edi,(%esp)
 804c327:	89 54 24 04          	mov    %edx,0x4(%esp)
 804c32b:	89 4c 24 08          	mov    %ecx,0x8(%esp)
 804c32f:	89 44 24 0c          	mov    %eax,0xc(%esp)
 804c333:	b9 b7 d3 00 00       	mov    $0xd3b7,%ecx
 804c338:	e8 0b 86 00 00       	call   8054948 <__afl_maybe_log>
 804c33d:	8b 44 24 0c          	mov    0xc(%esp),%eax
 804c341:	8b 4c 24 08          	mov    0x8(%esp),%ecx
 804c345:	8b 54 24 04          	mov    0x4(%esp),%edx
 804c349:	8b 3c 24             	mov    (%esp),%edi
 804c34c:	8d 64 24 10          	lea    0x10(%esp),%esp
 804c350:	83 ec 04             	sub    $0x4,%esp
 804c353:	ff 75 ac             	pushl  -0x54(%ebp)
 804c356:	52                   	push   %edx
 804c357:	53                   	push   %ebx
 804c358:	e8 43 a6 00 00       	call   80569a0 <readlinebuffer_delim>
if(temp_3 < 0)  {
	report_label_coverage("ABS", 435);
}

// ROR Label 436
if((temp_3 != 0) != (temp_3 == 0))  {
 804c35d:	83 c4 10             	add    $0x10,%esp
 804c360:	85 c0                	test   %eax,%eax
 804c362:	0f 94 c0             	sete   %al
 804c365:	0f 95 c1             	setne  %cl
 804c368:	38 c1                	cmp    %al,%cl
 804c36a:	74 4c                	je     804c3b8 <main+0x2e58>
 804c36c:	8d 64 24 f0          	lea    -0x10(%esp),%esp
 804c370:	89 3c 24             	mov    %edi,(%esp)
 804c373:	89 54 24 04          	mov    %edx,0x4(%esp)
 804c377:	89 4c 24 08          	mov    %ecx,0x8(%esp)
 804c37b:	89 44 24 0c          	mov    %eax,0xc(%esp)
 804c37f:	b9 43 a7 00 00       	mov    $0xa743,%ecx
 804c384:	e8 bf 85 00 00       	call   8054948 <__afl_maybe_log>
 804c389:	8b 44 24 0c          	mov    0xc(%esp),%eax
 804c38d:	8b 4c 24 08          	mov    0x8(%esp),%ecx
 804c391:	8b 54 24 04          	mov    0x4(%esp),%edx
 804c395:	8b 3c 24             	mov    (%esp),%edi
 804c398:	8d 64 24 10          	lea    0x10(%esp),%esp
	report_label_coverage("ROR", 436);
 804c39c:	83 ec 08             	sub    $0x8,%esp
 804c39f:	88 45 c4             	mov    %al,-0x3c(%ebp)
 804c3a2:	68 b4 01 00 00       	push   $0x1b4
 804c3a7:	68 17 5b 06 08       	push   $0x8065b17
 804c3ac:	e8 cf 4c 00 00       	call   8051080 <report_label_coverage>
 804c3b1:	0f b6 45 c4          	movzbl -0x3c(%ebp),%eax
 804c3b5:	83 c4 10             	add    $0x10,%esp
}
if (temp_3 == 0) {
 804c3b8:	8d 64 24 f0          	lea    -0x10(%esp),%esp
 804c3bc:	89 3c 24             	mov    %edi,(%esp)
 804c3bf:	89 54 24 04          	mov    %edx,0x4(%esp)
 804c3c3:	89 4c 24 08          	mov    %ecx,0x8(%esp)
 804c3c7:	89 44 24 0c          	mov    %eax,0xc(%esp)
 804c3cb:	b9 51 2a 00 00       	mov    $0x2a51,%ecx
 804c3d0:	e8 73 85 00 00       	call   8054948 <__afl_maybe_log>
 804c3d5:	8b 44 24 0c          	mov    0xc(%esp),%eax
 804c3d9:	8b 4c 24 08          	mov    0x8(%esp),%ecx
 804c3dd:	8b 54 24 04          	mov    0x4(%esp),%edx
 804c3e1:	8b 3c 24             	mov    (%esp),%edi
 804c3e4:	8d 64 24 10          	lea    0x10(%esp),%esp
 804c3e8:	84 c0                	test   %al,%al
 804c3ea:	0f 85 49 10 00 00    	jne    804d439 <main+0x3ed9>
 804c3f0:	8d 64 24 f0          	lea    -0x10(%esp),%esp
 804c3f4:	89 3c 24             	mov    %edi,(%esp)
 804c3f7:	89 54 24 04          	mov    %edx,0x4(%esp)
 804c3fb:	89 4c 24 08          	mov    %ecx,0x8(%esp)
 804c3ff:	89 44 24 0c          	mov    %eax,0xc(%esp)
 804c403:	b9 1f 26 00 00       	mov    $0x261f,%ecx
 804c408:	e8 3b 85 00 00       	call   8054948 <__afl_maybe_log>
 804c40d:	8b 44 24 0c          	mov    0xc(%esp),%eax
 804c411:	8b 4c 24 08          	mov    0x8(%esp),%ecx
 804c415:	8b 54 24 04          	mov    0x4(%esp),%edx
 804c419:	8b 3c 24             	mov    (%esp),%edi
 804c41c:	8d 64 24 10          	lea    0x10(%esp),%esp
 804c420:	8d 53 08             	lea    0x8(%ebx),%edx
 804c423:	8d 43 04             	lea    0x4(%ebx),%eax
                            goto closefiles;
                    }
                    break;
                }
            }
            thisfield = find_field(thisline);
 804c426:	e8 95 4c 00 00       	call   80510c0 <find_field.isra.3>
 804c42b:	89 c1                	mov    %eax,%ecx
            thislen = thisline->length - 1 - (thisfield - thisline->buffer);
 804c42d:	8b 43 08             	mov    0x8(%ebx),%eax
 804c430:	8b 53 04             	mov    0x4(%ebx),%edx
 804c433:	89 4d c4             	mov    %ecx,-0x3c(%ebp)
            match = !different(thisfield, prevfield, thislen, prevlen);
 804c436:	83 ec 0c             	sub    $0xc,%esp
 804c439:	ff 75 b8             	pushl  -0x48(%ebp)
                    }
                    break;
                }
            }
            thisfield = find_field(thisline);
            thislen = thisline->length - 1 - (thisfield - thisline->buffer);
 804c43c:	29 c8                	sub    %ecx,%eax
 804c43e:	8d 4c 02 ff          	lea    -0x1(%edx,%eax,1),%ecx
            match = !different(thisfield, prevfield, thislen, prevlen);
 804c442:	8b 55 bc             	mov    -0x44(%ebp),%edx
 804c445:	8b 45 c4             	mov    -0x3c(%ebp),%eax
                    }
                    break;
                }
            }
            thisfield = find_field(thisline);
            thislen = thisline->length - 1 - (thisfield - thisline->buffer);
 804c448:	89 4d b4             	mov    %ecx,-0x4c(%ebp)
            match = !different(thisfield, prevfield, thislen, prevlen);
 804c44b:	e8 40 6c 00 00       	call   8053090 <different>
 804c450:	83 f0 01             	xor    $0x1,%eax
            match_count += match;
 804c453:	31 d2                	xor    %edx,%edx
                    break;
                }
            }
            thisfield = find_field(thisline);
            thislen = thisline->length - 1 - (thisfield - thisline->buffer);
            match = !different(thisfield, prevfield, thislen, prevlen);
 804c455:	88 45 c0             	mov    %al,-0x40(%ebp)
            match_count += match;
 804c458:	0f b6 c0             	movzbl %al,%eax
 804c45b:	01 c6                	add    %eax,%esi
 804c45d:	89 45 a8             	mov    %eax,-0x58(%ebp)
 804c460:	11 d7                	adc    %edx,%edi
if(match_count < 0)  {
	report_label_coverage("ABS", 438);
}

// ROR Label 439
if((match_count != (18446744073709551615UL)) != (match_count == (18446744073709551615UL)))  {
 804c462:	89 f1                	mov    %esi,%ecx
 804c464:	83 c4 10             	add    $0x10,%esp
 804c467:	21 f9                	and    %edi,%ecx
 804c469:	83 f9 ff             	cmp    $0xffffffff,%ecx
 804c46c:	0f 94 c0             	sete   %al
 804c46f:	0f 95 c2             	setne  %dl
 804c472:	38 c2                	cmp    %al,%dl
 804c474:	74 4e                	je     804c4c4 <main+0x2f64>
 804c476:	66 90                	xchg   %ax,%ax
 804c478:	8d 64 24 f0          	lea    -0x10(%esp),%esp
 804c47c:	89 3c 24             	mov    %edi,(%esp)
 804c47f:	89 54 24 04          	mov    %edx,0x4(%esp)
 804c483:	89 4c 24 08          	mov    %ecx,0x8(%esp)
 804c487:	89 44 24 0c          	mov    %eax,0xc(%esp)
 804c48b:	b9 dc 81 00 00       	mov    $0x81dc,%ecx
 804c490:	e8 b3 84 00 00       	call   8054948 <__afl_maybe_log>
 804c495:	8b 44 24 0c          	mov    0xc(%esp),%eax
 804c499:	8b 4c 24 08          	mov    0x8(%esp),%ecx
 804c49d:	8b 54 24 04          	mov    0x4(%esp),%edx
 804c4a1:	8b 3c 24             	mov    (%esp),%edi
 804c4a4:	8d 64 24 10          	lea    0x10(%esp),%esp
	report_label_coverage("ROR", 439);
 804c4a8:	83 ec 08             	sub    $0x8,%esp
 804c4ab:	88 45 a4             	mov    %al,-0x5c(%ebp)
 804c4ae:	68 b7 01 00 00       	push   $0x1b7
 804c4b3:	68 17 5b 06 08       	push   $0x8065b17
 804c4b8:	e8 c3 4b 00 00       	call   8051080 <report_label_coverage>
 804c4bd:	0f b6 45 a4          	movzbl -0x5c(%ebp),%eax
 804c4c1:	83 c4 10             	add    $0x10,%esp
}
if (match_count == (18446744073709551615UL)) {
 804c4c4:	8d 64 24 f0          	lea    -0x10(%esp),%esp
 804c4c8:	89 3c 24             	mov    %edi,(%esp)
 804c4cb:	89 54 24 04          	mov    %edx,0x4(%esp)
 804c4cf:	89 4c 24 08          	mov    %ecx,0x8(%esp)
 804c4d3:	89 44 24 0c          	mov    %eax,0xc(%esp)
 804c4d7:	b9 e5 ed 00 00       	mov    $0xede5,%ecx
 804c4dc:	e8 67 84 00 00       	call   8054948 <__afl_maybe_log>
 804c4e1:	8b 44 24 0c          	mov    0xc(%esp),%eax
 804c4e5:	8b 4c 24 08          	mov    0x8(%esp),%ecx
 804c4e9:	8b 54 24 04          	mov    0x4(%esp),%edx
 804c4ed:	8b 3c 24             	mov    (%esp),%edi
 804c4f0:	8d 64 24 10          	lea    0x10(%esp),%esp
 804c4f4:	84 c0                	test   %al,%al
 804c4f6:	0f 85 b4 05 00 00    	jne    804cab0 <main+0x3550>
 804c4fc:	8d 64 24 f0          	lea    -0x10(%esp),%esp
 804c500:	89 3c 24             	mov    %edi,(%esp)
 804c503:	89 54 24 04          	mov    %edx,0x4(%esp)
 804c507:	89 4c 24 08          	mov    %ecx,0x8(%esp)
 804c50b:	89 44 24 0c          	mov    %eax,0xc(%esp)
 804c50f:	b9 4d 8b 00 00       	mov    $0x8b4d,%ecx
 804c514:	e8 2f 84 00 00       	call   8054948 <__afl_maybe_log>
 804c519:	8b 44 24 0c          	mov    0xc(%esp),%eax
 804c51d:	8b 4c 24 08          	mov    0x8(%esp),%ecx
 804c521:	8b 54 24 04          	mov    0x4(%esp),%edx
 804c525:	8b 3c 24             	mov    (%esp),%edi
 804c528:	8d 64 24 10          	lea    0x10(%esp),%esp
                    error(1, 0, gettext("too many repeated lines"));
                match_count--;
            }
            
// ROR Label 440
if((delimit_groups == DM_NONE) != (delimit_groups != DM_NONE))  {
 804c52c:	8d 64 24 f0          	lea    -0x10(%esp),%esp
 804c530:	89 3c 24             	mov    %edi,(%esp)
 804c533:	89 54 24 04          	mov    %edx,0x4(%esp)
 804c537:	89 4c 24 08          	mov    %ecx,0x8(%esp)
 804c53b:	89 44 24 0c          	mov    %eax,0xc(%esp)
 804c53f:	b9 b4 db 00 00       	mov    $0xdbb4,%ecx
 804c544:	e8 ff 83 00 00       	call   8054948 <__afl_maybe_log>
 804c549:	8b 44 24 0c          	mov    0xc(%esp),%eax
 804c54d:	8b 4c 24 08          	mov    0x8(%esp),%ecx
 804c551:	8b 54 24 04          	mov    0x4(%esp),%edx
 804c555:	8b 3c 24             	mov    (%esp),%edi
 804c558:	8d 64 24 10          	lea    0x10(%esp),%esp
 804c55c:	8b 0d 04 a3 06 08    	mov    0x806a304,%ecx
 804c562:	85 c9                	test   %ecx,%ecx
 804c564:	0f 95 c0             	setne  %al
 804c567:	0f 94 c2             	sete   %dl
 804c56a:	38 c2                	cmp    %al,%dl
 804c56c:	74 54                	je     804c5c2 <main+0x3062>
 804c56e:	66 90                	xchg   %ax,%ax
 804c570:	8d 64 24 f0          	lea    -0x10(%esp),%esp
 804c574:	89 3c 24             	mov    %edi,(%esp)
 804c577:	89 54 24 04          	mov    %edx,0x4(%esp)
 804c57b:	89 4c 24 08          	mov    %ecx,0x8(%esp)
 804c57f:	89 44 24 0c          	mov    %eax,0xc(%esp)
 804c583:	b9 e8 f9 00 00       	mov    $0xf9e8,%ecx
 804c588:	e8 bb 83 00 00       	call   8054948 <__afl_maybe_log>
 804c58d:	8b 44 24 0c          	mov    0xc(%esp),%eax
 804c591:	8b 4c 24 08          	mov    0x8(%esp),%ecx
 804c595:	8b 54 24 04          	mov    0x4(%esp),%edx
 804c599:	8b 3c 24             	mov    (%esp),%edi
 804c59c:	8d 64 24 10          	lea    0x10(%esp),%esp
	report_label_coverage("ROR", 440);
 804c5a0:	83 ec 08             	sub    $0x8,%esp
 804c5a3:	88 45 a0             	mov    %al,-0x60(%ebp)
 804c5a6:	89 4d a4             	mov    %ecx,-0x5c(%ebp)
 804c5a9:	68 b8 01 00 00       	push   $0x1b8
 804c5ae:	68 17 5b 06 08       	push   $0x8065b17
 804c5b3:	e8 c8 4a 00 00       	call   8051080 <report_label_coverage>
 804c5b8:	0f b6 45 a0          	movzbl -0x60(%ebp),%eax
 804c5bc:	8b 4d a4             	mov    -0x5c(%ebp),%ecx
 804c5bf:	83 c4 10             	add    $0x10,%esp
 804c5c2:	66 90                	xchg   %ax,%ax
}
if (delimit_groups != DM_NONE) {
 804c5c4:	8d 64 24 f0          	lea    -0x10(%esp),%esp
 804c5c8:	89 3c 24             	mov    %edi,(%esp)
 804c5cb:	89 54 24 04          	mov    %edx,0x4(%esp)
 804c5cf:	89 4c 24 08          	mov    %ecx,0x8(%esp)
 804c5d3:	89 44 24 0c          	mov    %eax,0xc(%esp)
 804c5d7:	b9 31 7d 00 00       	mov    $0x7d31,%ecx
 804c5dc:	e8 67 83 00 00       	call   8054948 <__afl_maybe_log>
 804c5e1:	8b 44 24 0c          	mov    0xc(%esp),%eax
 804c5e5:	8b 4c 24 08          	mov    0x8(%esp),%ecx
 804c5e9:	8b 54 24 04          	mov    0x4(%esp),%edx
 804c5ed:	8b 3c 24             	mov    (%esp),%edi
 804c5f0:	8d 64 24 10          	lea    0x10(%esp),%esp
 804c5f4:	84 c0                	test   %al,%al
 804c5f6:	0f 84 ec 03 00 00    	je     804c9e8 <main+0x3488>
 804c5fc:	8d 64 24 f0          	lea    -0x10(%esp),%esp
 804c600:	89 3c 24             	mov    %edi,(%esp)
 804c603:	89 54 24 04          	mov    %edx,0x4(%esp)
 804c607:	89 4c 24 08          	mov    %ecx,0x8(%esp)
 804c60b:	89 44 24 0c          	mov    %eax,0xc(%esp)
 804c60f:	b9 4b 3b 00 00       	mov    $0x3b4b,%ecx
 804c614:	e8 2f 83 00 00       	call   8054948 <__afl_maybe_log>
 804c619:	8b 44 24 0c          	mov    0xc(%esp),%eax
 804c61d:	8b 4c 24 08          	mov    0x8(%esp),%ecx
 804c621:	8b 54 24 04          	mov    0x4(%esp),%edx
 804c625:	8b 3c 24             	mov    (%esp),%edi
 804c628:	8d 64 24 10          	lea    0x10(%esp),%esp
                if (!match) {
 804c62c:	80 7d c0 00          	cmpb   $0x0,-0x40(%ebp)
 804c630:	0f 85 ba 04 00 00    	jne    804caf0 <main+0x3590>
 804c636:	66 90                	xchg   %ax,%ax
 804c638:	8d 64 24 f0          	lea    -0x10(%esp),%esp
 804c63c:	89 3c 24             	mov    %edi,(%esp)
 804c63f:	89 54 24 04          	mov    %edx,0x4(%esp)
 804c643:	89 4c 24 08          	mov    %ecx,0x8(%esp)
 804c647:	89 44 24 0c          	mov    %eax,0xc(%esp)
 804c64b:	b9 7a 84 00 00       	mov    $0x847a,%ecx
 804c650:	e8 f3 82 00 00       	call   8054948 <__afl_maybe_log>
 804c655:	8b 44 24 0c          	mov    0xc(%esp),%eax
 804c659:	8b 4c 24 08          	mov    0x8(%esp),%ecx
 804c65d:	8b 54 24 04          	mov    0x4(%esp),%edx
 804c661:	8b 3c 24             	mov    (%esp),%edi
 804c664:	8d 64 24 10          	lea    0x10(%esp),%esp
// ABS Label 441
if(match_count < 0)  {
	report_label_coverage("ABS", 441);
}
if (match_count)
                        first_delimiter = 0;
 804c668:	0f b6 4d 9f          	movzbl -0x61(%ebp),%ecx
 804c66c:	89 fa                	mov    %edi,%edx
 804c66e:	b8 00 00 00 00       	mov    $0x0,%eax
 804c673:	09 f2                	or     %esi,%edx
 804c675:	0f 45 c8             	cmovne %eax,%ecx
 804c678:	88 4d 9f             	mov    %cl,-0x61(%ebp)
 804c67b:	90                   	nop
                };}

            }
            
// COR Label 453
if((!match && output_later_repeated) != (!match || output_later_repeated))  {
 804c67c:	8d 64 24 f0          	lea    -0x10(%esp),%esp
 804c680:	89 3c 24             	mov    %edi,(%esp)
 804c683:	89 54 24 04          	mov    %edx,0x4(%esp)
 804c687:	89 4c 24 08          	mov    %ecx,0x8(%esp)
 804c68b:	89 44 24 0c          	mov    %eax,0xc(%esp)
 804c68f:	b9 25 cb 00 00       	mov    $0xcb25,%ecx
 804c694:	e8 af 82 00 00       	call   8054948 <__afl_maybe_log>
 804c699:	8b 44 24 0c          	mov    0xc(%esp),%eax
 804c69d:	8b 4c 24 08          	mov    0x8(%esp),%ecx
 804c6a1:	8b 54 24 04          	mov    0x4(%esp),%edx
 804c6a5:	8b 3c 24             	mov    (%esp),%edi
 804c6a8:	8d 64 24 10          	lea    0x10(%esp),%esp
 804c6ac:	80 3d 09 a3 06 08 00 	cmpb   $0x0,0x806a309
 804c6b3:	0f 84 07 04 00 00    	je     804cac0 <main+0x3560>
 804c6b9:	8d 76 00             	lea    0x0(%esi),%esi
 804c6bc:	8d 64 24 f0          	lea    -0x10(%esp),%esp
 804c6c0:	89 3c 24             	mov    %edi,(%esp)
 804c6c3:	89 54 24 04          	mov    %edx,0x4(%esp)
 804c6c7:	89 4c 24 08          	mov    %ecx,0x8(%esp)
 804c6cb:	89 44 24 0c          	mov    %eax,0xc(%esp)
 804c6cf:	b9 c7 f3 00 00       	mov    $0xf3c7,%ecx
 804c6d4:	e8 6f 82 00 00       	call   8054948 <__afl_maybe_log>
 804c6d9:	8b 44 24 0c          	mov    0xc(%esp),%eax
 804c6dd:	8b 4c 24 08          	mov    0x8(%esp),%ecx
 804c6e1:	8b 54 24 04          	mov    0x4(%esp),%edx
 804c6e5:	8b 3c 24             	mov    (%esp),%edi
 804c6e8:	8d 64 24 10          	lea    0x10(%esp),%esp
	report_label_coverage("COR", 453);
}

// MCC Label 454
if(!match && output_later_repeated ) {
	report_label_coverage("MCC", 454);
 804c6ec:	8d 64 24 f0          	lea    -0x10(%esp),%esp
 804c6f0:	89 3c 24             	mov    %edi,(%esp)
 804c6f3:	89 54 24 04          	mov    %edx,0x4(%esp)
 804c6f7:	89 4c 24 08          	mov    %ecx,0x8(%esp)
 804c6fb:	89 44 24 0c          	mov    %eax,0xc(%esp)
 804c6ff:	b9 2f 8f 00 00       	mov    $0x8f2f,%ecx
 804c704:	e8 3f 82 00 00       	call   8054948 <__afl_maybe_log>
 804c709:	8b 44 24 0c          	mov    0xc(%esp),%eax
 804c70d:	8b 4c 24 08          	mov    0x8(%esp),%ecx
 804c711:	8b 54 24 04          	mov    0x4(%esp),%edx
 804c715:	8b 3c 24             	mov    (%esp),%edi
 804c718:	8d 64 24 10          	lea    0x10(%esp),%esp
 804c71c:	50                   	push   %eax
 804c71d:	50                   	push   %eax
 804c71e:	68 c6 01 00 00       	push   $0x1c6
 804c723:	68 1b 5b 06 08       	push   $0x8065b1b
 804c728:	e8 53 49 00 00       	call   8051080 <report_label_coverage>
 804c72d:	83 c4 10             	add    $0x10,%esp

// ABS Label 459
if(match_count < 0)  {
	report_label_coverage("ABS", 459);
}
writeline(prevline, match, match_count);
 804c730:	8d 64 24 f0          	lea    -0x10(%esp),%esp
 804c734:	89 3c 24             	mov    %edi,(%esp)
 804c737:	89 54 24 04          	mov    %edx,0x4(%esp)
 804c73b:	89 4c 24 08          	mov    %ecx,0x8(%esp)
 804c73f:	89 44 24 0c          	mov    %eax,0xc(%esp)
 804c743:	b9 ad ba 00 00       	mov    $0xbaad,%ecx
 804c748:	e8 fb 81 00 00       	call   8054948 <__afl_maybe_log>
 804c74d:	8b 44 24 0c          	mov    0xc(%esp),%eax
 804c751:	8b 4c 24 08          	mov    0x8(%esp),%ecx
 804c755:	8b 54 24 04          	mov    0x4(%esp),%edx
 804c759:	8b 3c 24             	mov    (%esp),%edi
 804c75c:	8d 64 24 10          	lea    0x10(%esp),%esp
 804c760:	83 ec 08             	sub    $0x8,%esp
 804c763:	31 d2                	xor    %edx,%edx
 804c765:	57                   	push   %edi
 804c766:	56                   	push   %esi
 804c767:	8b 75 b0             	mov    -0x50(%ebp),%esi
 804c76a:	89 f0                	mov    %esi,%eax
 804c76c:	e8 5f 6e 00 00       	call   80535d0 <writeline>
                    _tmp = (prevline);
                    (prevline) = (thisline);
                    (thisline) = _tmp;
                } while (0);;
                prevfield = thisfield;
                prevlen = thislen;
 804c771:	8b 7d b4             	mov    -0x4c(%ebp),%edi
      prevlen = prevline->length - 1 - (prevfield - prevline->buffer);

      while (1)
    {
        {
            int temp_1 = !(!feof_unlocked(stdin));
 804c774:	8b 15 d0 a2 06 08    	mov    0x806a2d0,%edx

// ABS Label 459
if(match_count < 0)  {
	report_label_coverage("ABS", 459);
}
writeline(prevline, match, match_count);
 804c77a:	89 d8                	mov    %ebx,%eax
 804c77c:	83 c4 10             	add    $0x10,%esp
 804c77f:	89 f3                	mov    %esi,%ebx
                    (thisline) = _tmp;
                } while (0);;
                prevfield = thisfield;
                prevlen = thislen;
                if (!match)
                    match_count = 0;
 804c781:	31 f6                	xor    %esi,%esi
                    struct linebuffer *_tmp;
                    _tmp = (prevline);
                    (prevline) = (thisline);
                    (thisline) = _tmp;
                } while (0);;
                prevfield = thisfield;
 804c783:	8b 4d c4             	mov    -0x3c(%ebp),%ecx

// ABS Label 459
if(match_count < 0)  {
	report_label_coverage("ABS", 459);
}
writeline(prevline, match, match_count);
 804c786:	89 45 b0             	mov    %eax,-0x50(%ebp)
                    _tmp = (prevline);
                    (prevline) = (thisline);
                    (thisline) = _tmp;
                } while (0);;
                prevfield = thisfield;
                prevlen = thislen;
 804c789:	89 7d b8             	mov    %edi,-0x48(%ebp)
                if (!match)
                    match_count = 0;
 804c78c:	31 ff                	xor    %edi,%edi
            
// ABS Label 434
if(temp_1 < 0)  {
	report_label_coverage("ABS", 434);
}
if (temp_1)
 804c78e:	f6 02 10             	testb  $0x10,(%edx)
                    struct linebuffer *_tmp;
                    _tmp = (prevline);
                    (prevline) = (thisline);
                    (thisline) = _tmp;
                } while (0);;
                prevfield = thisfield;
 804c791:	89 4d bc             	mov    %ecx,-0x44(%ebp)
            
// ABS Label 434
if(temp_1 < 0)  {
	report_label_coverage("ABS", 434);
}
if (temp_1)
 804c794:	0f 84 86 fb ff ff    	je     804c320 <main+0x2dc0>
 804c79a:	66 90                	xchg   %ax,%ax
 804c79c:	8d 64 24 f0          	lea    -0x10(%esp),%esp
 804c7a0:	89 3c 24             	mov    %edi,(%esp)
 804c7a3:	89 54 24 04          	mov    %edx,0x4(%esp)
 804c7a7:	89 4c 24 08          	mov    %ecx,0x8(%esp)
 804c7ab:	89 44 24 0c          	mov    %eax,0xc(%esp)
 804c7af:	b9 60 36 00 00       	mov    $0x3660,%ecx
 804c7b4:	e8 8f 81 00 00       	call   8054948 <__afl_maybe_log>
 804c7b9:	8b 44 24 0c          	mov    0xc(%esp),%eax
 804c7bd:	8b 4c 24 08          	mov    0x8(%esp),%ecx
 804c7c1:	8b 54 24 04          	mov    0x4(%esp),%edx
 804c7c5:	8b 3c 24             	mov    (%esp),%edi
 804c7c8:	8d 64 24 10          	lea    0x10(%esp),%esp
      
// ABS Label 431
if(match_count < 0)  {
	report_label_coverage("ABS", 431);
}
writeline (prevline, false, match_count);
 804c7cc:	8d 64 24 f0          	lea    -0x10(%esp),%esp
 804c7d0:	89 3c 24             	mov    %edi,(%esp)
 804c7d3:	89 54 24 04          	mov    %edx,0x4(%esp)
 804c7d7:	89 4c 24 08          	mov    %ecx,0x8(%esp)
 804c7db:	89 44 24 0c          	mov    %eax,0xc(%esp)
 804c7df:	b9 9e 1c 00 00       	mov    $0x1c9e,%ecx
 804c7e4:	e8 5f 81 00 00       	call   8054948 <__afl_maybe_log>
 804c7e9:	8b 44 24 0c          	mov    0xc(%esp),%eax
 804c7ed:	8b 4c 24 08          	mov    0x8(%esp),%ecx
 804c7f1:	8b 54 24 04          	mov    0x4(%esp),%edx
 804c7f5:	8b 3c 24             	mov    (%esp),%edi
 804c7f8:	8d 64 24 10          	lea    0x10(%esp),%esp
 804c7fc:	50                   	push   %eax
 804c7fd:	50                   	push   %eax
 804c7fe:	31 d2                	xor    %edx,%edx
 804c800:	8b 45 b0             	mov    -0x50(%ebp),%eax
 804c803:	57                   	push   %edi
 804c804:	56                   	push   %esi
 804c805:	e8 c6 6d 00 00       	call   80535d0 <writeline>
 804c80a:	83 c4 10             	add    $0x10,%esp
 804c80d:	8d 76 00             	lea    0x0(%esi),%esi
    }

 closefiles:
  {
    int temp_2 = ferror_unlocked(stdin);
 804c810:	8d 64 24 f0          	lea    -0x10(%esp),%esp
 804c814:	89 3c 24             	mov    %edi,(%esp)
 804c817:	89 54 24 04          	mov    %edx,0x4(%esp)
 804c81b:	89 4c 24 08          	mov    %ecx,0x8(%esp)
 804c81f:	89 44 24 0c          	mov    %eax,0xc(%esp)
 804c823:	b9 7e 46 00 00       	mov    $0x467e,%ecx
 804c828:	e8 1b 81 00 00       	call   8054948 <__afl_maybe_log>
 804c82d:	8b 44 24 0c          	mov    0xc(%esp),%eax
 804c831:	8b 4c 24 08          	mov    0x8(%esp),%ecx
 804c835:	8b 54 24 04          	mov    0x4(%esp),%edx
 804c839:	8b 3c 24             	mov    (%esp),%edi
 804c83c:	8d 64 24 10          	lea    0x10(%esp),%esp
 804c840:	8b 1d d0 a2 06 08    	mov    0x806a2d0,%ebx
    
// ABS Label 460
if(temp_2 < 0)  {
	report_label_coverage("ABS", 460);
}
if (temp_2)
 804c846:	f6 03 20             	testb  $0x20,(%ebx)
 804c849:	0f 85 f1 00 00 00    	jne    804c940 <main+0x33e0>
 804c84f:	90                   	nop
 804c850:	8d 64 24 f0          	lea    -0x10(%esp),%esp
 804c854:	89 3c 24             	mov    %edi,(%esp)
 804c857:	89 54 24 04          	mov    %edx,0x4(%esp)
 804c85b:	89 4c 24 08          	mov    %ecx,0x8(%esp)
 804c85f:	89 44 24 0c          	mov    %eax,0xc(%esp)
 804c863:	b9 95 63 00 00       	mov    $0x6395,%ecx
 804c868:	e8 db 80 00 00       	call   8054948 <__afl_maybe_log>
 804c86d:	8b 44 24 0c          	mov    0xc(%esp),%eax
 804c871:	8b 4c 24 08          	mov    0x8(%esp),%ecx
 804c875:	8b 54 24 04          	mov    0x4(%esp),%edx
 804c879:	8b 3c 24             	mov    (%esp),%edi
 804c87c:	8d 64 24 10          	lea    0x10(%esp),%esp
        goto label_2;
    else {
        int temp_1 = rpl_fclose(stdin);
 804c880:	83 ec 0c             	sub    $0xc,%esp
 804c883:	53                   	push   %ebx
 804c884:	e8 17 5c 01 00       	call   80624a0 <rpl_fclose>
        
// ABS Label 461
if(temp_1 < 0)  {
 804c889:	83 c4 10             	add    $0x10,%esp
 804c88c:	85 c0                	test   %eax,%eax
 804c88e:	0f 88 01 3d 00 00    	js     8050595 <main+0x7035>
 804c894:	8d 64 24 f0          	lea    -0x10(%esp),%esp
 804c898:	89 3c 24             	mov    %edi,(%esp)
 804c89b:	89 54 24 04          	mov    %edx,0x4(%esp)
 804c89f:	89 4c 24 08          	mov    %ecx,0x8(%esp)
 804c8a3:	89 44 24 0c          	mov    %eax,0xc(%esp)
 804c8a7:	b9 c5 10 00 00       	mov    $0x10c5,%ecx
 804c8ac:	e8 97 80 00 00       	call   8054948 <__afl_maybe_log>
 804c8b1:	8b 44 24 0c          	mov    0xc(%esp),%eax
 804c8b5:	8b 4c 24 08          	mov    0x8(%esp),%ecx
 804c8b9:	8b 54 24 04          	mov    0x4(%esp),%edx
 804c8bd:	8b 3c 24             	mov    (%esp),%edi
 804c8c0:	8d 64 24 10          	lea    0x10(%esp),%esp
	report_label_coverage("ABS", 461);
}

// ROR Label 462
if((temp_1 == 0) != (temp_1 != 0))  {
 804c8c4:	0f 95 c3             	setne  %bl
 804c8c7:	90                   	nop
	report_label_coverage("ROR", 462);
 804c8c8:	8d 64 24 f0          	lea    -0x10(%esp),%esp
 804c8cc:	89 3c 24             	mov    %edi,(%esp)
 804c8cf:	89 54 24 04          	mov    %edx,0x4(%esp)
 804c8d3:	89 4c 24 08          	mov    %ecx,0x8(%esp)
 804c8d7:	89 44 24 0c          	mov    %eax,0xc(%esp)
 804c8db:	b9 46 64 00 00       	mov    $0x6446,%ecx
 804c8e0:	e8 63 80 00 00       	call   8054948 <__afl_maybe_log>
 804c8e5:	8b 44 24 0c          	mov    0xc(%esp),%eax
 804c8e9:	8b 4c 24 08          	mov    0x8(%esp),%ecx
 804c8ed:	8b 54 24 04          	mov    0x4(%esp),%edx
 804c8f1:	8b 3c 24             	mov    (%esp),%edi
 804c8f4:	8d 64 24 10          	lea    0x10(%esp),%esp
 804c8f8:	56                   	push   %esi
 804c8f9:	56                   	push   %esi
 804c8fa:	68 ce 01 00 00       	push   $0x1ce
 804c8ff:	68 17 5b 06 08       	push   $0x8065b17
 804c904:	e8 77 47 00 00       	call   8051080 <report_label_coverage>
 804c909:	83 c4 10             	add    $0x10,%esp
}
if (temp_1 != 0)
 804c90c:	84 db                	test   %bl,%bl
 804c90e:	74 7f                	je     804c98f <main+0x342f>
 804c910:	8d 64 24 f0          	lea    -0x10(%esp),%esp
 804c914:	89 3c 24             	mov    %edi,(%esp)
 804c917:	89 54 24 04          	mov    %edx,0x4(%esp)
 804c91b:	89 4c 24 08          	mov    %ecx,0x8(%esp)
 804c91f:	89 44 24 0c          	mov    %eax,0xc(%esp)
 804c923:	b9 41 f0 00 00       	mov    $0xf041,%ecx
 804c928:	e8 1b 80 00 00       	call   8054948 <__afl_maybe_log>
 804c92d:	8b 44 24 0c          	mov    0xc(%esp),%eax
 804c931:	8b 4c 24 08          	mov    0x8(%esp),%ecx
 804c935:	8b 54 24 04          	mov    0x4(%esp),%edx
 804c939:	8b 3c 24             	mov    (%esp),%edi
 804c93c:	8d 64 24 10          	lea    0x10(%esp),%esp
          label_2:
            error(1, 0, gettext("error reading %s"), infile);
 804c940:	8d 64 24 f0          	lea    -0x10(%esp),%esp
 804c944:	89 3c 24             	mov    %edi,(%esp)
 804c947:	89 54 24 04          	mov    %edx,0x4(%esp)
 804c94b:	89 4c 24 08          	mov    %ecx,0x8(%esp)
 804c94f:	89 44 24 0c          	mov    %eax,0xc(%esp)
 804c953:	b9 b4 90 00 00       	mov    $0x90b4,%ecx
 804c958:	e8 eb 7f 00 00       	call   8054948 <__afl_maybe_log>
 804c95d:	8b 44 24 0c          	mov    0xc(%esp),%eax
 804c961:	8b 4c 24 08          	mov    0x8(%esp),%ecx
 804c965:	8b 54 24 04          	mov    0x4(%esp),%edx
 804c969:	8b 3c 24             	mov    (%esp),%edi
 804c96c:	8d 64 24 10          	lea    0x10(%esp),%esp
 804c970:	50                   	push   %eax
 804c971:	6a 05                	push   $0x5
 804c973:	68 45 5c 06 08       	push   $0x8065c45
 804c978:	6a 00                	push   $0x0
 804c97a:	e8 91 c8 ff ff       	call   8049210 <dcgettext@plt>
 804c97f:	ff 75 98             	pushl  -0x68(%ebp)
 804c982:	50                   	push   %eax
 804c983:	6a 00                	push   $0x0
 804c985:	6a 01                	push   $0x1
 804c987:	e8 34 c9 ff ff       	call   80492c0 <error@plt>
 804c98c:	83 c4 20             	add    $0x20,%esp
 804c98f:	90                   	nop
}
;

  /* stdout is handled via the atexit-invoked close_stdout function.  */

  free (lb1.buffer);
 804c990:	8d 64 24 f0          	lea    -0x10(%esp),%esp
 804c994:	89 3c 24             	mov    %edi,(%esp)
 804c997:	89 54 24 04          	mov    %edx,0x4(%esp)
 804c99b:	89 4c 24 08          	mov    %ecx,0x8(%esp)
 804c99f:	89 44 24 0c          	mov    %eax,0xc(%esp)
 804c9a3:	b9 c2 ee 00 00       	mov    $0xeec2,%ecx
 804c9a8:	e8 9b 7f 00 00       	call   8054948 <__afl_maybe_log>
 804c9ad:	8b 44 24 0c          	mov    0xc(%esp),%eax
 804c9b1:	8b 4c 24 08          	mov    0x8(%esp),%ecx
 804c9b5:	8b 54 24 04          	mov    0x4(%esp),%edx
 804c9b9:	8b 3c 24             	mov    (%esp),%edi
 804c9bc:	8d 64 24 10          	lea    0x10(%esp),%esp
 804c9c0:	83 ec 0c             	sub    $0xc,%esp
 804c9c3:	ff 75 d8             	pushl  -0x28(%ebp)
 804c9c6:	e8 d5 c7 ff ff       	call   80491a0 <free@plt>
  free (lb2.buffer);
 804c9cb:	58                   	pop    %eax
 804c9cc:	ff 75 e4             	pushl  -0x1c(%ebp)
 804c9cf:	e8 cc c7 ff ff       	call   80491a0 <free@plt>
 804c9d4:	83 c4 10             	add    $0x10,%esp
}
check_file (file[0], file[1], delimiter);

  	
return EXIT_SUCCESS;
}
 804c9d7:	8d 65 f0             	lea    -0x10(%ebp),%esp
 804c9da:	31 c0                	xor    %eax,%eax
 804c9dc:	5a                   	pop    %edx
 804c9dd:	5b                   	pop    %ebx
 804c9de:	5e                   	pop    %esi
 804c9df:	5f                   	pop    %edi
 804c9e0:	5d                   	pop    %ebp
 804c9e1:	8d 62 fc             	lea    -0x4(%edx),%esp
 804c9e4:	c3                   	ret    
 804c9e5:	8d 76 00             	lea    0x0(%esi),%esi
                };}

            }
            
// COR Label 453
if((!match && output_later_repeated) != (!match || output_later_repeated))  {
 804c9e8:	80 7d c0 00          	cmpb   $0x0,-0x40(%ebp)
 804c9ec:	0f 84 89 fc ff ff    	je     804c67b <main+0x311b>
 804c9f2:	66 90                	xchg   %ax,%ax
 804c9f4:	8d 64 24 f0          	lea    -0x10(%esp),%esp
 804c9f8:	89 3c 24             	mov    %edi,(%esp)
 804c9fb:	89 54 24 04          	mov    %edx,0x4(%esp)
 804c9ff:	89 4c 24 08          	mov    %ecx,0x8(%esp)
 804ca03:	89 44 24 0c          	mov    %eax,0xc(%esp)
 804ca07:	b9 0e 2a 00 00       	mov    $0x2a0e,%ecx
 804ca0c:	e8 37 7f 00 00       	call   8054948 <__afl_maybe_log>
 804ca11:	8b 44 24 0c          	mov    0xc(%esp),%eax
 804ca15:	8b 4c 24 08          	mov    0x8(%esp),%ecx
 804ca19:	8b 54 24 04          	mov    0x4(%esp),%edx
 804ca1d:	8b 3c 24             	mov    (%esp),%edi
 804ca20:	8d 64 24 10          	lea    0x10(%esp),%esp
 804ca24:	8d 64 24 f0          	lea    -0x10(%esp),%esp
 804ca28:	89 3c 24             	mov    %edi,(%esp)
 804ca2b:	89 54 24 04          	mov    %edx,0x4(%esp)
 804ca2f:	89 4c 24 08          	mov    %ecx,0x8(%esp)
 804ca33:	89 44 24 0c          	mov    %eax,0xc(%esp)
 804ca37:	b9 3b ce 00 00       	mov    $0xce3b,%ecx
 804ca3c:	e8 07 7f 00 00       	call   8054948 <__afl_maybe_log>
 804ca41:	8b 44 24 0c          	mov    0xc(%esp),%eax
 804ca45:	8b 4c 24 08          	mov    0x8(%esp),%ecx
 804ca49:	8b 54 24 04          	mov    0x4(%esp),%edx
 804ca4d:	8b 3c 24             	mov    (%esp),%edi
 804ca50:	8d 64 24 10          	lea    0x10(%esp),%esp
 804ca54:	80 3d 09 a3 06 08 00 	cmpb   $0x0,0x806a309
 804ca5b:	0f 85 50 0a 00 00    	jne    804d4b1 <main+0x3f51>
 804ca61:	8d 76 00             	lea    0x0(%esi),%esi
 804ca64:	8d 64 24 f0          	lea    -0x10(%esp),%esp
 804ca68:	89 3c 24             	mov    %edi,(%esp)
 804ca6b:	89 54 24 04          	mov    %edx,0x4(%esp)
 804ca6f:	89 4c 24 08          	mov    %ecx,0x8(%esp)
 804ca73:	89 44 24 0c          	mov    %eax,0xc(%esp)
 804ca77:	b9 aa 76 00 00       	mov    $0x76aa,%ecx
 804ca7c:	e8 c7 7e 00 00       	call   8054948 <__afl_maybe_log>
 804ca81:	8b 44 24 0c          	mov    0xc(%esp),%eax
 804ca85:	8b 4c 24 08          	mov    0x8(%esp),%ecx
 804ca89:	8b 54 24 04          	mov    0x4(%esp),%edx
 804ca8d:	8b 3c 24             	mov    (%esp),%edi
 804ca90:	8d 64 24 10          	lea    0x10(%esp),%esp
if(!(!match) && output_later_repeated ) {
	report_label_coverage("MCC", 456);
}
// MCC Label 457
if(!(!match) && !(output_later_repeated) ) {
	report_label_coverage("MCC", 457);
 804ca94:	83 ec 08             	sub    $0x8,%esp
 804ca97:	68 c9 01 00 00       	push   $0x1c9
 804ca9c:	68 1b 5b 06 08       	push   $0x8065b1b
 804caa1:	e8 da 45 00 00       	call   8051080 <report_label_coverage>
 804caa6:	83 c4 10             	add    $0x10,%esp
 804caa9:	e9 32 f8 ff ff       	jmp    804c2e0 <main+0x2d80>
 804caae:	66 90                	xchg   %ax,%ax
	report_label_coverage("ROR", 439);
}
if (match_count == (18446744073709551615UL)) {
                if (count_occurrences)
                    error(1, 0, gettext("too many repeated lines"));
                match_count--;
 804cab0:	be fe ff ff ff       	mov    $0xfffffffe,%esi
 804cab5:	bf ff ff ff ff       	mov    $0xffffffff,%edi
 804caba:	e9 6d fa ff ff       	jmp    804c52c <main+0x2fcc>
 804cabf:	90                   	nop

            }
            
// COR Label 453
if((!match && output_later_repeated) != (!match || output_later_repeated))  {
	report_label_coverage("COR", 453);
 804cac0:	83 ec 08             	sub    $0x8,%esp
 804cac3:	68 c5 01 00 00       	push   $0x1c5
 804cac8:	68 13 5b 06 08       	push   $0x8065b13
 804cacd:	e8 ae 45 00 00       	call   8051080 <report_label_coverage>
}

// MCC Label 454
if(!match && output_later_repeated ) {
 804cad2:	58                   	pop    %eax
 804cad3:	5a                   	pop    %edx
	report_label_coverage("MCC", 454);
}
// MCC Label 455
if(!match && !(output_later_repeated) ) {
	report_label_coverage("MCC", 455);
 804cad4:	68 c7 01 00 00       	push   $0x1c7
 804cad9:	68 1b 5b 06 08       	push   $0x8065b1b
 804cade:	e8 9d 45 00 00       	call   8051080 <report_label_coverage>
 804cae3:	83 c4 10             	add    $0x10,%esp
 804cae6:	e9 45 fc ff ff       	jmp    804c730 <main+0x31d0>
 804caeb:	90                   	nop
 804caec:	8d 74 26 00          	lea    0x0(%esi,%eiz,1),%esi
if(match_count < 0)  {
	report_label_coverage("ABS", 442);
}

// ROR Label 443
if((match_count != 1) != (match_count == 1))  {
 804caf0:	89 f2                	mov    %esi,%edx
 804caf2:	89 f8                	mov    %edi,%eax
 804caf4:	83 f2 01             	xor    $0x1,%edx
 804caf7:	09 d0                	or     %edx,%eax
 804caf9:	0f 94 c2             	sete   %dl
 804cafc:	0f 95 c0             	setne  %al
 804caff:	38 d0                	cmp    %dl,%al
 804cb01:	74 52                	je     804cb55 <main+0x35f5>
 804cb03:	90                   	nop
 804cb04:	8d 64 24 f0          	lea    -0x10(%esp),%esp
 804cb08:	89 3c 24             	mov    %edi,(%esp)
 804cb0b:	89 54 24 04          	mov    %edx,0x4(%esp)
 804cb0f:	89 4c 24 08          	mov    %ecx,0x8(%esp)
 804cb13:	89 44 24 0c          	mov    %eax,0xc(%esp)
 804cb17:	b9 ea 00 00 00       	mov    $0xea,%ecx
 804cb1c:	e8 27 7e 00 00       	call   8054948 <__afl_maybe_log>
 804cb21:	8b 44 24 0c          	mov    0xc(%esp),%eax
 804cb25:	8b 4c 24 08          	mov    0x8(%esp),%ecx
 804cb29:	8b 54 24 04          	mov    0x4(%esp),%edx
 804cb2d:	8b 3c 24             	mov    (%esp),%edi
 804cb30:	8d 64 24 10          	lea    0x10(%esp),%esp
	report_label_coverage("ROR", 443);
 804cb34:	50                   	push   %eax
 804cb35:	50                   	push   %eax
 804cb36:	68 bb 01 00 00       	push   $0x1bb
 804cb3b:	68 17 5b 06 08       	push   $0x8065b17
 804cb40:	88 55 a0             	mov    %dl,-0x60(%ebp)
 804cb43:	89 4d a4             	mov    %ecx,-0x5c(%ebp)
 804cb46:	e8 35 45 00 00       	call   8051080 <report_label_coverage>
 804cb4b:	0f b6 55 a0          	movzbl -0x60(%ebp),%edx
 804cb4f:	8b 4d a4             	mov    -0x5c(%ebp),%ecx
 804cb52:	83 c4 10             	add    $0x10,%esp
 804cb55:	8d 76 00             	lea    0x0(%esi),%esi
}
if (match_count == 1) {
 804cb58:	8d 64 24 f0          	lea    -0x10(%esp),%esp
 804cb5c:	89 3c 24             	mov    %edi,(%esp)
 804cb5f:	89 54 24 04          	mov    %edx,0x4(%esp)
 804cb63:	89 4c 24 08          	mov    %ecx,0x8(%esp)
 804cb67:	89 44 24 0c          	mov    %eax,0xc(%esp)
 804cb6b:	b9 6f 8d 00 00       	mov    $0x8d6f,%ecx
 804cb70:	e8 d3 7d 00 00       	call   8054948 <__afl_maybe_log>
 804cb75:	8b 44 24 0c          	mov    0xc(%esp),%eax
 804cb79:	8b 4c 24 08          	mov    0x8(%esp),%ecx
 804cb7d:	8b 54 24 04          	mov    0x4(%esp),%edx
 804cb81:	8b 3c 24             	mov    (%esp),%edi
 804cb84:	8d 64 24 10          	lea    0x10(%esp),%esp
 804cb88:	84 d2                	test   %dl,%dl
 804cb8a:	0f 84 94 fe ff ff    	je     804ca24 <main+0x34c4>
 804cb90:	8d 64 24 f0          	lea    -0x10(%esp),%esp
 804cb94:	89 3c 24             	mov    %edi,(%esp)
 804cb97:	89 54 24 04          	mov    %edx,0x4(%esp)
 804cb9b:	89 4c 24 08          	mov    %ecx,0x8(%esp)
 804cb9f:	89 44 24 0c          	mov    %eax,0xc(%esp)
 804cba3:	b9 87 91 00 00       	mov    $0x9187,%ecx
 804cba8:	e8 9b 7d 00 00       	call   8054948 <__afl_maybe_log>
 804cbad:	8b 44 24 0c          	mov    0xc(%esp),%eax
 804cbb1:	8b 4c 24 08          	mov    0x8(%esp),%ecx
 804cbb5:	8b 54 24 04          	mov    0x4(%esp),%edx
 804cbb9:	8b 3c 24             	mov    (%esp),%edi
 804cbbc:	8d 64 24 10          	lea    0x10(%esp),%esp
                    
// COR Label 444
if(((delimit_groups == DM_PREPEND) && (delimit_groups == DM_SEPARATE && !first_delimiter)) != ((delimit_groups == DM_PREPEND) || (delimit_groups == DM_SEPARATE && !first_delimiter)))  {
 804cbc0:	83 f9 01             	cmp    $0x1,%ecx
 804cbc3:	0f 84 a7 0c 00 00    	je     804d870 <main+0x4310>
 804cbc9:	8d 76 00             	lea    0x0(%esi),%esi
 804cbcc:	8d 64 24 f0          	lea    -0x10(%esp),%esp
 804cbd0:	89 3c 24             	mov    %edi,(%esp)
 804cbd3:	89 54 24 04          	mov    %edx,0x4(%esp)
 804cbd7:	89 4c 24 08          	mov    %ecx,0x8(%esp)
 804cbdb:	89 44 24 0c          	mov    %eax,0xc(%esp)
 804cbdf:	b9 fc 97 00 00       	mov    $0x97fc,%ecx
 804cbe4:	e8 5f 7d 00 00       	call   8054948 <__afl_maybe_log>
 804cbe9:	8b 44 24 0c          	mov    0xc(%esp),%eax
 804cbed:	8b 4c 24 08          	mov    0x8(%esp),%ecx
 804cbf1:	8b 54 24 04          	mov    0x4(%esp),%edx
 804cbf5:	8b 3c 24             	mov    (%esp),%edi
 804cbf8:	8d 64 24 10          	lea    0x10(%esp),%esp
 804cbfc:	83 f9 02             	cmp    $0x2,%ecx
 804cbff:	0f 95 c0             	setne  %al
 804cc02:	80 7d 9f 00          	cmpb   $0x0,-0x61(%ebp)
 804cc06:	0f 85 96 00 00 00    	jne    804cca2 <main+0x3742>
 804cc0c:	8d 64 24 f0          	lea    -0x10(%esp),%esp
 804cc10:	89 3c 24             	mov    %edi,(%esp)
 804cc13:	89 54 24 04          	mov    %edx,0x4(%esp)
 804cc17:	89 4c 24 08          	mov    %ecx,0x8(%esp)
 804cc1b:	89 44 24 0c          	mov    %eax,0xc(%esp)
 804cc1f:	b9 cb ec 00 00       	mov    $0xeccb,%ecx
 804cc24:	e8 1f 7d 00 00       	call   8054948 <__afl_maybe_log>
 804cc29:	8b 44 24 0c          	mov    0xc(%esp),%eax
 804cc2d:	8b 4c 24 08          	mov    0x8(%esp),%ecx
 804cc31:	8b 54 24 04          	mov    0x4(%esp),%edx
 804cc35:	8b 3c 24             	mov    (%esp),%edi
 804cc38:	8d 64 24 10          	lea    0x10(%esp),%esp
 804cc3c:	84 c0                	test   %al,%al
 804cc3e:	75 62                	jne    804cca2 <main+0x3742>
 804cc40:	8d 64 24 f0          	lea    -0x10(%esp),%esp
 804cc44:	89 3c 24             	mov    %edi,(%esp)
 804cc47:	89 54 24 04          	mov    %edx,0x4(%esp)
 804cc4b:	89 4c 24 08          	mov    %ecx,0x8(%esp)
 804cc4f:	89 44 24 0c          	mov    %eax,0xc(%esp)
 804cc53:	b9 5f a0 00 00       	mov    $0xa05f,%ecx
 804cc58:	e8 eb 7c 00 00       	call   8054948 <__afl_maybe_log>
 804cc5d:	8b 44 24 0c          	mov    0xc(%esp),%eax
 804cc61:	8b 4c 24 08          	mov    0x8(%esp),%ecx
 804cc65:	8b 54 24 04          	mov    0x4(%esp),%edx
 804cc69:	8b 3c 24             	mov    (%esp),%edi
 804cc6c:	8d 64 24 10          	lea    0x10(%esp),%esp
 804cc70:	88 45 a4             	mov    %al,-0x5c(%ebp)
	report_label_coverage("COR", 444);
 804cc73:	50                   	push   %eax
 804cc74:	50                   	push   %eax
 804cc75:	68 bc 01 00 00       	push   $0x1bc
 804cc7a:	68 13 5b 06 08       	push   $0x8065b13
 804cc7f:	89 4d a0             	mov    %ecx,-0x60(%ebp)
 804cc82:	e8 f9 43 00 00       	call   8051080 <report_label_coverage>
if(( delimit_groups == DM_PREPEND ) && ( !(delimit_groups == DM_SEPARATE) && !(!first_delimiter) ) ) {
	report_label_coverage("MCC", 448);
}
// MCC Label 449
if(( !(delimit_groups == DM_PREPEND) ) && ( delimit_groups == DM_SEPARATE && !first_delimiter ) ) {
	report_label_coverage("MCC", 449);
 804cc87:	58                   	pop    %eax
 804cc88:	5a                   	pop    %edx
 804cc89:	68 c1 01 00 00       	push   $0x1c1
 804cc8e:	68 1b 5b 06 08       	push   $0x8065b1b
 804cc93:	e8 e8 43 00 00       	call   8051080 <report_label_coverage>
 804cc98:	0f b6 45 a4          	movzbl -0x5c(%ebp),%eax
 804cc9c:	8b 4d a0             	mov    -0x60(%ebp),%ecx
 804cc9f:	83 c4 10             	add    $0x10,%esp
 804cca2:	66 90                	xchg   %ax,%ax
}
// MCC Label 450
if(( !(delimit_groups == DM_PREPEND) ) && ( delimit_groups == DM_SEPARATE && !(!first_delimiter) ) ) {
 804cca4:	8d 64 24 f0          	lea    -0x10(%esp),%esp
 804cca8:	89 3c 24             	mov    %edi,(%esp)
 804ccab:	89 54 24 04          	mov    %edx,0x4(%esp)
 804ccaf:	89 4c 24 08          	mov    %ecx,0x8(%esp)
 804ccb3:	89 44 24 0c          	mov    %eax,0xc(%esp)
 804ccb7:	b9 0b 4d 00 00       	mov    $0x4d0b,%ecx
 804ccbc:	e8 87 7c 00 00       	call   8054948 <__afl_maybe_log>
 804ccc1:	8b 44 24 0c          	mov    0xc(%esp),%eax
 804ccc5:	8b 4c 24 08          	mov    0x8(%esp),%ecx
 804ccc9:	8b 54 24 04          	mov    0x4(%esp),%edx
 804cccd:	8b 3c 24             	mov    (%esp),%edi
 804ccd0:	8d 64 24 10          	lea    0x10(%esp),%esp
 804ccd4:	83 f9 02             	cmp    $0x2,%ecx
 804ccd7:	0f 94 c2             	sete   %dl
 804ccda:	80 7d 9f 00          	cmpb   $0x0,-0x61(%ebp)
 804ccde:	0f 84 cd 09 00 00    	je     804d6b1 <main+0x4151>
 804cce4:	8d 64 24 f0          	lea    -0x10(%esp),%esp
 804cce8:	89 3c 24             	mov    %edi,(%esp)
 804cceb:	89 54 24 04          	mov    %edx,0x4(%esp)
 804ccef:	89 4c 24 08          	mov    %ecx,0x8(%esp)
 804ccf3:	89 44 24 0c          	mov    %eax,0xc(%esp)
 804ccf7:	b9 a3 99 00 00       	mov    $0x99a3,%ecx
 804ccfc:	e8 47 7c 00 00       	call   8054948 <__afl_maybe_log>
 804cd01:	8b 44 24 0c          	mov    0xc(%esp),%eax
 804cd05:	8b 4c 24 08          	mov    0x8(%esp),%ecx
 804cd09:	8b 54 24 04          	mov    0x4(%esp),%edx
 804cd0d:	8b 3c 24             	mov    (%esp),%edi
 804cd10:	8d 64 24 10          	lea    0x10(%esp),%esp
 804cd14:	84 d2                	test   %dl,%dl
 804cd16:	0f 85 0a 39 00 00    	jne    8050626 <main+0x70c6>
 804cd1c:	8d 64 24 f0          	lea    -0x10(%esp),%esp
 804cd20:	89 3c 24             	mov    %edi,(%esp)
 804cd23:	89 54 24 04          	mov    %edx,0x4(%esp)
 804cd27:	89 4c 24 08          	mov    %ecx,0x8(%esp)
 804cd2b:	89 44 24 0c          	mov    %eax,0xc(%esp)
 804cd2f:	b9 a0 44 00 00       	mov    $0x44a0,%ecx
 804cd34:	e8 0f 7c 00 00       	call   8054948 <__afl_maybe_log>
 804cd39:	8b 44 24 0c          	mov    0xc(%esp),%eax
 804cd3d:	8b 4c 24 08          	mov    0x8(%esp),%ecx
 804cd41:	8b 54 24 04          	mov    0x4(%esp),%edx
 804cd45:	8b 3c 24             	mov    (%esp),%edi
 804cd48:	8d 64 24 10          	lea    0x10(%esp),%esp
	report_label_coverage("MCC", 450);
}
// MCC Label 451
if(( !(delimit_groups == DM_PREPEND) ) && ( !(delimit_groups == DM_SEPARATE) && !first_delimiter ) ) {
 804cd4c:	8d 64 24 f0          	lea    -0x10(%esp),%esp
 804cd50:	89 3c 24             	mov    %edi,(%esp)
 804cd53:	89 54 24 04          	mov    %edx,0x4(%esp)
 804cd57:	89 4c 24 08          	mov    %ecx,0x8(%esp)
 804cd5b:	89 44 24 0c          	mov    %eax,0xc(%esp)
 804cd5f:	b9 75 27 00 00       	mov    $0x2775,%ecx
 804cd64:	e8 df 7b 00 00       	call   8054948 <__afl_maybe_log>
 804cd69:	8b 44 24 0c          	mov    0xc(%esp),%eax
 804cd6d:	8b 4c 24 08          	mov    0x8(%esp),%ecx
 804cd71:	8b 54 24 04          	mov    0x4(%esp),%edx
 804cd75:	8b 3c 24             	mov    (%esp),%edi
 804cd78:	8d 64 24 10          	lea    0x10(%esp),%esp
 804cd7c:	80 7d 9f 00          	cmpb   $0x0,-0x61(%ebp)
 804cd80:	0f 84 2b 09 00 00    	je     804d6b1 <main+0x4151>
 804cd86:	66 90                	xchg   %ax,%ax
 804cd88:	8d 64 24 f0          	lea    -0x10(%esp),%esp
 804cd8c:	89 3c 24             	mov    %edi,(%esp)
 804cd8f:	89 54 24 04          	mov    %edx,0x4(%esp)
 804cd93:	89 4c 24 08          	mov    %ecx,0x8(%esp)
 804cd97:	89 44 24 0c          	mov    %eax,0xc(%esp)
 804cd9b:	b9 3c 38 00 00       	mov    $0x383c,%ecx
 804cda0:	e8 a3 7b 00 00       	call   8054948 <__afl_maybe_log>
 804cda5:	8b 44 24 0c          	mov    0xc(%esp),%eax
 804cda9:	8b 4c 24 08          	mov    0x8(%esp),%ecx
 804cdad:	8b 54 24 04          	mov    0x4(%esp),%edx
 804cdb1:	8b 3c 24             	mov    (%esp),%edi
 804cdb4:	8d 64 24 10          	lea    0x10(%esp),%esp
	report_label_coverage("MCC", 451);
}
// MCC Label 452
if(( !(delimit_groups == DM_PREPEND) ) && ( !(delimit_groups == DM_SEPARATE) && !(!first_delimiter) ) ) {
 804cdb8:	84 c0                	test   %al,%al
 804cdba:	74 4b                	je     804ce07 <main+0x38a7>
 804cdbc:	8d 64 24 f0          	lea    -0x10(%esp),%esp
 804cdc0:	89 3c 24             	mov    %edi,(%esp)
 804cdc3:	89 54 24 04          	mov    %edx,0x4(%esp)
 804cdc7:	89 4c 24 08          	mov    %ecx,0x8(%esp)
 804cdcb:	89 44 24 0c          	mov    %eax,0xc(%esp)
 804cdcf:	b9 70 5d 00 00       	mov    $0x5d70,%ecx
 804cdd4:	e8 6f 7b 00 00       	call   8054948 <__afl_maybe_log>
 804cdd9:	8b 44 24 0c          	mov    0xc(%esp),%eax
 804cddd:	8b 4c 24 08          	mov    0x8(%esp),%ecx
 804cde1:	8b 54 24 04          	mov    0x4(%esp),%edx
 804cde5:	8b 3c 24             	mov    (%esp),%edi
 804cde8:	8d 64 24 10          	lea    0x10(%esp),%esp
	report_label_coverage("MCC", 452);
 804cdec:	50                   	push   %eax
 804cded:	50                   	push   %eax
 804cdee:	68 c4 01 00 00       	push   $0x1c4
 804cdf3:	68 1b 5b 06 08       	push   $0x8065b1b
 804cdf8:	88 55 a4             	mov    %dl,-0x5c(%ebp)
 804cdfb:	e8 80 42 00 00       	call   8051080 <report_label_coverage>
 804ce00:	0f b6 55 a4          	movzbl -0x5c(%ebp),%edx
 804ce04:	83 c4 10             	add    $0x10,%esp
 804ce07:	90                   	nop
}
if ((delimit_groups == DM_PREPEND) || (delimit_groups == DM_SEPARATE && !first_delimiter))
 804ce08:	8d 64 24 f0          	lea    -0x10(%esp),%esp
 804ce0c:	89 3c 24             	mov    %edi,(%esp)
 804ce0f:	89 54 24 04          	mov    %edx,0x4(%esp)
 804ce13:	89 4c 24 08          	mov    %ecx,0x8(%esp)
 804ce17:	89 44 24 0c          	mov    %eax,0xc(%esp)
 804ce1b:	b9 72 3f 00 00       	mov    $0x3f72,%ecx
 804ce20:	e8 23 7b 00 00       	call   8054948 <__afl_maybe_log>
 804ce25:	8b 44 24 0c          	mov    0xc(%esp),%eax
 804ce29:	8b 4c 24 08          	mov    0x8(%esp),%ecx
 804ce2d:	8b 54 24 04          	mov    0x4(%esp),%edx
 804ce31:	8b 3c 24             	mov    (%esp),%edi
 804ce34:	8d 64 24 10          	lea    0x10(%esp),%esp
 804ce38:	84 d2                	test   %dl,%dl
 804ce3a:	0f 84 e4 fb ff ff    	je     804ca24 <main+0x34c4>
 804ce40:	8d 64 24 f0          	lea    -0x10(%esp),%esp
 804ce44:	89 3c 24             	mov    %edi,(%esp)
 804ce47:	89 54 24 04          	mov    %edx,0x4(%esp)
 804ce4b:	89 4c 24 08          	mov    %ecx,0x8(%esp)
 804ce4f:	89 44 24 0c          	mov    %eax,0xc(%esp)
 804ce53:	b9 6c 5a 00 00       	mov    $0x5a6c,%ecx
 804ce58:	e8 eb 7a 00 00       	call   8054948 <__afl_maybe_log>
 804ce5d:	8b 44 24 0c          	mov    0xc(%esp),%eax
 804ce61:	8b 4c 24 08          	mov    0x8(%esp),%ecx
 804ce65:	8b 54 24 04          	mov    0x4(%esp),%edx
 804ce69:	8b 3c 24             	mov    (%esp),%edi
 804ce6c:	8d 64 24 10          	lea    0x10(%esp),%esp
 804ce70:	80 7d 9f 00          	cmpb   $0x0,-0x61(%ebp)
 804ce74:	0f 85 aa fb ff ff    	jne    804ca24 <main+0x34c4>
 804ce7a:	66 90                	xchg   %ax,%ax
 804ce7c:	8d 64 24 f0          	lea    -0x10(%esp),%esp
 804ce80:	89 3c 24             	mov    %edi,(%esp)
 804ce83:	89 54 24 04          	mov    %edx,0x4(%esp)
 804ce87:	89 4c 24 08          	mov    %ecx,0x8(%esp)
 804ce8b:	89 44 24 0c          	mov    %eax,0xc(%esp)
 804ce8f:	b9 0a a0 00 00       	mov    $0xa00a,%ecx
 804ce94:	e8 af 7a 00 00       	call   8054948 <__afl_maybe_log>
 804ce99:	8b 44 24 0c          	mov    0xc(%esp),%eax
 804ce9d:	8b 4c 24 08          	mov    0x8(%esp),%ecx
 804cea1:	8b 54 24 04          	mov    0x4(%esp),%edx
 804cea5:	8b 3c 24             	mov    (%esp),%edi
 804cea8:	8d 64 24 10          	lea    0x10(%esp),%esp

/* This is defined in POSIX.1:1996.  */
__STDIO_INLINE int
putchar_unlocked (int __c)
{
  return _IO_putc_unlocked (__c, stdout);
 804ceac:	8d 64 24 f0          	lea    -0x10(%esp),%esp
 804ceb0:	89 3c 24             	mov    %edi,(%esp)
 804ceb3:	89 54 24 04          	mov    %edx,0x4(%esp)
 804ceb7:	89 4c 24 08          	mov    %ecx,0x8(%esp)
 804cebb:	89 44 24 0c          	mov    %eax,0xc(%esp)
 804cebf:	b9 54 05 00 00       	mov    $0x554,%ecx
 804cec4:	e8 7f 7a 00 00       	call   8054948 <__afl_maybe_log>
 804cec9:	8b 44 24 0c          	mov    0xc(%esp),%eax
