
src/base64:     file format elf32-i386


Disassembly of section .init:

080490bc <_init>:
 80490bc:	53                   	push   %ebx
 80490bd:	83 ec 08             	sub    $0x8,%esp
 80490c0:	e8 1b 18 00 00       	call   804a8e0 <__x86.get_pc_thunk.bx>
 80490c5:	81 c3 47 e0 01 00    	add    $0x1e047,%ebx
 80490cb:	8b 83 f8 ff ff ff    	mov    -0x8(%ebx),%eax
 80490d1:	85 c0                	test   %eax,%eax
 80490d3:	74 05                	je     80490da <_init+0x1e>
 80490d5:	e8 16 02 00 00       	call   80492f0 <__gmon_start__@plt>
 80490da:	83 c4 08             	add    $0x8,%esp
 80490dd:	5b                   	pop    %ebx
 80490de:	c3                   	ret    

Disassembly of section .plt:

080490e0 <strcmp@plt-0x10>:
 80490e0:	ff 35 10 71 06 08    	pushl  0x8067110
 80490e6:	ff 25 14 71 06 08    	jmp    *0x8067114
 80490ec:	00 00                	add    %al,(%eax)
	...

080490f0 <strcmp@plt>:
 80490f0:	ff 25 18 71 06 08    	jmp    *0x8067118
 80490f6:	68 00 00 00 00       	push   $0x0
 80490fb:	e9 e0 ff ff ff       	jmp    80490e0 <_init+0x24>

08049100 <open64@plt>:
 8049100:	ff 25 1c 71 06 08    	jmp    *0x806711c
 8049106:	68 08 00 00 00       	push   $0x8
 804910b:	e9 d0 ff ff ff       	jmp    80490e0 <_init+0x24>

08049110 <read@plt>:
 8049110:	ff 25 20 71 06 08    	jmp    *0x8067120
 8049116:	68 10 00 00 00       	push   $0x10
 804911b:	e9 c0 ff ff ff       	jmp    80490e0 <_init+0x24>

08049120 <printf@plt>:
 8049120:	ff 25 24 71 06 08    	jmp    *0x8067124
 8049126:	68 18 00 00 00       	push   $0x18
 804912b:	e9 b0 ff ff ff       	jmp    80490e0 <_init+0x24>

08049130 <fflush@plt>:
 8049130:	ff 25 28 71 06 08    	jmp    *0x8067128
 8049136:	68 20 00 00 00       	push   $0x20
 804913b:	e9 a0 ff ff ff       	jmp    80490e0 <_init+0x24>

08049140 <_exit@plt>:
 8049140:	ff 25 2c 71 06 08    	jmp    *0x806712c
 8049146:	68 28 00 00 00       	push   $0x28
 804914b:	e9 90 ff ff ff       	jmp    80490e0 <_init+0x24>

08049150 <memmove@plt>:
 8049150:	ff 25 30 71 06 08    	jmp    *0x8067130
 8049156:	68 30 00 00 00       	push   $0x30
 804915b:	e9 80 ff ff ff       	jmp    80490e0 <_init+0x24>

08049160 <free@plt>:
 8049160:	ff 25 34 71 06 08    	jmp    *0x8067134
 8049166:	68 38 00 00 00       	push   $0x38
 804916b:	e9 70 ff ff ff       	jmp    80490e0 <_init+0x24>

08049170 <memcpy@plt>:
 8049170:	ff 25 38 71 06 08    	jmp    *0x8067138
 8049176:	68 40 00 00 00       	push   $0x40
 804917b:	e9 60 ff ff ff       	jmp    80490e0 <_init+0x24>

08049180 <mbsinit@plt>:
 8049180:	ff 25 3c 71 06 08    	jmp    *0x806713c
 8049186:	68 48 00 00 00       	push   $0x48
 804918b:	e9 50 ff ff ff       	jmp    80490e0 <_init+0x24>

08049190 <__strtoull_internal@plt>:
 8049190:	ff 25 40 71 06 08    	jmp    *0x8067140
 8049196:	68 50 00 00 00       	push   $0x50
 804919b:	e9 40 ff ff ff       	jmp    80490e0 <_init+0x24>

080491a0 <fclose@plt>:
 80491a0:	ff 25 44 71 06 08    	jmp    *0x8067144
 80491a6:	68 58 00 00 00       	push   $0x58
 80491ab:	e9 30 ff ff ff       	jmp    80490e0 <_init+0x24>

080491b0 <fseeko64@plt>:
 80491b0:	ff 25 48 71 06 08    	jmp    *0x8067148
 80491b6:	68 60 00 00 00       	push   $0x60
 80491bb:	e9 20 ff ff ff       	jmp    80490e0 <_init+0x24>

080491c0 <memcmp@plt>:
 80491c0:	ff 25 4c 71 06 08    	jmp    *0x806714c
 80491c6:	68 68 00 00 00       	push   $0x68
 80491cb:	e9 10 ff ff ff       	jmp    80490e0 <_init+0x24>

080491d0 <dprintf@plt>:
 80491d0:	ff 25 50 71 06 08    	jmp    *0x8067150
 80491d6:	68 70 00 00 00       	push   $0x70
 80491db:	e9 00 ff ff ff       	jmp    80490e0 <_init+0x24>

080491e0 <dcgettext@plt>:
 80491e0:	ff 25 54 71 06 08    	jmp    *0x8067154
 80491e6:	68 78 00 00 00       	push   $0x78
 80491eb:	e9 f0 fe ff ff       	jmp    80490e0 <_init+0x24>

080491f0 <shmat@plt>:
 80491f0:	ff 25 58 71 06 08    	jmp    *0x8067158
 80491f6:	68 80 00 00 00       	push   $0x80
 80491fb:	e9 e0 fe ff ff       	jmp    80490e0 <_init+0x24>

08049200 <textdomain@plt>:
 8049200:	ff 25 5c 71 06 08    	jmp    *0x806715c
 8049206:	68 88 00 00 00       	push   $0x88
 804920b:	e9 d0 fe ff ff       	jmp    80490e0 <_init+0x24>

08049210 <iswprint@plt>:
 8049210:	ff 25 60 71 06 08    	jmp    *0x8067160
 8049216:	68 90 00 00 00       	push   $0x90
 804921b:	e9 c0 fe ff ff       	jmp    80490e0 <_init+0x24>

08049220 <fwrite@plt>:
 8049220:	ff 25 64 71 06 08    	jmp    *0x8067164
 8049226:	68 98 00 00 00       	push   $0x98
 804922b:	e9 b0 fe ff ff       	jmp    80490e0 <_init+0x24>

08049230 <__ctype_get_mb_cur_max@plt>:
 8049230:	ff 25 68 71 06 08    	jmp    *0x8067168
 8049236:	68 a0 00 00 00       	push   $0xa0
 804923b:	e9 a0 fe ff ff       	jmp    80490e0 <_init+0x24>

08049240 <waitpid@plt>:
 8049240:	ff 25 6c 71 06 08    	jmp    *0x806716c
 8049246:	68 a8 00 00 00       	push   $0xa8
 804924b:	e9 90 fe ff ff       	jmp    80490e0 <_init+0x24>

08049250 <strcpy@plt>:
 8049250:	ff 25 70 71 06 08    	jmp    *0x8067170
 8049256:	68 b0 00 00 00       	push   $0xb0
 804925b:	e9 80 fe ff ff       	jmp    80490e0 <_init+0x24>

08049260 <__fpending@plt>:
 8049260:	ff 25 74 71 06 08    	jmp    *0x8067174
 8049266:	68 b8 00 00 00       	push   $0xb8
 804926b:	e9 70 fe ff ff       	jmp    80490e0 <_init+0x24>

08049270 <mbrtowc@plt>:
 8049270:	ff 25 78 71 06 08    	jmp    *0x8067178
 8049276:	68 c0 00 00 00       	push   $0xc0
 804927b:	e9 60 fe ff ff       	jmp    80490e0 <_init+0x24>

08049280 <__cxa_atexit@plt>:
 8049280:	ff 25 7c 71 06 08    	jmp    *0x806717c
 8049286:	68 c8 00 00 00       	push   $0xc8
 804928b:	e9 50 fe ff ff       	jmp    80490e0 <_init+0x24>

08049290 <error@plt>:
 8049290:	ff 25 80 71 06 08    	jmp    *0x8067180
 8049296:	68 d0 00 00 00       	push   $0xd0
 804929b:	e9 40 fe ff ff       	jmp    80490e0 <_init+0x24>

080492a0 <fread_unlocked@plt>:
 80492a0:	ff 25 84 71 06 08    	jmp    *0x8067184
 80492a6:	68 d8 00 00 00       	push   $0xd8
 80492ab:	e9 30 fe ff ff       	jmp    80490e0 <_init+0x24>

080492b0 <getenv@plt>:
 80492b0:	ff 25 88 71 06 08    	jmp    *0x8067188
 80492b6:	68 e0 00 00 00       	push   $0xe0
 80492bb:	e9 20 fe ff ff       	jmp    80490e0 <_init+0x24>

080492c0 <realloc@plt>:
 80492c0:	ff 25 8c 71 06 08    	jmp    *0x806718c
 80492c6:	68 e8 00 00 00       	push   $0xe8
 80492cb:	e9 10 fe ff ff       	jmp    80490e0 <_init+0x24>

080492d0 <malloc@plt>:
 80492d0:	ff 25 90 71 06 08    	jmp    *0x8067190
 80492d6:	68 f0 00 00 00       	push   $0xf0
 80492db:	e9 00 fe ff ff       	jmp    80490e0 <_init+0x24>

080492e0 <__freading@plt>:
 80492e0:	ff 25 94 71 06 08    	jmp    *0x8067194
 80492e6:	68 f8 00 00 00       	push   $0xf8
 80492eb:	e9 f0 fd ff ff       	jmp    80490e0 <_init+0x24>

080492f0 <__gmon_start__@plt>:
 80492f0:	ff 25 98 71 06 08    	jmp    *0x8067198
 80492f6:	68 00 01 00 00       	push   $0x100
 80492fb:	e9 e0 fd ff ff       	jmp    80490e0 <_init+0x24>

08049300 <exit@plt>:
 8049300:	ff 25 9c 71 06 08    	jmp    *0x806719c
 8049306:	68 08 01 00 00       	push   $0x108
 804930b:	e9 d0 fd ff ff       	jmp    80490e0 <_init+0x24>

08049310 <fdopen@plt>:
 8049310:	ff 25 a0 71 06 08    	jmp    *0x80671a0
 8049316:	68 10 01 00 00       	push   $0x110
 804931b:	e9 c0 fd ff ff       	jmp    80490e0 <_init+0x24>

08049320 <fputs_unlocked@plt>:
 8049320:	ff 25 a4 71 06 08    	jmp    *0x80671a4
 8049326:	68 18 01 00 00       	push   $0x118
 804932b:	e9 b0 fd ff ff       	jmp    80490e0 <_init+0x24>

08049330 <getopt_long@plt>:
 8049330:	ff 25 a8 71 06 08    	jmp    *0x80671a8
 8049336:	68 20 01 00 00       	push   $0x120
 804933b:	e9 a0 fd ff ff       	jmp    80490e0 <_init+0x24>

08049340 <strchr@plt>:
 8049340:	ff 25 ac 71 06 08    	jmp    *0x80671ac
 8049346:	68 28 01 00 00       	push   $0x128
 804934b:	e9 90 fd ff ff       	jmp    80490e0 <_init+0x24>

08049350 <fscanf@plt>:
 8049350:	ff 25 b0 71 06 08    	jmp    *0x80671b0
 8049356:	68 30 01 00 00       	push   $0x130
 804935b:	e9 80 fd ff ff       	jmp    80490e0 <_init+0x24>

08049360 <strlen@plt>:
 8049360:	ff 25 b4 71 06 08    	jmp    *0x80671b4
 8049366:	68 38 01 00 00       	push   $0x138
 804936b:	e9 70 fd ff ff       	jmp    80490e0 <_init+0x24>

08049370 <__libc_start_main@plt>:
 8049370:	ff 25 b8 71 06 08    	jmp    *0x80671b8
 8049376:	68 40 01 00 00       	push   $0x140
 804937b:	e9 60 fd ff ff       	jmp    80490e0 <_init+0x24>

08049380 <fprintf@plt>:
 8049380:	ff 25 bc 71 06 08    	jmp    *0x80671bc
 8049386:	68 48 01 00 00       	push   $0x148
 804938b:	e9 50 fd ff ff       	jmp    80490e0 <_init+0x24>

08049390 <write@plt>:
 8049390:	ff 25 c0 71 06 08    	jmp    *0x80671c0
 8049396:	68 50 01 00 00       	push   $0x150
 804939b:	e9 40 fd ff ff       	jmp    80490e0 <_init+0x24>

080493a0 <fopen@plt>:
 80493a0:	ff 25 c4 71 06 08    	jmp    *0x80671c4
 80493a6:	68 58 01 00 00       	push   $0x158
 80493ab:	e9 30 fd ff ff       	jmp    80490e0 <_init+0x24>

080493b0 <memset@plt>:
 80493b0:	ff 25 c8 71 06 08    	jmp    *0x80671c8
 80493b6:	68 60 01 00 00       	push   $0x160
 80493bb:	e9 20 fd ff ff       	jmp    80490e0 <_init+0x24>

080493c0 <ungetc@plt>:
 80493c0:	ff 25 cc 71 06 08    	jmp    *0x80671cc
 80493c6:	68 68 01 00 00       	push   $0x168
 80493cb:	e9 10 fd ff ff       	jmp    80490e0 <_init+0x24>

080493d0 <__errno_location@plt>:
 80493d0:	ff 25 d0 71 06 08    	jmp    *0x80671d0
 80493d6:	68 70 01 00 00       	push   $0x170
 80493db:	e9 00 fd ff ff       	jmp    80490e0 <_init+0x24>

080493e0 <memchr@plt>:
 80493e0:	ff 25 d4 71 06 08    	jmp    *0x80671d4
 80493e6:	68 78 01 00 00       	push   $0x178
 80493eb:	e9 f0 fc ff ff       	jmp    80490e0 <_init+0x24>

080493f0 <fileno@plt>:
 80493f0:	ff 25 d8 71 06 08    	jmp    *0x80671d8
 80493f6:	68 80 01 00 00       	push   $0x180
 80493fb:	e9 e0 fc ff ff       	jmp    80490e0 <_init+0x24>

08049400 <fwrite_unlocked@plt>:
 8049400:	ff 25 dc 71 06 08    	jmp    *0x80671dc
 8049406:	68 88 01 00 00       	push   $0x188
 804940b:	e9 d0 fc ff ff       	jmp    80490e0 <_init+0x24>

08049410 <__printf_chk@plt>:
 8049410:	ff 25 e0 71 06 08    	jmp    *0x80671e0
 8049416:	68 90 01 00 00       	push   $0x190
 804941b:	e9 c0 fc ff ff       	jmp    80490e0 <_init+0x24>

08049420 <fork@plt>:
 8049420:	ff 25 e4 71 06 08    	jmp    *0x80671e4
 8049426:	68 98 01 00 00       	push   $0x198
 804942b:	e9 b0 fc ff ff       	jmp    80490e0 <_init+0x24>

08049430 <__uflow@plt>:
 8049430:	ff 25 e8 71 06 08    	jmp    *0x80671e8
 8049436:	68 a0 01 00 00       	push   $0x1a0
 804943b:	e9 a0 fc ff ff       	jmp    80490e0 <_init+0x24>

08049440 <nl_langinfo@plt>:
 8049440:	ff 25 ec 71 06 08    	jmp    *0x80671ec
 8049446:	68 a8 01 00 00       	push   $0x1a8
 804944b:	e9 90 fc ff ff       	jmp    80490e0 <_init+0x24>

08049450 <setlocale@plt>:
 8049450:	ff 25 f0 71 06 08    	jmp    *0x80671f0
 8049456:	68 b0 01 00 00       	push   $0x1b0
 804945b:	e9 80 fc ff ff       	jmp    80490e0 <_init+0x24>

08049460 <strrchr@plt>:
 8049460:	ff 25 f4 71 06 08    	jmp    *0x80671f4
 8049466:	68 b8 01 00 00       	push   $0x1b8
 804946b:	e9 70 fc ff ff       	jmp    80490e0 <_init+0x24>

08049470 <__overflow@plt>:
 8049470:	ff 25 f8 71 06 08    	jmp    *0x80671f8
 8049476:	68 c0 01 00 00       	push   $0x1c0
 804947b:	e9 60 fc ff ff       	jmp    80490e0 <_init+0x24>

08049480 <atoi@plt>:
 8049480:	ff 25 fc 71 06 08    	jmp    *0x80671fc
 8049486:	68 c8 01 00 00       	push   $0x1c8
 804948b:	e9 50 fc ff ff       	jmp    80490e0 <_init+0x24>

08049490 <lseek64@plt>:
 8049490:	ff 25 00 72 06 08    	jmp    *0x8067200
 8049496:	68 d0 01 00 00       	push   $0x1d0
 804949b:	e9 40 fc ff ff       	jmp    80490e0 <_init+0x24>

080494a0 <__fprintf_chk@plt>:
 80494a0:	ff 25 04 72 06 08    	jmp    *0x8067204
 80494a6:	68 d8 01 00 00       	push   $0x1d8
 80494ab:	e9 30 fc ff ff       	jmp    80490e0 <_init+0x24>

080494b0 <bindtextdomain@plt>:
 80494b0:	ff 25 08 72 06 08    	jmp    *0x8067208
 80494b6:	68 e0 01 00 00       	push   $0x1e0
 80494bb:	e9 20 fc ff ff       	jmp    80490e0 <_init+0x24>

080494c0 <posix_fadvise64@plt>:
 80494c0:	ff 25 0c 72 06 08    	jmp    *0x806720c
 80494c6:	68 e8 01 00 00       	push   $0x1e8
 80494cb:	e9 10 fc ff ff       	jmp    80490e0 <_init+0x24>

080494d0 <strncmp@plt>:
 80494d0:	ff 25 10 72 06 08    	jmp    *0x8067210
 80494d6:	68 f0 01 00 00       	push   $0x1f0
 80494db:	e9 00 fc ff ff       	jmp    80490e0 <_init+0x24>

080494e0 <abort@plt>:
 80494e0:	ff 25 14 72 06 08    	jmp    *0x8067214
 80494e6:	68 f8 01 00 00       	push   $0x1f8
 80494eb:	e9 f0 fb ff ff       	jmp    80490e0 <_init+0x24>

080494f0 <close@plt>:
 80494f0:	ff 25 18 72 06 08    	jmp    *0x8067218
 80494f6:	68 00 02 00 00       	push   $0x200
 80494fb:	e9 e0 fb ff ff       	jmp    80490e0 <_init+0x24>

08049500 <__assert_fail@plt>:
 8049500:	ff 25 1c 72 06 08    	jmp    *0x806721c
 8049506:	68 08 02 00 00       	push   $0x208
 804950b:	e9 d0 fb ff ff       	jmp    80490e0 <_init+0x24>

08049510 <__ctype_b_loc@plt>:
 8049510:	ff 25 20 72 06 08    	jmp    *0x8067220
 8049516:	68 10 02 00 00       	push   $0x210
 804951b:	e9 c0 fb ff ff       	jmp    80490e0 <_init+0x24>

08049520 <calloc@plt>:
 8049520:	ff 25 24 72 06 08    	jmp    *0x8067224
 8049526:	68 18 02 00 00       	push   $0x218
 804952b:	e9 b0 fb ff ff       	jmp    80490e0 <_init+0x24>

Disassembly of section .text:

08049530 <main>:
;
}

int
main (int argc, char **argv)
{
 8049530:	8d 64 24 f0          	lea    -0x10(%esp),%esp
 8049534:	89 3c 24             	mov    %edi,(%esp)
 8049537:	89 54 24 04          	mov    %edx,0x4(%esp)
 804953b:	89 4c 24 08          	mov    %ecx,0x8(%esp)
 804953f:	89 44 24 0c          	mov    %eax,0xc(%esp)
 8049543:	b9 81 14 00 00       	mov    $0x1481,%ecx
 8049548:	e8 b3 5f 00 00       	call   804f500 <__afl_maybe_log>
 804954d:	8b 44 24 0c          	mov    0xc(%esp),%eax
 8049551:	8b 4c 24 08          	mov    0x8(%esp),%ecx
 8049555:	8b 54 24 04          	mov    0x4(%esp),%edx
 8049559:	8b 3c 24             	mov    (%esp),%edi
 804955c:	8d 64 24 10          	lea    0x10(%esp),%esp
 8049560:	8d 4c 24 04          	lea    0x4(%esp),%ecx
 8049564:	83 e4 f0             	and    $0xfffffff0,%esp
 8049567:	ff 71 fc             	pushl  -0x4(%ecx)
 804956a:	55                   	push   %ebp
 804956b:	89 e5                	mov    %esp,%ebp
 804956d:	57                   	push   %edi
 804956e:	56                   	push   %esi
 804956f:	53                   	push   %ebx
 8049570:	51                   	push   %ecx
 8049571:	83 ec 34             	sub    $0x34,%esp
 8049574:	8b 59 04             	mov    0x4(%ecx),%ebx
 8049577:	8b 31                	mov    (%ecx),%esi
  /* True if --decode has been given and we should decode data. */
  bool decode = false;
  /* True if we should ignore non-base64-alphabetic characters. */
  bool ignore_garbage = false;
  /* Wrap encoded base64 data around the 76:th column, by default. */
  uintmax_t wrap_column = 76;
 8049579:	c7 45 e0 4c 00 00 00 	movl   $0x4c,-0x20(%ebp)
 8049580:	c7 45 e4 00 00 00 00 	movl   $0x0,-0x1c(%ebp)

  initialize_main (&argc, &argv);
  set_program_name (argv[0]);
 8049587:	ff 33                	pushl  (%ebx)
 8049589:	e8 02 a5 00 00       	call   8053a90 <set_program_name>
  setlocale (LC_ALL, "");
 804958e:	58                   	pop    %eax
 804958f:	5a                   	pop    %edx
 8049590:	68 fd 3b 06 08       	push   $0x8063bfd
 8049595:	6a 06                	push   $0x6
 8049597:	e8 b4 fe ff ff       	call   8049450 <setlocale@plt>
  bindtextdomain (PACKAGE, LOCALEDIR);
 804959c:	59                   	pop    %ecx
 804959d:	5f                   	pop    %edi
 804959e:	68 10 31 06 08       	push   $0x8063110
 80495a3:	68 02 31 06 08       	push   $0x8063102
  int opt;
  FILE *input_fh;
  const char *infile;

  /* True if --decode has been given and we should decode data. */
  bool decode = false;
 80495a8:	31 ff                	xor    %edi,%edi
  uintmax_t wrap_column = 76;

  initialize_main (&argc, &argv);
  set_program_name (argv[0]);
  setlocale (LC_ALL, "");
  bindtextdomain (PACKAGE, LOCALEDIR);
 80495aa:	e8 01 ff ff ff       	call   80494b0 <bindtextdomain@plt>
  textdomain (PACKAGE);
 80495af:	c7 04 24 02 31 06 08 	movl   $0x8063102,(%esp)
 80495b6:	e8 45 fc ff ff       	call   8049200 <textdomain@plt>

  atexit (close_stdout);
 80495bb:	c7 04 24 40 34 05 08 	movl   $0x8053440,(%esp)
 80495c2:	e8 29 9a 01 00       	call   8062ff0 <atexit>
 80495c7:	83 c4 10             	add    $0x10,%esp
  const char *infile;

  /* True if --decode has been given and we should decode data. */
  bool decode = false;
  /* True if we should ignore non-base64-alphabetic characters. */
  bool ignore_garbage = false;
 80495ca:	c6 45 d7 00          	movb   $0x0,-0x29(%ebp)
 80495ce:	66 90                	xchg   %ax,%ax
  atexit (close_stdout);

  while (1)
    {
        {
            int temp_1 = !((opt = getopt_long(argc, argv, "diw:", long_options, ((void *)0))) != -1);
 80495d0:	8d 64 24 f0          	lea    -0x10(%esp),%esp
 80495d4:	89 3c 24             	mov    %edi,(%esp)
 80495d7:	89 54 24 04          	mov    %edx,0x4(%esp)
 80495db:	89 4c 24 08          	mov    %ecx,0x8(%esp)
 80495df:	89 44 24 0c          	mov    %eax,0xc(%esp)
 80495e3:	b9 34 ae 00 00       	mov    $0xae34,%ecx
 80495e8:	e8 13 5f 00 00       	call   804f500 <__afl_maybe_log>
 80495ed:	8b 44 24 0c          	mov    0xc(%esp),%eax
 80495f1:	8b 4c 24 08          	mov    0x8(%esp),%ecx
 80495f5:	8b 54 24 04          	mov    0x4(%esp),%edx
 80495f9:	8b 3c 24             	mov    (%esp),%edi
 80495fc:	8d 64 24 10          	lea    0x10(%esp),%esp
 8049600:	83 ec 0c             	sub    $0xc,%esp
 8049603:	6a 00                	push   $0x0
 8049605:	68 40 36 06 08       	push   $0x8063640
 804960a:	68 28 31 06 08       	push   $0x8063128
 804960f:	53                   	push   %ebx
 8049610:	56                   	push   %esi
 8049611:	e8 1a fd ff ff       	call   8049330 <getopt_long@plt>
// ABS Label 288
if(temp_1 < 0)  {
asm volatile (""::: "memory");
	report_label_coverage("ABS", 288);
}
if (temp_1)
 8049616:	83 c4 20             	add    $0x20,%esp
 8049619:	83 f8 ff             	cmp    $0xffffffff,%eax
 804961c:	0f 84 44 03 00 00    	je     8049966 <main+0x436>
 8049622:	66 90                	xchg   %ax,%ax
 8049624:	8d 64 24 f0          	lea    -0x10(%esp),%esp
 8049628:	89 3c 24             	mov    %edi,(%esp)
 804962b:	89 54 24 04          	mov    %edx,0x4(%esp)
 804962f:	89 4c 24 08          	mov    %ecx,0x8(%esp)
 8049633:	89 44 24 0c          	mov    %eax,0xc(%esp)
 8049637:	b9 d0 79 00 00       	mov    $0x79d0,%ecx
 804963c:	e8 bf 5e 00 00       	call   804f500 <__afl_maybe_log>
 8049641:	8b 44 24 0c          	mov    0xc(%esp),%eax
 8049645:	8b 4c 24 08          	mov    0x8(%esp),%ecx
 8049649:	8b 54 24 04          	mov    0x4(%esp),%edx
 804964d:	8b 3c 24             	mov    (%esp),%edi
 8049650:	8d 64 24 10          	lea    0x10(%esp),%esp
                break;
        }
        switch (opt) {
 8049654:	83 f8 64             	cmp    $0x64,%eax
 8049657:	0f 84 cd 02 00 00    	je     804992a <main+0x3fa>
 804965d:	8d 76 00             	lea    0x0(%esi),%esi
 8049660:	8d 64 24 f0          	lea    -0x10(%esp),%esp
 8049664:	89 3c 24             	mov    %edi,(%esp)
 8049667:	89 54 24 04          	mov    %edx,0x4(%esp)
 804966b:	89 4c 24 08          	mov    %ecx,0x8(%esp)
 804966f:	89 44 24 0c          	mov    %eax,0xc(%esp)
 8049673:	b9 42 8b 00 00       	mov    $0x8b42,%ecx
 8049678:	e8 83 5e 00 00       	call   804f500 <__afl_maybe_log>
 804967d:	8b 44 24 0c          	mov    0xc(%esp),%eax
 8049681:	8b 4c 24 08          	mov    0x8(%esp),%ecx
 8049685:	8b 54 24 04          	mov    0x4(%esp),%edx
 8049689:	8b 3c 24             	mov    (%esp),%edi
 804968c:	8d 64 24 10          	lea    0x10(%esp),%esp
 8049690:	0f 8f ba 00 00 00    	jg     8049750 <main+0x220>
 8049696:	66 90                	xchg   %ax,%ax
 8049698:	8d 64 24 f0          	lea    -0x10(%esp),%esp
 804969c:	89 3c 24             	mov    %edi,(%esp)
 804969f:	89 54 24 04          	mov    %edx,0x4(%esp)
 80496a3:	89 4c 24 08          	mov    %ecx,0x8(%esp)
 80496a7:	89 44 24 0c          	mov    %eax,0xc(%esp)
 80496ab:	b9 a5 34 00 00       	mov    $0x34a5,%ecx
 80496b0:	e8 4b 5e 00 00       	call   804f500 <__afl_maybe_log>
 80496b5:	8b 44 24 0c          	mov    0xc(%esp),%eax
 80496b9:	8b 4c 24 08          	mov    0x8(%esp),%ecx
 80496bd:	8b 54 24 04          	mov    0x4(%esp),%edx
 80496c1:	8b 3c 24             	mov    (%esp),%edi
 80496c4:	8d 64 24 10          	lea    0x10(%esp),%esp
 80496c8:	3d 7d ff ff ff       	cmp    $0xffffff7d,%eax
 80496cd:	0f 84 81 01 00 00    	je     8049854 <main+0x324>
 80496d3:	90                   	nop
 80496d4:	8d 64 24 f0          	lea    -0x10(%esp),%esp
 80496d8:	89 3c 24             	mov    %edi,(%esp)
 80496db:	89 54 24 04          	mov    %edx,0x4(%esp)
 80496df:	89 4c 24 08          	mov    %ecx,0x8(%esp)
 80496e3:	89 44 24 0c          	mov    %eax,0xc(%esp)
 80496e7:	b9 78 1a 00 00       	mov    $0x1a78,%ecx
 80496ec:	e8 0f 5e 00 00       	call   804f500 <__afl_maybe_log>
 80496f1:	8b 44 24 0c          	mov    0xc(%esp),%eax
 80496f5:	8b 4c 24 08          	mov    0x8(%esp),%ecx
 80496f9:	8b 54 24 04          	mov    0x4(%esp),%edx
 80496fd:	8b 3c 24             	mov    (%esp),%edi
 8049700:	8d 64 24 10          	lea    0x10(%esp),%esp
 8049704:	3d 7e ff ff ff       	cmp    $0xffffff7e,%eax
 8049709:	0f 85 de 01 00 00    	jne    80498ed <main+0x3bd>
 804970f:	90                   	nop
 8049710:	8d 64 24 f0          	lea    -0x10(%esp),%esp
 8049714:	89 3c 24             	mov    %edi,(%esp)
 8049717:	89 54 24 04          	mov    %edx,0x4(%esp)
 804971b:	89 4c 24 08          	mov    %ecx,0x8(%esp)
 804971f:	89 44 24 0c          	mov    %eax,0xc(%esp)
 8049723:	b9 d7 94 00 00       	mov    $0x94d7,%ecx
 8049728:	e8 d3 5d 00 00       	call   804f500 <__afl_maybe_log>
 804972d:	8b 44 24 0c          	mov    0xc(%esp),%eax
 8049731:	8b 4c 24 08          	mov    0x8(%esp),%ecx
 8049735:	8b 54 24 04          	mov    0x4(%esp),%edx
 8049739:	8b 3c 24             	mov    (%esp),%edi
 804973c:	8d 64 24 10          	lea    0x10(%esp),%esp
            break;
          case 'i':
            ignore_garbage = 1;
            break;
          case GETOPT_HELP_CHAR:
            usage(0);
 8049740:	83 ec 0c             	sub    $0xc,%esp
 8049743:	6a 00                	push   $0x0
 8049745:	e8 96 54 00 00       	call   804ebe0 <usage>
 804974a:	8d b6 00 00 00 00    	lea    0x0(%esi),%esi
	report_label_coverage("ABS", 288);
}
if (temp_1)
                break;
        }
        switch (opt) {
 8049750:	83 f8 69             	cmp    $0x69,%eax
 8049753:	0f 84 59 01 00 00    	je     80498b2 <main+0x382>
 8049759:	8d 76 00             	lea    0x0(%esi),%esi
 804975c:	8d 64 24 f0          	lea    -0x10(%esp),%esp
 8049760:	89 3c 24             	mov    %edi,(%esp)
 8049763:	89 54 24 04          	mov    %edx,0x4(%esp)
 8049767:	89 4c 24 08          	mov    %ecx,0x8(%esp)
 804976b:	89 44 24 0c          	mov    %eax,0xc(%esp)
 804976f:	b9 c2 e8 00 00       	mov    $0xe8c2,%ecx
 8049774:	e8 87 5d 00 00       	call   804f500 <__afl_maybe_log>
 8049779:	8b 44 24 0c          	mov    0xc(%esp),%eax
 804977d:	8b 4c 24 08          	mov    0x8(%esp),%ecx
 8049781:	8b 54 24 04          	mov    0x4(%esp),%edx
 8049785:	8b 3c 24             	mov    (%esp),%edi
 8049788:	8d 64 24 10          	lea    0x10(%esp),%esp
 804978c:	83 f8 77             	cmp    $0x77,%eax
 804978f:	0f 85 58 01 00 00    	jne    80498ed <main+0x3bd>
 8049795:	8d 76 00             	lea    0x0(%esi),%esi
 8049798:	8d 64 24 f0          	lea    -0x10(%esp),%esp
 804979c:	89 3c 24             	mov    %edi,(%esp)
 804979f:	89 54 24 04          	mov    %edx,0x4(%esp)
 80497a3:	89 4c 24 08          	mov    %ecx,0x8(%esp)
 80497a7:	89 44 24 0c          	mov    %eax,0xc(%esp)
 80497ab:	b9 af 2f 00 00       	mov    $0x2faf,%ecx
 80497b0:	e8 4b 5d 00 00       	call   804f500 <__afl_maybe_log>
 80497b5:	8b 44 24 0c          	mov    0xc(%esp),%eax
 80497b9:	8b 4c 24 08          	mov    0x8(%esp),%ecx
 80497bd:	8b 54 24 04          	mov    0x4(%esp),%edx
 80497c1:	8b 3c 24             	mov    (%esp),%edi
 80497c4:	8d 64 24 10          	lea    0x10(%esp),%esp
          case 'd':
            decode = 1;
            break;
          case 'w':
            if (xstrtoumax(optarg, ((void *)0), 0, &wrap_column, ((void *)0)) != LONGINT_OK)
 80497c8:	8d 45 e0             	lea    -0x20(%ebp),%eax
 80497cb:	83 ec 0c             	sub    $0xc,%esp
 80497ce:	6a 00                	push   $0x0
 80497d0:	50                   	push   %eax
 80497d1:	6a 00                	push   $0x0
 80497d3:	6a 00                	push   $0x0
 80497d5:	ff 35 e0 72 06 08    	pushl  0x80672e0
 80497db:	e8 40 25 01 00       	call   805bd20 <xstrtoumax>
 80497e0:	83 c4 20             	add    $0x20,%esp
 80497e3:	85 c0                	test   %eax,%eax
 80497e5:	0f 84 e3 fd ff ff    	je     80495ce <main+0x9e>
 80497eb:	90                   	nop
 80497ec:	8d 64 24 f0          	lea    -0x10(%esp),%esp
 80497f0:	89 3c 24             	mov    %edi,(%esp)
 80497f3:	89 54 24 04          	mov    %edx,0x4(%esp)
 80497f7:	89 4c 24 08          	mov    %ecx,0x8(%esp)
 80497fb:	89 44 24 0c          	mov    %eax,0xc(%esp)
 80497ff:	b9 1b 32 00 00       	mov    $0x321b,%ecx
 8049804:	e8 f7 5c 00 00       	call   804f500 <__afl_maybe_log>
 8049809:	8b 44 24 0c          	mov    0xc(%esp),%eax
 804980d:	8b 4c 24 08          	mov    0x8(%esp),%ecx
 8049811:	8b 54 24 04          	mov    0x4(%esp),%edx
 8049815:	8b 3c 24             	mov    (%esp),%edi
 8049818:	8d 64 24 10          	lea    0x10(%esp),%esp
                error(1, 0, gettext("invalid wrap size: %s"), quotearg(optarg));
 804981c:	83 ec 0c             	sub    $0xc,%esp
 804981f:	ff 35 e0 72 06 08    	pushl  0x80672e0
 8049825:	e8 56 04 01 00       	call   8059c80 <quotearg>
 804982a:	83 c4 0c             	add    $0xc,%esp
 804982d:	89 45 d0             	mov    %eax,-0x30(%ebp)
 8049830:	6a 05                	push   $0x5
 8049832:	68 2d 31 06 08       	push   $0x806312d
 8049837:	6a 00                	push   $0x0
 8049839:	e8 a2 f9 ff ff       	call   80491e0 <dcgettext@plt>
 804983e:	8b 4d d0             	mov    -0x30(%ebp),%ecx
 8049841:	51                   	push   %ecx
 8049842:	50                   	push   %eax
 8049843:	6a 00                	push   $0x0
 8049845:	6a 01                	push   $0x1
 8049847:	e8 44 fa ff ff       	call   8049290 <error@plt>
 804984c:	83 c4 20             	add    $0x20,%esp
 804984f:	e9 7a fd ff ff       	jmp    80495ce <main+0x9e>
          case GETOPT_HELP_CHAR:
            usage(0);
            break;
            ;
          case GETOPT_VERSION_CHAR:
            version_etc(stdout, "base64", "GNU coreutils", Version, ("Simon Josefsson"), (char *)((void *)0));
 8049854:	8d 64 24 f0          	lea    -0x10(%esp),%esp
 8049858:	89 3c 24             	mov    %edi,(%esp)
 804985b:	89 54 24 04          	mov    %edx,0x4(%esp)
 804985f:	89 4c 24 08          	mov    %ecx,0x8(%esp)
 8049863:	89 44 24 0c          	mov    %eax,0xc(%esp)
 8049867:	b9 a5 b1 00 00       	mov    $0xb1a5,%ecx
 804986c:	e8 8f 5c 00 00       	call   804f500 <__afl_maybe_log>
 8049871:	8b 44 24 0c          	mov    0xc(%esp),%eax
 8049875:	8b 4c 24 08          	mov    0x8(%esp),%ecx
 8049879:	8b 54 24 04          	mov    0x4(%esp),%edx
 804987d:	8b 3c 24             	mov    (%esp),%edi
 8049880:	8d 64 24 10          	lea    0x10(%esp),%esp
 8049884:	50                   	push   %eax
 8049885:	50                   	push   %eax
 8049886:	6a 00                	push   $0x0
 8049888:	68 43 31 06 08       	push   $0x8063143
 804988d:	ff 35 48 72 06 08    	pushl  0x8067248
 8049893:	68 fe 30 06 08       	push   $0x80630fe
 8049898:	68 83 30 06 08       	push   $0x8063083
 804989d:	ff 35 d8 72 06 08    	pushl  0x80672d8
 80498a3:	e8 98 15 01 00       	call   805ae40 <version_etc>
            exit(0);
 80498a8:	83 c4 14             	add    $0x14,%esp
 80498ab:	6a 00                	push   $0x0
 80498ad:	e8 4e fa ff ff       	call   8049300 <exit@plt>
 80498b2:	66 90                	xchg   %ax,%ax
          case 'w':
            if (xstrtoumax(optarg, ((void *)0), 0, &wrap_column, ((void *)0)) != LONGINT_OK)
                error(1, 0, gettext("invalid wrap size: %s"), quotearg(optarg));
            break;
          case 'i':
            ignore_garbage = 1;
 80498b4:	8d 64 24 f0          	lea    -0x10(%esp),%esp
 80498b8:	89 3c 24             	mov    %edi,(%esp)
 80498bb:	89 54 24 04          	mov    %edx,0x4(%esp)
 80498bf:	89 4c 24 08          	mov    %ecx,0x8(%esp)
 80498c3:	89 44 24 0c          	mov    %eax,0xc(%esp)
 80498c7:	b9 5b 50 00 00       	mov    $0x505b,%ecx
 80498cc:	e8 2f 5c 00 00       	call   804f500 <__afl_maybe_log>
 80498d1:	8b 44 24 0c          	mov    0xc(%esp),%eax
 80498d5:	8b 4c 24 08          	mov    0x8(%esp),%ecx
 80498d9:	8b 54 24 04          	mov    0x4(%esp),%edx
 80498dd:	8b 3c 24             	mov    (%esp),%edi
 80498e0:	8d 64 24 10          	lea    0x10(%esp),%esp
 80498e4:	c6 45 d7 01          	movb   $0x1,-0x29(%ebp)
 80498e8:	e9 e1 fc ff ff       	jmp    80495ce <main+0x9e>
 80498ed:	8d 76 00             	lea    0x0(%esi),%esi
            version_etc(stdout, "base64", "GNU coreutils", Version, ("Simon Josefsson"), (char *)((void *)0));
            exit(0);
            break;
            ;
          default:
            usage(1);
 80498f0:	8d 64 24 f0          	lea    -0x10(%esp),%esp
 80498f4:	89 3c 24             	mov    %edi,(%esp)
 80498f7:	89 54 24 04          	mov    %edx,0x4(%esp)
 80498fb:	89 4c 24 08          	mov    %ecx,0x8(%esp)
 80498ff:	89 44 24 0c          	mov    %eax,0xc(%esp)
 8049903:	b9 c0 d3 00 00       	mov    $0xd3c0,%ecx
 8049908:	e8 f3 5b 00 00       	call   804f500 <__afl_maybe_log>
 804990d:	8b 44 24 0c          	mov    0xc(%esp),%eax
 8049911:	8b 4c 24 08          	mov    0x8(%esp),%ecx
 8049915:	8b 54 24 04          	mov    0x4(%esp),%edx
 8049919:	8b 3c 24             	mov    (%esp),%edi
 804991c:	8d 64 24 10          	lea    0x10(%esp),%esp
 8049920:	83 ec 0c             	sub    $0xc,%esp
 8049923:	6a 01                	push   $0x1
 8049925:	e8 b6 52 00 00       	call   804ebe0 <usage>
 804992a:	66 90                	xchg   %ax,%ax
if (temp_1)
                break;
        }
        switch (opt) {
          case 'd':
            decode = 1;
 804992c:	8d 64 24 f0          	lea    -0x10(%esp),%esp
 8049930:	89 3c 24             	mov    %edi,(%esp)
 8049933:	89 54 24 04          	mov    %edx,0x4(%esp)
 8049937:	89 4c 24 08          	mov    %ecx,0x8(%esp)
 804993b:	89 44 24 0c          	mov    %eax,0xc(%esp)
 804993f:	b9 c7 44 00 00       	mov    $0x44c7,%ecx
 8049944:	e8 b7 5b 00 00       	call   804f500 <__afl_maybe_log>
 8049949:	8b 44 24 0c          	mov    0xc(%esp),%eax
 804994d:	8b 4c 24 08          	mov    0x8(%esp),%ecx
 8049951:	8b 54 24 04          	mov    0x4(%esp),%edx
 8049955:	8b 3c 24             	mov    (%esp),%edi
 8049958:	8d 64 24 10          	lea    0x10(%esp),%esp
 804995c:	bf 01 00 00 00       	mov    $0x1,%edi
 8049961:	e9 68 fc ff ff       	jmp    80495ce <main+0x9e>
 8049966:	66 90                	xchg   %ax,%ax
    };


  
// ABS Label 289
if(argc < 0)  {
 8049968:	8d 64 24 f0          	lea    -0x10(%esp),%esp
 804996c:	89 3c 24             	mov    %edi,(%esp)
 804996f:	89 54 24 04          	mov    %edx,0x4(%esp)
 8049973:	89 4c 24 08          	mov    %ecx,0x8(%esp)
 8049977:	89 44 24 0c          	mov    %eax,0xc(%esp)
 804997b:	b9 dd bf 00 00       	mov    $0xbfdd,%ecx
 8049980:	e8 7b 5b 00 00       	call   804f500 <__afl_maybe_log>
 8049985:	8b 44 24 0c          	mov    0xc(%esp),%eax
 8049989:	8b 4c 24 08          	mov    0x8(%esp),%ecx
 804998d:	8b 54 24 04          	mov    0x4(%esp),%edx
 8049991:	8b 3c 24             	mov    (%esp),%edi
 8049994:	8d 64 24 10          	lea    0x10(%esp),%esp
 8049998:	85 f6                	test   %esi,%esi
 804999a:	0f 88 c5 0d 00 00    	js     804a765 <main+0x1235>
 80499a0:	8d 64 24 f0          	lea    -0x10(%esp),%esp
 80499a4:	89 3c 24             	mov    %edi,(%esp)
 80499a7:	89 54 24 04          	mov    %edx,0x4(%esp)
 80499ab:	89 4c 24 08          	mov    %ecx,0x8(%esp)
 80499af:	89 44 24 0c          	mov    %eax,0xc(%esp)
 80499b3:	b9 8c c8 00 00       	mov    $0xc88c,%ecx
 80499b8:	e8 43 5b 00 00       	call   804f500 <__afl_maybe_log>
 80499bd:	8b 44 24 0c          	mov    0xc(%esp),%eax
 80499c1:	8b 4c 24 08          	mov    0x8(%esp),%ecx
 80499c5:	8b 54 24 04          	mov    0x4(%esp),%edx
 80499c9:	8b 3c 24             	mov    (%esp),%edi
 80499cc:	8d 64 24 10          	lea    0x10(%esp),%esp
asm volatile (""::: "memory");
	report_label_coverage("ABS", 289);
}
// ABS Label 290
if(optind < 0)  {
 80499d0:	8d 64 24 f0          	lea    -0x10(%esp),%esp
 80499d4:	89 3c 24             	mov    %edi,(%esp)
 80499d7:	89 54 24 04          	mov    %edx,0x4(%esp)
 80499db:	89 4c 24 08          	mov    %ecx,0x8(%esp)
 80499df:	89 44 24 0c          	mov    %eax,0xc(%esp)
 80499e3:	b9 18 7c 00 00       	mov    $0x7c18,%ecx
 80499e8:	e8 13 5b 00 00       	call   804f500 <__afl_maybe_log>
 80499ed:	8b 44 24 0c          	mov    0xc(%esp),%eax
 80499f1:	8b 4c 24 08          	mov    0x8(%esp),%ecx
 80499f5:	8b 54 24 04          	mov    0x4(%esp),%edx
 80499f9:	8b 3c 24             	mov    (%esp),%edi
 80499fc:	8d 64 24 10          	lea    0x10(%esp),%esp
 8049a00:	83 3d cc 72 06 08 00 	cmpl   $0x0,0x80672cc
 8049a07:	0f 88 0c 0d 00 00    	js     804a719 <main+0x11e9>
 8049a0d:	8d 76 00             	lea    0x0(%esi),%esi
 8049a10:	8d 64 24 f0          	lea    -0x10(%esp),%esp
 8049a14:	89 3c 24             	mov    %edi,(%esp)
 8049a17:	89 54 24 04          	mov    %edx,0x4(%esp)
 8049a1b:	89 4c 24 08          	mov    %ecx,0x8(%esp)
 8049a1f:	89 44 24 0c          	mov    %eax,0xc(%esp)
 8049a23:	b9 0e 6e 00 00       	mov    $0x6e0e,%ecx
 8049a28:	e8 d3 5a 00 00       	call   804f500 <__afl_maybe_log>
 8049a2d:	8b 44 24 0c          	mov    0xc(%esp),%eax
 8049a31:	8b 4c 24 08          	mov    0x8(%esp),%ecx
 8049a35:	8b 54 24 04          	mov    0x4(%esp),%edx
 8049a39:	8b 3c 24             	mov    (%esp),%edi
 8049a3c:	8d 64 24 10          	lea    0x10(%esp),%esp
asm volatile (""::: "memory");
	report_label_coverage("ABS", 290);
}

// AOR Label 291
if(argc / optind != argc - optind)  {
 8049a40:	8d 64 24 f0          	lea    -0x10(%esp),%esp
 8049a44:	89 3c 24             	mov    %edi,(%esp)
 8049a47:	89 54 24 04          	mov    %edx,0x4(%esp)
 8049a4b:	89 4c 24 08          	mov    %ecx,0x8(%esp)
 8049a4f:	89 44 24 0c          	mov    %eax,0xc(%esp)
 8049a53:	b9 8e bf 00 00       	mov    $0xbf8e,%ecx
 8049a58:	e8 a3 5a 00 00       	call   804f500 <__afl_maybe_log>
 8049a5d:	8b 44 24 0c          	mov    0xc(%esp),%eax
 8049a61:	8b 4c 24 08          	mov    0x8(%esp),%ecx
 8049a65:	8b 54 24 04          	mov    0x4(%esp),%edx
 8049a69:	8b 3c 24             	mov    (%esp),%edi
 8049a6c:	8d 64 24 10          	lea    0x10(%esp),%esp
 8049a70:	8b 0d cc 72 06 08    	mov    0x80672cc,%ecx
 8049a76:	89 f0                	mov    %esi,%eax
 8049a78:	99                   	cltd   
 8049a79:	f7 f9                	idiv   %ecx
 8049a7b:	89 f2                	mov    %esi,%edx
 8049a7d:	29 ca                	sub    %ecx,%edx
 8049a7f:	39 d0                	cmp    %edx,%eax
 8049a81:	74 4b                	je     8049ace <main+0x59e>
 8049a83:	90                   	nop
 8049a84:	8d 64 24 f0          	lea    -0x10(%esp),%esp
 8049a88:	89 3c 24             	mov    %edi,(%esp)
 8049a8b:	89 54 24 04          	mov    %edx,0x4(%esp)
 8049a8f:	89 4c 24 08          	mov    %ecx,0x8(%esp)
 8049a93:	89 44 24 0c          	mov    %eax,0xc(%esp)
 8049a97:	b9 5b 94 00 00       	mov    $0x945b,%ecx
 8049a9c:	e8 5f 5a 00 00       	call   804f500 <__afl_maybe_log>
 8049aa1:	8b 44 24 0c          	mov    0xc(%esp),%eax
 8049aa5:	8b 4c 24 08          	mov    0x8(%esp),%ecx
 8049aa9:	8b 54 24 04          	mov    0x4(%esp),%edx
 8049aad:	8b 3c 24             	mov    (%esp),%edi
 8049ab0:	8d 64 24 10          	lea    0x10(%esp),%esp
asm volatile (""::: "memory");
	report_label_coverage("AOR", 291);
 8049ab4:	51                   	push   %ecx
 8049ab5:	51                   	push   %ecx
 8049ab6:	68 23 01 00 00       	push   $0x123
 8049abb:	68 58 30 06 08       	push   $0x8063058
 8049ac0:	e8 eb 0e 00 00       	call   804a9b0 <report_label_coverage>
 8049ac5:	8b 0d cc 72 06 08    	mov    0x80672cc,%ecx
 8049acb:	83 c4 10             	add    $0x10,%esp
 8049ace:	66 90                	xchg   %ax,%ax
}
// AOR Label 292
if(argc + optind != argc - optind)  {
 8049ad0:	8d 64 24 f0          	lea    -0x10(%esp),%esp
 8049ad4:	89 3c 24             	mov    %edi,(%esp)
 8049ad7:	89 54 24 04          	mov    %edx,0x4(%esp)
 8049adb:	89 4c 24 08          	mov    %ecx,0x8(%esp)
 8049adf:	89 44 24 0c          	mov    %eax,0xc(%esp)
 8049ae3:	b9 33 0a 00 00       	mov    $0xa33,%ecx
 8049ae8:	e8 13 5a 00 00       	call   804f500 <__afl_maybe_log>
 8049aed:	8b 44 24 0c          	mov    0xc(%esp),%eax
 8049af1:	8b 4c 24 08          	mov    0x8(%esp),%ecx
 8049af5:	8b 54 24 04          	mov    0x4(%esp),%edx
 8049af9:	8b 3c 24             	mov    (%esp),%edi
 8049afc:	8d 64 24 10          	lea    0x10(%esp),%esp
 8049b00:	8d 14 0e             	lea    (%esi,%ecx,1),%edx
 8049b03:	89 f0                	mov    %esi,%eax
 8049b05:	29 c8                	sub    %ecx,%eax
 8049b07:	39 c2                	cmp    %eax,%edx
 8049b09:	74 4b                	je     8049b56 <main+0x626>
 8049b0b:	90                   	nop
 8049b0c:	8d 64 24 f0          	lea    -0x10(%esp),%esp
 8049b10:	89 3c 24             	mov    %edi,(%esp)
 8049b13:	89 54 24 04          	mov    %edx,0x4(%esp)
 8049b17:	89 4c 24 08          	mov    %ecx,0x8(%esp)
 8049b1b:	89 44 24 0c          	mov    %eax,0xc(%esp)
 8049b1f:	b9 c3 85 00 00       	mov    $0x85c3,%ecx
 8049b24:	e8 d7 59 00 00       	call   804f500 <__afl_maybe_log>
 8049b29:	8b 44 24 0c          	mov    0xc(%esp),%eax
 8049b2d:	8b 4c 24 08          	mov    0x8(%esp),%ecx
 8049b31:	8b 54 24 04          	mov    0x4(%esp),%edx
 8049b35:	8b 3c 24             	mov    (%esp),%edi
 8049b38:	8d 64 24 10          	lea    0x10(%esp),%esp
asm volatile (""::: "memory");
	report_label_coverage("AOR", 292);
 8049b3c:	52                   	push   %edx
 8049b3d:	52                   	push   %edx
 8049b3e:	68 24 01 00 00       	push   $0x124
 8049b43:	68 58 30 06 08       	push   $0x8063058
 8049b48:	e8 63 0e 00 00       	call   804a9b0 <report_label_coverage>
 8049b4d:	8b 0d cc 72 06 08    	mov    0x80672cc,%ecx
 8049b53:	83 c4 10             	add    $0x10,%esp
 8049b56:	66 90                	xchg   %ax,%ax
}
// AOR Label 293
if(argc * optind != argc - optind)  {
 8049b58:	8d 64 24 f0          	lea    -0x10(%esp),%esp
 8049b5c:	89 3c 24             	mov    %edi,(%esp)
 8049b5f:	89 54 24 04          	mov    %edx,0x4(%esp)
 8049b63:	89 4c 24 08          	mov    %ecx,0x8(%esp)
 8049b67:	89 44 24 0c          	mov    %eax,0xc(%esp)
 8049b6b:	b9 41 bf 00 00       	mov    $0xbf41,%ecx
 8049b70:	e8 8b 59 00 00       	call   804f500 <__afl_maybe_log>
 8049b75:	8b 44 24 0c          	mov    0xc(%esp),%eax
 8049b79:	8b 4c 24 08          	mov    0x8(%esp),%ecx
 8049b7d:	8b 54 24 04          	mov    0x4(%esp),%edx
 8049b81:	8b 3c 24             	mov    (%esp),%edi
 8049b84:	8d 64 24 10          	lea    0x10(%esp),%esp
 8049b88:	89 f2                	mov    %esi,%edx
 8049b8a:	89 f0                	mov    %esi,%eax
 8049b8c:	0f af d1             	imul   %ecx,%edx
 8049b8f:	29 c8                	sub    %ecx,%eax
 8049b91:	39 c2                	cmp    %eax,%edx
 8049b93:	74 47                	je     8049bdc <main+0x6ac>
 8049b95:	8d 76 00             	lea    0x0(%esi),%esi
 8049b98:	8d 64 24 f0          	lea    -0x10(%esp),%esp
 8049b9c:	89 3c 24             	mov    %edi,(%esp)
 8049b9f:	89 54 24 04          	mov    %edx,0x4(%esp)
 8049ba3:	89 4c 24 08          	mov    %ecx,0x8(%esp)
 8049ba7:	89 44 24 0c          	mov    %eax,0xc(%esp)
 8049bab:	b9 75 fa 00 00       	mov    $0xfa75,%ecx
 8049bb0:	e8 4b 59 00 00       	call   804f500 <__afl_maybe_log>
 8049bb5:	8b 44 24 0c          	mov    0xc(%esp),%eax
 8049bb9:	8b 4c 24 08          	mov    0x8(%esp),%ecx
 8049bbd:	8b 54 24 04          	mov    0x4(%esp),%edx
 8049bc1:	8b 3c 24             	mov    (%esp),%edi
 8049bc4:	8d 64 24 10          	lea    0x10(%esp),%esp
asm volatile (""::: "memory");
	report_label_coverage("AOR", 293);
 8049bc8:	50                   	push   %eax
 8049bc9:	50                   	push   %eax
 8049bca:	68 25 01 00 00       	push   $0x125
 8049bcf:	68 58 30 06 08       	push   $0x8063058
 8049bd4:	e8 d7 0d 00 00       	call   804a9b0 <report_label_coverage>
 8049bd9:	83 c4 10             	add    $0x10,%esp
}

// ROR Label 294
if((argc - optind <= 1) != (argc - optind > 1))  {
 8049bdc:	8d 64 24 f0          	lea    -0x10(%esp),%esp
 8049be0:	89 3c 24             	mov    %edi,(%esp)
 8049be3:	89 54 24 04          	mov    %edx,0x4(%esp)
 8049be7:	89 4c 24 08          	mov    %ecx,0x8(%esp)
 8049beb:	89 44 24 0c          	mov    %eax,0xc(%esp)
 8049bef:	b9 9b a4 00 00       	mov    $0xa49b,%ecx
 8049bf4:	e8 07 59 00 00       	call   804f500 <__afl_maybe_log>
 8049bf9:	8b 44 24 0c          	mov    0xc(%esp),%eax
 8049bfd:	8b 4c 24 08          	mov    0x8(%esp),%ecx
 8049c01:	8b 54 24 04          	mov    0x4(%esp),%edx
 8049c05:	8b 3c 24             	mov    (%esp),%edi
 8049c08:	8d 64 24 10          	lea    0x10(%esp),%esp
 8049c0c:	89 f1                	mov    %esi,%ecx
 8049c0e:	2b 0d cc 72 06 08    	sub    0x80672cc,%ecx
 8049c14:	83 e9 01             	sub    $0x1,%ecx
 8049c17:	0f 9e c2             	setle  %dl
 8049c1a:	0f 9f c0             	setg   %al
 8049c1d:	38 c2                	cmp    %al,%dl
 8049c1f:	74 47                	je     8049c68 <main+0x738>
 8049c21:	8d 76 00             	lea    0x0(%esi),%esi
 8049c24:	8d 64 24 f0          	lea    -0x10(%esp),%esp
 8049c28:	89 3c 24             	mov    %edi,(%esp)
 8049c2b:	89 54 24 04          	mov    %edx,0x4(%esp)
 8049c2f:	89 4c 24 08          	mov    %ecx,0x8(%esp)
 8049c33:	89 44 24 0c          	mov    %eax,0xc(%esp)
 8049c37:	b9 dc 67 00 00       	mov    $0x67dc,%ecx
 8049c3c:	e8 bf 58 00 00       	call   804f500 <__afl_maybe_log>
 8049c41:	8b 44 24 0c          	mov    0xc(%esp),%eax
 8049c45:	8b 4c 24 08          	mov    0x8(%esp),%ecx
 8049c49:	8b 54 24 04          	mov    0x4(%esp),%edx
 8049c4d:	8b 3c 24             	mov    (%esp),%edi
 8049c50:	8d 64 24 10          	lea    0x10(%esp),%esp
asm volatile (""::: "memory");
	report_label_coverage("ROR", 294);
 8049c54:	50                   	push   %eax
 8049c55:	50                   	push   %eax
 8049c56:	68 26 01 00 00       	push   $0x126
 8049c5b:	68 48 30 06 08       	push   $0x8063048
 8049c60:	e8 4b 0d 00 00       	call   804a9b0 <report_label_coverage>
 8049c65:	83 c4 10             	add    $0x10,%esp
}
// ROR Label 295
if((argc - optind < 1) != (argc - optind > 1))  {
 8049c68:	8d 64 24 f0          	lea    -0x10(%esp),%esp
 8049c6c:	89 3c 24             	mov    %edi,(%esp)
 8049c6f:	89 54 24 04          	mov    %edx,0x4(%esp)
 8049c73:	89 4c 24 08          	mov    %ecx,0x8(%esp)
 8049c77:	89 44 24 0c          	mov    %eax,0xc(%esp)
 8049c7b:	b9 55 ce 00 00       	mov    $0xce55,%ecx
 8049c80:	e8 7b 58 00 00       	call   804f500 <__afl_maybe_log>
 8049c85:	8b 44 24 0c          	mov    0xc(%esp),%eax
 8049c89:	8b 4c 24 08          	mov    0x8(%esp),%ecx
 8049c8d:	8b 54 24 04          	mov    0x4(%esp),%edx
 8049c91:	8b 3c 24             	mov    (%esp),%edi
 8049c94:	8d 64 24 10          	lea    0x10(%esp),%esp
 8049c98:	89 f1                	mov    %esi,%ecx
 8049c9a:	2b 0d cc 72 06 08    	sub    0x80672cc,%ecx
 8049ca0:	85 c9                	test   %ecx,%ecx
 8049ca2:	0f 9e c2             	setle  %dl
 8049ca5:	83 e9 01             	sub    $0x1,%ecx
 8049ca8:	0f 9f c0             	setg   %al
 8049cab:	38 c2                	cmp    %al,%dl
 8049cad:	74 45                	je     8049cf4 <main+0x7c4>
 8049caf:	90                   	nop
 8049cb0:	8d 64 24 f0          	lea    -0x10(%esp),%esp
 8049cb4:	89 3c 24             	mov    %edi,(%esp)
 8049cb7:	89 54 24 04          	mov    %edx,0x4(%esp)
 8049cbb:	89 4c 24 08          	mov    %ecx,0x8(%esp)
 8049cbf:	89 44 24 0c          	mov    %eax,0xc(%esp)
 8049cc3:	b9 18 e7 00 00       	mov    $0xe718,%ecx
 8049cc8:	e8 33 58 00 00       	call   804f500 <__afl_maybe_log>
 8049ccd:	8b 44 24 0c          	mov    0xc(%esp),%eax
 8049cd1:	8b 4c 24 08          	mov    0x8(%esp),%ecx
 8049cd5:	8b 54 24 04          	mov    0x4(%esp),%edx
 8049cd9:	8b 3c 24             	mov    (%esp),%edi
 8049cdc:	8d 64 24 10          	lea    0x10(%esp),%esp
asm volatile (""::: "memory");
	report_label_coverage("ROR", 295);
 8049ce0:	50                   	push   %eax
 8049ce1:	50                   	push   %eax
 8049ce2:	68 27 01 00 00       	push   $0x127
 8049ce7:	68 48 30 06 08       	push   $0x8063048
 8049cec:	e8 bf 0c 00 00       	call   804a9b0 <report_label_coverage>
 8049cf1:	83 c4 10             	add    $0x10,%esp
}
// ROR Label 296
if((argc - optind >= 1) != (argc - optind > 1))  {
 8049cf4:	8d 64 24 f0          	lea    -0x10(%esp),%esp
 8049cf8:	89 3c 24             	mov    %edi,(%esp)
 8049cfb:	89 54 24 04          	mov    %edx,0x4(%esp)
 8049cff:	89 4c 24 08          	mov    %ecx,0x8(%esp)
 8049d03:	89 44 24 0c          	mov    %eax,0xc(%esp)
 8049d07:	b9 a4 fc 00 00       	mov    $0xfca4,%ecx
 8049d0c:	e8 ef 57 00 00       	call   804f500 <__afl_maybe_log>
 8049d11:	8b 44 24 0c          	mov    0xc(%esp),%eax
 8049d15:	8b 4c 24 08          	mov    0x8(%esp),%ecx
 8049d19:	8b 54 24 04          	mov    0x4(%esp),%edx
 8049d1d:	8b 3c 24             	mov    (%esp),%edi
 8049d20:	8d 64 24 10          	lea    0x10(%esp),%esp
 8049d24:	89 f1                	mov    %esi,%ecx
 8049d26:	2b 0d cc 72 06 08    	sub    0x80672cc,%ecx
 8049d2c:	85 c9                	test   %ecx,%ecx
 8049d2e:	0f 9f c2             	setg   %dl
 8049d31:	83 e9 01             	sub    $0x1,%ecx
 8049d34:	0f 9f c0             	setg   %al
 8049d37:	38 c2                	cmp    %al,%dl
 8049d39:	74 45                	je     8049d80 <main+0x850>
 8049d3b:	90                   	nop
 8049d3c:	8d 64 24 f0          	lea    -0x10(%esp),%esp
 8049d40:	89 3c 24             	mov    %edi,(%esp)
 8049d43:	89 54 24 04          	mov    %edx,0x4(%esp)
 8049d47:	89 4c 24 08          	mov    %ecx,0x8(%esp)
 8049d4b:	89 44 24 0c          	mov    %eax,0xc(%esp)
 8049d4f:	b9 20 56 00 00       	mov    $0x5620,%ecx
 8049d54:	e8 a7 57 00 00       	call   804f500 <__afl_maybe_log>
 8049d59:	8b 44 24 0c          	mov    0xc(%esp),%eax
 8049d5d:	8b 4c 24 08          	mov    0x8(%esp),%ecx
 8049d61:	8b 54 24 04          	mov    0x4(%esp),%edx
 8049d65:	8b 3c 24             	mov    (%esp),%edi
 8049d68:	8d 64 24 10          	lea    0x10(%esp),%esp
asm volatile (""::: "memory");
	report_label_coverage("ROR", 296);
 8049d6c:	50                   	push   %eax
 8049d6d:	50                   	push   %eax
 8049d6e:	68 28 01 00 00       	push   $0x128
 8049d73:	68 48 30 06 08       	push   $0x8063048
 8049d78:	e8 33 0c 00 00       	call   804a9b0 <report_label_coverage>
 8049d7d:	83 c4 10             	add    $0x10,%esp
}
if (argc - optind > 1)
 8049d80:	8d 64 24 f0          	lea    -0x10(%esp),%esp
 8049d84:	89 3c 24             	mov    %edi,(%esp)
 8049d87:	89 54 24 04          	mov    %edx,0x4(%esp)
 8049d8b:	89 4c 24 08          	mov    %ecx,0x8(%esp)
 8049d8f:	89 44 24 0c          	mov    %eax,0xc(%esp)
 8049d93:	b9 c4 f9 00 00       	mov    $0xf9c4,%ecx
 8049d98:	e8 63 57 00 00       	call   804f500 <__afl_maybe_log>
 8049d9d:	8b 44 24 0c          	mov    0xc(%esp),%eax
 8049da1:	8b 4c 24 08          	mov    0x8(%esp),%ecx
 8049da5:	8b 54 24 04          	mov    0x4(%esp),%edx
 8049da9:	8b 3c 24             	mov    (%esp),%edi
 8049dac:	8d 64 24 10          	lea    0x10(%esp),%esp
 8049db0:	8b 0d cc 72 06 08    	mov    0x80672cc,%ecx
 8049db6:	89 f2                	mov    %esi,%edx
 8049db8:	29 ca                	sub    %ecx,%edx
 8049dba:	83 ea 01             	sub    $0x1,%edx
 8049dbd:	0f 8f 8f 0a 00 00    	jg     804a852 <main+0x1322>
 8049dc3:	90                   	nop
 8049dc4:	8d 64 24 f0          	lea    -0x10(%esp),%esp
 8049dc8:	89 3c 24             	mov    %edi,(%esp)
 8049dcb:	89 54 24 04          	mov    %edx,0x4(%esp)
 8049dcf:	89 4c 24 08          	mov    %ecx,0x8(%esp)
 8049dd3:	89 44 24 0c          	mov    %eax,0xc(%esp)
 8049dd7:	b9 c0 b0 00 00       	mov    $0xb0c0,%ecx
 8049ddc:	e8 1f 57 00 00       	call   804f500 <__afl_maybe_log>
 8049de1:	8b 44 24 0c          	mov    0xc(%esp),%eax
 8049de5:	8b 4c 24 08          	mov    0x8(%esp),%ecx
 8049de9:	8b 54 24 04          	mov    0x4(%esp),%edx
 8049ded:	8b 3c 24             	mov    (%esp),%edi
 8049df0:	8d 64 24 10          	lea    0x10(%esp),%esp
      usage (EXIT_FAILURE);
    }

  
// ABS Label 297
if(argc < 0)  {
 8049df4:	85 f6                	test   %esi,%esi
 8049df6:	0f 88 d1 08 00 00    	js     804a6cd <main+0x119d>
 8049dfc:	8d 64 24 f0          	lea    -0x10(%esp),%esp
 8049e00:	89 3c 24             	mov    %edi,(%esp)
 8049e03:	89 54 24 04          	mov    %edx,0x4(%esp)
 8049e07:	89 4c 24 08          	mov    %ecx,0x8(%esp)
 8049e0b:	89 44 24 0c          	mov    %eax,0xc(%esp)
 8049e0f:	b9 f8 52 00 00       	mov    $0x52f8,%ecx
 8049e14:	e8 e7 56 00 00       	call   804f500 <__afl_maybe_log>
 8049e19:	8b 44 24 0c          	mov    0xc(%esp),%eax
 8049e1d:	8b 4c 24 08          	mov    0x8(%esp),%ecx
 8049e21:	8b 54 24 04          	mov    0x4(%esp),%edx
 8049e25:	8b 3c 24             	mov    (%esp),%edi
 8049e28:	8d 64 24 10          	lea    0x10(%esp),%esp
asm volatile (""::: "memory");
	report_label_coverage("ABS", 297);
}
// ABS Label 298
if(optind < 0)  {
 8049e2c:	8d 64 24 f0          	lea    -0x10(%esp),%esp
 8049e30:	89 3c 24             	mov    %edi,(%esp)
 8049e33:	89 54 24 04          	mov    %edx,0x4(%esp)
 8049e37:	89 4c 24 08          	mov    %ecx,0x8(%esp)
 8049e3b:	89 44 24 0c          	mov    %eax,0xc(%esp)
 8049e3f:	b9 93 d5 00 00       	mov    $0xd593,%ecx
 8049e44:	e8 b7 56 00 00       	call   804f500 <__afl_maybe_log>
 8049e49:	8b 44 24 0c          	mov    0xc(%esp),%eax
 8049e4d:	8b 4c 24 08          	mov    0x8(%esp),%ecx
 8049e51:	8b 54 24 04          	mov    0x4(%esp),%edx
 8049e55:	8b 3c 24             	mov    (%esp),%edi
 8049e58:	8d 64 24 10          	lea    0x10(%esp),%esp
 8049e5c:	83 3d cc 72 06 08 00 	cmpl   $0x0,0x80672cc
 8049e63:	0f 88 18 08 00 00    	js     804a681 <main+0x1151>
 8049e69:	8d 76 00             	lea    0x0(%esi),%esi
 8049e6c:	8d 64 24 f0          	lea    -0x10(%esp),%esp
 8049e70:	89 3c 24             	mov    %edi,(%esp)
 8049e73:	89 54 24 04          	mov    %edx,0x4(%esp)
 8049e77:	89 4c 24 08          	mov    %ecx,0x8(%esp)
 8049e7b:	89 44 24 0c          	mov    %eax,0xc(%esp)
 8049e7f:	b9 8a 0e 00 00       	mov    $0xe8a,%ecx
 8049e84:	e8 77 56 00 00       	call   804f500 <__afl_maybe_log>
 8049e89:	8b 44 24 0c          	mov    0xc(%esp),%eax
 8049e8d:	8b 4c 24 08          	mov    0x8(%esp),%ecx
 8049e91:	8b 54 24 04          	mov    0x4(%esp),%edx
 8049e95:	8b 3c 24             	mov    (%esp),%edi
 8049e98:	8d 64 24 10          	lea    0x10(%esp),%esp
asm volatile (""::: "memory");
	report_label_coverage("ABS", 298);
}

// ROR Label 299
if((optind <= argc) != (optind < argc))  {
 8049e9c:	8d 64 24 f0          	lea    -0x10(%esp),%esp
 8049ea0:	89 3c 24             	mov    %edi,(%esp)
 8049ea3:	89 54 24 04          	mov    %edx,0x4(%esp)
 8049ea7:	89 4c 24 08          	mov    %ecx,0x8(%esp)
 8049eab:	89 44 24 0c          	mov    %eax,0xc(%esp)
 8049eaf:	b9 72 03 00 00       	mov    $0x372,%ecx
 8049eb4:	e8 47 56 00 00       	call   804f500 <__afl_maybe_log>
 8049eb9:	8b 44 24 0c          	mov    0xc(%esp),%eax
 8049ebd:	8b 4c 24 08          	mov    0x8(%esp),%ecx
 8049ec1:	8b 54 24 04          	mov    0x4(%esp),%edx
 8049ec5:	8b 3c 24             	mov    (%esp),%edi
 8049ec8:	8d 64 24 10          	lea    0x10(%esp),%esp
 8049ecc:	a1 cc 72 06 08       	mov    0x80672cc,%eax
 8049ed1:	39 f0                	cmp    %esi,%eax
 8049ed3:	0f 9e c1             	setle  %cl
 8049ed6:	39 c6                	cmp    %eax,%esi
 8049ed8:	0f 9f c2             	setg   %dl
 8049edb:	38 d1                	cmp    %dl,%cl
 8049edd:	74 4a                	je     8049f29 <main+0x9f9>
 8049edf:	90                   	nop
 8049ee0:	8d 64 24 f0          	lea    -0x10(%esp),%esp
 8049ee4:	89 3c 24             	mov    %edi,(%esp)
 8049ee7:	89 54 24 04          	mov    %edx,0x4(%esp)
 8049eeb:	89 4c 24 08          	mov    %ecx,0x8(%esp)
 8049eef:	89 44 24 0c          	mov    %eax,0xc(%esp)
 8049ef3:	b9 f1 6b 00 00       	mov    $0x6bf1,%ecx
 8049ef8:	e8 03 56 00 00       	call   804f500 <__afl_maybe_log>
 8049efd:	8b 44 24 0c          	mov    0xc(%esp),%eax
 8049f01:	8b 4c 24 08          	mov    0x8(%esp),%ecx
 8049f05:	8b 54 24 04          	mov    0x4(%esp),%edx
 8049f09:	8b 3c 24             	mov    (%esp),%edi
 8049f0c:	8d 64 24 10          	lea    0x10(%esp),%esp
asm volatile (""::: "memory");
	report_label_coverage("ROR", 299);
 8049f10:	51                   	push   %ecx
 8049f11:	51                   	push   %ecx
 8049f12:	68 2b 01 00 00       	push   $0x12b
 8049f17:	68 48 30 06 08       	push   $0x8063048
 8049f1c:	e8 8f 0a 00 00       	call   804a9b0 <report_label_coverage>
 8049f21:	a1 cc 72 06 08       	mov    0x80672cc,%eax
 8049f26:	83 c4 10             	add    $0x10,%esp
 8049f29:	8d 76 00             	lea    0x0(%esi),%esi
}
// ROR Label 300
if((optind > argc) != (optind < argc))  {
 8049f2c:	8d 64 24 f0          	lea    -0x10(%esp),%esp
 8049f30:	89 3c 24             	mov    %edi,(%esp)
 8049f33:	89 54 24 04          	mov    %edx,0x4(%esp)
 8049f37:	89 4c 24 08          	mov    %ecx,0x8(%esp)
 8049f3b:	89 44 24 0c          	mov    %eax,0xc(%esp)
 8049f3f:	b9 24 6d 00 00       	mov    $0x6d24,%ecx
 8049f44:	e8 b7 55 00 00       	call   804f500 <__afl_maybe_log>
 8049f49:	8b 44 24 0c          	mov    0xc(%esp),%eax
 8049f4d:	8b 4c 24 08          	mov    0x8(%esp),%ecx
 8049f51:	8b 54 24 04          	mov    0x4(%esp),%edx
 8049f55:	8b 3c 24             	mov    (%esp),%edi
 8049f58:	8d 64 24 10          	lea    0x10(%esp),%esp
 8049f5c:	39 f0                	cmp    %esi,%eax
 8049f5e:	0f 9f c1             	setg   %cl
 8049f61:	39 c6                	cmp    %eax,%esi
 8049f63:	0f 9f c2             	setg   %dl
 8049f66:	38 d1                	cmp    %dl,%cl
 8049f68:	74 4b                	je     8049fb5 <main+0xa85>
 8049f6a:	66 90                	xchg   %ax,%ax
 8049f6c:	8d 64 24 f0          	lea    -0x10(%esp),%esp
 8049f70:	89 3c 24             	mov    %edi,(%esp)
 8049f73:	89 54 24 04          	mov    %edx,0x4(%esp)
 8049f77:	89 4c 24 08          	mov    %ecx,0x8(%esp)
 8049f7b:	89 44 24 0c          	mov    %eax,0xc(%esp)
 8049f7f:	b9 ba f7 00 00       	mov    $0xf7ba,%ecx
 8049f84:	e8 77 55 00 00       	call   804f500 <__afl_maybe_log>
 8049f89:	8b 44 24 0c          	mov    0xc(%esp),%eax
 8049f8d:	8b 4c 24 08          	mov    0x8(%esp),%ecx
 8049f91:	8b 54 24 04          	mov    0x4(%esp),%edx
 8049f95:	8b 3c 24             	mov    (%esp),%edi
 8049f98:	8d 64 24 10          	lea    0x10(%esp),%esp
asm volatile (""::: "memory");
	report_label_coverage("ROR", 300);
 8049f9c:	52                   	push   %edx
 8049f9d:	52                   	push   %edx
 8049f9e:	68 2c 01 00 00       	push   $0x12c
 8049fa3:	68 48 30 06 08       	push   $0x8063048
 8049fa8:	e8 03 0a 00 00       	call   804a9b0 <report_label_coverage>
 8049fad:	a1 cc 72 06 08       	mov    0x80672cc,%eax
 8049fb2:	83 c4 10             	add    $0x10,%esp
 8049fb5:	8d 76 00             	lea    0x0(%esi),%esi
}
// ROR Label 301
if((optind >= argc) != (optind < argc))  {
 8049fb8:	8d 64 24 f0          	lea    -0x10(%esp),%esp
 8049fbc:	89 3c 24             	mov    %edi,(%esp)
 8049fbf:	89 54 24 04          	mov    %edx,0x4(%esp)
 8049fc3:	89 4c 24 08          	mov    %ecx,0x8(%esp)
 8049fc7:	89 44 24 0c          	mov    %eax,0xc(%esp)
 8049fcb:	b9 23 1a 00 00       	mov    $0x1a23,%ecx
 8049fd0:	e8 2b 55 00 00       	call   804f500 <__afl_maybe_log>
 8049fd5:	8b 44 24 0c          	mov    0xc(%esp),%eax
 8049fd9:	8b 4c 24 08          	mov    0x8(%esp),%ecx
 8049fdd:	8b 54 24 04          	mov    0x4(%esp),%edx
 8049fe1:	8b 3c 24             	mov    (%esp),%edi
 8049fe4:	8d 64 24 10          	lea    0x10(%esp),%esp
 8049fe8:	39 f0                	cmp    %esi,%eax
 8049fea:	0f 9d c1             	setge  %cl
 8049fed:	39 c6                	cmp    %eax,%esi
 8049fef:	0f 9f c2             	setg   %dl
 8049ff2:	38 d1                	cmp    %dl,%cl
 8049ff4:	74 4b                	je     804a041 <main+0xb11>
 8049ff6:	66 90                	xchg   %ax,%ax
 8049ff8:	8d 64 24 f0          	lea    -0x10(%esp),%esp
 8049ffc:	89 3c 24             	mov    %edi,(%esp)
 8049fff:	89 54 24 04          	mov    %edx,0x4(%esp)
 804a003:	89 4c 24 08          	mov    %ecx,0x8(%esp)
 804a007:	89 44 24 0c          	mov    %eax,0xc(%esp)
 804a00b:	b9 2a 94 00 00       	mov    $0x942a,%ecx
 804a010:	e8 eb 54 00 00       	call   804f500 <__afl_maybe_log>
 804a015:	8b 44 24 0c          	mov    0xc(%esp),%eax
 804a019:	8b 4c 24 08          	mov    0x8(%esp),%ecx
 804a01d:	8b 54 24 04          	mov    0x4(%esp),%edx
 804a021:	8b 3c 24             	mov    (%esp),%edi
 804a024:	8d 64 24 10          	lea    0x10(%esp),%esp
asm volatile (""::: "memory");
	report_label_coverage("ROR", 301);
 804a028:	50                   	push   %eax
 804a029:	50                   	push   %eax
 804a02a:	68 2d 01 00 00       	push   $0x12d
 804a02f:	68 48 30 06 08       	push   $0x8063048
 804a034:	e8 77 09 00 00       	call   804a9b0 <report_label_coverage>
 804a039:	a1 cc 72 06 08       	mov    0x80672cc,%eax
 804a03e:	83 c4 10             	add    $0x10,%esp
 804a041:	8d 76 00             	lea    0x0(%esi),%esi
}
if (optind < argc)
 804a044:	8d 64 24 f0          	lea    -0x10(%esp),%esp
 804a048:	89 3c 24             	mov    %edi,(%esp)
 804a04b:	89 54 24 04          	mov    %edx,0x4(%esp)
 804a04f:	89 4c 24 08          	mov    %ecx,0x8(%esp)
 804a053:	89 44 24 0c          	mov    %eax,0xc(%esp)
 804a057:	b9 96 f2 00 00       	mov    $0xf296,%ecx
 804a05c:	e8 9f 54 00 00       	call   804f500 <__afl_maybe_log>
 804a061:	8b 44 24 0c          	mov    0xc(%esp),%eax
 804a065:	8b 4c 24 08          	mov    0x8(%esp),%ecx
 804a069:	8b 54 24 04          	mov    0x4(%esp),%edx
 804a06d:	8b 3c 24             	mov    (%esp),%edi
 804a070:	8d 64 24 10          	lea    0x10(%esp),%esp
 804a074:	39 c6                	cmp    %eax,%esi
    infile = argv[optind];
  else
    infile = "-";
 804a076:	c7 45 d0 4a 38 06 08 	movl   $0x806384a,-0x30(%ebp)
// ROR Label 301
if((optind >= argc) != (optind < argc))  {
asm volatile (""::: "memory");
	report_label_coverage("ROR", 301);
}
if (optind < argc)
 804a07d:	7e 37                	jle    804a0b6 <main+0xb86>
 804a07f:	90                   	nop
 804a080:	8d 64 24 f0          	lea    -0x10(%esp),%esp
 804a084:	89 3c 24             	mov    %edi,(%esp)
 804a087:	89 54 24 04          	mov    %edx,0x4(%esp)
 804a08b:	89 4c 24 08          	mov    %ecx,0x8(%esp)
 804a08f:	89 44 24 0c          	mov    %eax,0xc(%esp)
 804a093:	b9 36 3a 00 00       	mov    $0x3a36,%ecx
 804a098:	e8 63 54 00 00       	call   804f500 <__afl_maybe_log>
 804a09d:	8b 44 24 0c          	mov    0xc(%esp),%eax
 804a0a1:	8b 4c 24 08          	mov    0x8(%esp),%ecx
 804a0a5:	8b 54 24 04          	mov    0x4(%esp),%edx
 804a0a9:	8b 3c 24             	mov    (%esp),%edi
 804a0ac:	8d 64 24 10          	lea    0x10(%esp),%esp
    infile = argv[optind];
 804a0b0:	8b 1c 83             	mov    (%ebx,%eax,4),%ebx
 804a0b3:	89 5d d0             	mov    %ebx,-0x30(%ebp)
 804a0b6:	66 90                	xchg   %ax,%ax

  
// MCC Label 302
if(( 1 ) ) {
asm volatile (""::: "memory");
	report_label_coverage("MCC", 302);
 804a0b8:	8d 64 24 f0          	lea    -0x10(%esp),%esp
 804a0bc:	89 3c 24             	mov    %edi,(%esp)
 804a0bf:	89 54 24 04          	mov    %edx,0x4(%esp)
 804a0c3:	89 4c 24 08          	mov    %ecx,0x8(%esp)
 804a0c7:	89 44 24 0c          	mov    %eax,0xc(%esp)
 804a0cb:	b9 95 04 00 00       	mov    $0x495,%ecx
 804a0d0:	e8 2b 54 00 00       	call   804f500 <__afl_maybe_log>
 804a0d5:	8b 44 24 0c          	mov    0xc(%esp),%eax
 804a0d9:	8b 4c 24 08          	mov    0x8(%esp),%ecx
 804a0dd:	8b 54 24 04          	mov    0x4(%esp),%edx
 804a0e1:	8b 3c 24             	mov    (%esp),%edi
 804a0e4:	8d 64 24 10          	lea    0x10(%esp),%esp
 804a0e8:	50                   	push   %eax
 804a0e9:	50                   	push   %eax
 804a0ea:	68 2e 01 00 00       	push   $0x12e
 804a0ef:	68 64 30 06 08       	push   $0x8063064
 804a0f4:	e8 b7 08 00 00       	call   804a9b0 <report_label_coverage>
}
if (STREQ (infile, "-"))
 804a0f9:	8b 75 d0             	mov    -0x30(%ebp),%esi
 804a0fc:	83 c4 10             	add    $0x10,%esp
 804a0ff:	80 3e 2d             	cmpb   $0x2d,(%esi)
 804a102:	0f 84 cd 03 00 00    	je     804a4d5 <main+0xfa5>
 804a108:	8d 64 24 f0          	lea    -0x10(%esp),%esp
 804a10c:	89 3c 24             	mov    %edi,(%esp)
 804a10f:	89 54 24 04          	mov    %edx,0x4(%esp)
 804a113:	89 4c 24 08          	mov    %ecx,0x8(%esp)
 804a117:	89 44 24 0c          	mov    %eax,0xc(%esp)
 804a11b:	b9 8d 05 00 00       	mov    $0x58d,%ecx
 804a120:	e8 db 53 00 00       	call   804f500 <__afl_maybe_log>
 804a125:	8b 44 24 0c          	mov    0xc(%esp),%eax
 804a129:	8b 4c 24 08          	mov    0x8(%esp),%ecx
 804a12d:	8b 54 24 04          	mov    0x4(%esp),%edx
 804a131:	8b 3c 24             	mov    (%esp),%edi
 804a134:	8d 64 24 10          	lea    0x10(%esp),%esp
        xfreopen (NULL, "rb", stdin);
      input_fh = stdin;
    }
  else
    {
      input_fh = fopen (infile, "rb");
 804a138:	8d 64 24 f0          	lea    -0x10(%esp),%esp
 804a13c:	89 3c 24             	mov    %edi,(%esp)
 804a13f:	89 54 24 04          	mov    %edx,0x4(%esp)
 804a143:	89 4c 24 08          	mov    %ecx,0x8(%esp)
 804a147:	89 44 24 0c          	mov    %eax,0xc(%esp)
 804a14b:	b9 5c f3 00 00       	mov    $0xf35c,%ecx
 804a150:	e8 ab 53 00 00       	call   804f500 <__afl_maybe_log>
 804a155:	8b 44 24 0c          	mov    0xc(%esp),%eax
 804a159:	8b 4c 24 08          	mov    0x8(%esp),%ecx
 804a15d:	8b 54 24 04          	mov    0x4(%esp),%edx
 804a161:	8b 3c 24             	mov    (%esp),%edi
 804a164:	8d 64 24 10          	lea    0x10(%esp),%esp
 804a168:	50                   	push   %eax
 804a169:	50                   	push   %eax
 804a16a:	68 64 31 06 08       	push   $0x8063164
 804a16f:	ff 75 d0             	pushl  -0x30(%ebp)
 804a172:	e8 29 f2 ff ff       	call   80493a0 <fopen@plt>
asm volatile (""::: "memory");
	report_label_coverage("ABS", 303);
}

// ROR Label 304
if((input_fh != ((void *)0)) != (input_fh == ((void *)0)))  {
 804a177:	83 c4 10             	add    $0x10,%esp
 804a17a:	85 c0                	test   %eax,%eax
        xfreopen (NULL, "rb", stdin);
      input_fh = stdin;
    }
  else
    {
      input_fh = fopen (infile, "rb");
 804a17c:	89 c3                	mov    %eax,%ebx
asm volatile (""::: "memory");
	report_label_coverage("ABS", 303);
}

// ROR Label 304
if((input_fh != ((void *)0)) != (input_fh == ((void *)0)))  {
 804a17e:	0f 94 c2             	sete   %dl
 804a181:	0f 95 c1             	setne  %cl
 804a184:	38 d1                	cmp    %dl,%cl
 804a186:	74 4b                	je     804a1d3 <main+0xca3>
 804a188:	8d 64 24 f0          	lea    -0x10(%esp),%esp
 804a18c:	89 3c 24             	mov    %edi,(%esp)
 804a18f:	89 54 24 04          	mov    %edx,0x4(%esp)
 804a193:	89 4c 24 08          	mov    %ecx,0x8(%esp)
 804a197:	89 44 24 0c          	mov    %eax,0xc(%esp)
 804a19b:	b9 62 79 00 00       	mov    $0x7962,%ecx
 804a1a0:	e8 5b 53 00 00       	call   804f500 <__afl_maybe_log>
 804a1a5:	8b 44 24 0c          	mov    0xc(%esp),%eax
 804a1a9:	8b 4c 24 08          	mov    0x8(%esp),%ecx
 804a1ad:	8b 54 24 04          	mov    0x4(%esp),%edx
 804a1b1:	8b 3c 24             	mov    (%esp),%edi
 804a1b4:	8d 64 24 10          	lea    0x10(%esp),%esp
 804a1b8:	88 55 d6             	mov    %dl,-0x2a(%ebp)
asm volatile (""::: "memory");
	report_label_coverage("ROR", 304);
 804a1bb:	50                   	push   %eax
 804a1bc:	50                   	push   %eax
 804a1bd:	68 30 01 00 00       	push   $0x130
 804a1c2:	68 48 30 06 08       	push   $0x8063048
 804a1c7:	e8 e4 07 00 00       	call   804a9b0 <report_label_coverage>
 804a1cc:	0f b6 55 d6          	movzbl -0x2a(%ebp),%edx
 804a1d0:	83 c4 10             	add    $0x10,%esp
 804a1d3:	90                   	nop
}
if (input_fh == NULL)
 804a1d4:	8d 64 24 f0          	lea    -0x10(%esp),%esp
 804a1d8:	89 3c 24             	mov    %edi,(%esp)
 804a1db:	89 54 24 04          	mov    %edx,0x4(%esp)
 804a1df:	89 4c 24 08          	mov    %ecx,0x8(%esp)
 804a1e3:	89 44 24 0c          	mov    %eax,0xc(%esp)
 804a1e7:	b9 2e 75 00 00       	mov    $0x752e,%ecx
 804a1ec:	e8 0f 53 00 00       	call   804f500 <__afl_maybe_log>
 804a1f1:	8b 44 24 0c          	mov    0xc(%esp),%eax
 804a1f5:	8b 4c 24 08          	mov    0x8(%esp),%ecx
 804a1f9:	8b 54 24 04          	mov    0x4(%esp),%edx
 804a1fd:	8b 3c 24             	mov    (%esp),%edi
 804a200:	8d 64 24 10          	lea    0x10(%esp),%esp
 804a204:	84 d2                	test   %dl,%dl
 804a206:	0f 85 f6 05 00 00    	jne    804a802 <main+0x12d2>
 804a20c:	8d 64 24 f0          	lea    -0x10(%esp),%esp
 804a210:	89 3c 24             	mov    %edi,(%esp)
 804a213:	89 54 24 04          	mov    %edx,0x4(%esp)
 804a217:	89 4c 24 08          	mov    %ecx,0x8(%esp)
 804a21b:	89 44 24 0c          	mov    %eax,0xc(%esp)
 804a21f:	b9 ea c2 00 00       	mov    $0xc2ea,%ecx
 804a224:	e8 d7 52 00 00       	call   804f500 <__afl_maybe_log>
 804a229:	8b 44 24 0c          	mov    0xc(%esp),%eax
 804a22d:	8b 4c 24 08          	mov    0x8(%esp),%ecx
 804a231:	8b 54 24 04          	mov    0x4(%esp),%edx
 804a235:	8b 3c 24             	mov    (%esp),%edi
 804a238:	8d 64 24 10          	lea    0x10(%esp),%esp
// ABS Label 287
if(input_fh < 0)  {
asm volatile (""::: "memory");
	report_label_coverage("ABS", 287);
}
fadvise (input_fh, FADVISE_SEQUENTIAL);
 804a23c:	8d 64 24 f0          	lea    -0x10(%esp),%esp
 804a240:	89 3c 24             	mov    %edi,(%esp)
 804a243:	89 54 24 04          	mov    %edx,0x4(%esp)
 804a247:	89 4c 24 08          	mov    %ecx,0x8(%esp)
 804a24b:	89 44 24 0c          	mov    %eax,0xc(%esp)
 804a24f:	b9 e1 de 00 00       	mov    $0xdee1,%ecx
 804a254:	e8 a7 52 00 00       	call   804f500 <__afl_maybe_log>
 804a259:	8b 44 24 0c          	mov    0xc(%esp),%eax
 804a25d:	8b 4c 24 08          	mov    0x8(%esp),%ecx
 804a261:	8b 54 24 04          	mov    0x4(%esp),%edx
 804a265:	8b 3c 24             	mov    (%esp),%edi
 804a268:	8d 64 24 10          	lea    0x10(%esp),%esp
 804a26c:	50                   	push   %eax
 804a26d:	50                   	push   %eax
 804a26e:	6a 02                	push   $0x2
 804a270:	53                   	push   %ebx
 804a271:	e8 0a 96 00 00       	call   8053880 <fadvise>
// ABS Label 305
if(decode < 0)  {
asm volatile (""::: "memory");
	report_label_coverage("ABS", 305);
}
if (decode)
 804a276:	89 f8                	mov    %edi,%eax
 804a278:	83 c4 10             	add    $0x10,%esp
 804a27b:	84 c0                	test   %al,%al
 804a27d:	0f 84 03 02 00 00    	je     804a486 <main+0xf56>
 804a283:	90                   	nop
 804a284:	8d 64 24 f0          	lea    -0x10(%esp),%esp
 804a288:	89 3c 24             	mov    %edi,(%esp)
 804a28b:	89 54 24 04          	mov    %edx,0x4(%esp)
 804a28f:	89 4c 24 08          	mov    %ecx,0x8(%esp)
 804a293:	89 44 24 0c          	mov    %eax,0xc(%esp)
 804a297:	b9 af b4 00 00       	mov    $0xb4af,%ecx
 804a29c:	e8 5f 52 00 00       	call   804f500 <__afl_maybe_log>
 804a2a1:	8b 44 24 0c          	mov    0xc(%esp),%eax
 804a2a5:	8b 4c 24 08          	mov    0x8(%esp),%ecx
 804a2a9:	8b 54 24 04          	mov    0x4(%esp),%edx
 804a2ad:	8b 3c 24             	mov    (%esp),%edi
 804a2b0:	8d 64 24 10          	lea    0x10(%esp),%esp
    do_decode (input_fh, stdout, ignore_garbage);
 804a2b4:	0f b6 4d d7          	movzbl -0x29(%ebp),%ecx
 804a2b8:	8b 15 d8 72 06 08    	mov    0x80672d8,%edx
 804a2be:	89 d8                	mov    %ebx,%eax
 804a2c0:	e8 0b 2a 00 00       	call   804ccd0 <do_decode>
 804a2c5:	8d 76 00             	lea    0x0(%esi),%esi
  else
    do_encode (input_fh, stdout, wrap_column);

  {
    int temp_1 = rpl_fclose(input_fh);
 804a2c8:	8d 64 24 f0          	lea    -0x10(%esp),%esp
 804a2cc:	89 3c 24             	mov    %edi,(%esp)
 804a2cf:	89 54 24 04          	mov    %edx,0x4(%esp)
 804a2d3:	89 4c 24 08          	mov    %ecx,0x8(%esp)
 804a2d7:	89 44 24 0c          	mov    %eax,0xc(%esp)
 804a2db:	b9 32 ea 00 00       	mov    $0xea32,%ecx
 804a2e0:	e8 1b 52 00 00       	call   804f500 <__afl_maybe_log>
 804a2e5:	8b 44 24 0c          	mov    0xc(%esp),%eax
 804a2e9:	8b 4c 24 08          	mov    0x8(%esp),%ecx
 804a2ed:	8b 54 24 04          	mov    0x4(%esp),%edx
 804a2f1:	8b 3c 24             	mov    (%esp),%edi
 804a2f4:	8d 64 24 10          	lea    0x10(%esp),%esp
 804a2f8:	83 ec 0c             	sub    $0xc,%esp
 804a2fb:	53                   	push   %ebx
 804a2fc:	e8 ef 53 01 00       	call   805f6f0 <rpl_fclose>
    int temp_2 = -1;
    
// ABS Label 306
if(temp_1 < 0)  {
 804a301:	83 c4 10             	add    $0x10,%esp
 804a304:	85 c0                	test   %eax,%eax
    do_decode (input_fh, stdout, ignore_garbage);
  else
    do_encode (input_fh, stdout, wrap_column);

  {
    int temp_1 = rpl_fclose(input_fh);
 804a306:	89 c3                	mov    %eax,%ebx
    int temp_2 = -1;
    
// ABS Label 306
if(temp_1 < 0)  {
 804a308:	0f 88 29 03 00 00    	js     804a637 <main+0x1107>
 804a30e:	66 90                	xchg   %ax,%ax
 804a310:	8d 64 24 f0          	lea    -0x10(%esp),%esp
 804a314:	89 3c 24             	mov    %edi,(%esp)
 804a317:	89 54 24 04          	mov    %edx,0x4(%esp)
 804a31b:	89 4c 24 08          	mov    %ecx,0x8(%esp)
 804a31f:	89 44 24 0c          	mov    %eax,0xc(%esp)
 804a323:	b9 89 6b 00 00       	mov    $0x6b89,%ecx
 804a328:	e8 d3 51 00 00       	call   804f500 <__afl_maybe_log>
 804a32d:	8b 44 24 0c          	mov    0xc(%esp),%eax
 804a331:	8b 4c 24 08          	mov    0x8(%esp),%ecx
 804a335:	8b 54 24 04          	mov    0x4(%esp),%edx
 804a339:	8b 3c 24             	mov    (%esp),%edi
 804a33c:	8d 64 24 10          	lea    0x10(%esp),%esp
	report_label_coverage("ABS", 306);
}
// ABS Label 307
if(temp_2 < 0)  {
asm volatile (""::: "memory");
	report_label_coverage("ABS", 307);
 804a340:	8d 64 24 f0          	lea    -0x10(%esp),%esp
 804a344:	89 3c 24             	mov    %edi,(%esp)
 804a347:	89 54 24 04          	mov    %edx,0x4(%esp)
 804a34b:	89 4c 24 08          	mov    %ecx,0x8(%esp)
 804a34f:	89 44 24 0c          	mov    %eax,0xc(%esp)
 804a353:	b9 d3 4b 00 00       	mov    $0x4bd3,%ecx
 804a358:	e8 a3 51 00 00       	call   804f500 <__afl_maybe_log>
 804a35d:	8b 44 24 0c          	mov    0xc(%esp),%eax
 804a361:	8b 4c 24 08          	mov    0x8(%esp),%ecx
 804a365:	8b 54 24 04          	mov    0x4(%esp),%edx
 804a369:	8b 3c 24             	mov    (%esp),%edi
 804a36c:	8d 64 24 10          	lea    0x10(%esp),%esp
 804a370:	56                   	push   %esi
 804a371:	56                   	push   %esi
 804a372:	68 33 01 00 00       	push   $0x133
 804a377:	68 5c 30 06 08       	push   $0x806305c
 804a37c:	e8 2f 06 00 00       	call   804a9b0 <report_label_coverage>
}

// ROR Label 308
if((temp_1 != temp_2) != (temp_1 == temp_2))  {
 804a381:	83 c4 10             	add    $0x10,%esp
 804a384:	83 c3 01             	add    $0x1,%ebx
 804a387:	0f 94 c2             	sete   %dl
 804a38a:	0f 95 c1             	setne  %cl
 804a38d:	38 d1                	cmp    %dl,%cl
 804a38f:	74 4e                	je     804a3df <main+0xeaf>
 804a391:	8d 76 00             	lea    0x0(%esi),%esi
 804a394:	8d 64 24 f0          	lea    -0x10(%esp),%esp
 804a398:	89 3c 24             	mov    %edi,(%esp)
 804a39b:	89 54 24 04          	mov    %edx,0x4(%esp)
 804a39f:	89 4c 24 08          	mov    %ecx,0x8(%esp)
 804a3a3:	89 44 24 0c          	mov    %eax,0xc(%esp)
 804a3a7:	b9 f0 be 00 00       	mov    $0xbef0,%ecx
 804a3ac:	e8 4f 51 00 00       	call   804f500 <__afl_maybe_log>
 804a3b1:	8b 44 24 0c          	mov    0xc(%esp),%eax
 804a3b5:	8b 4c 24 08          	mov    0x8(%esp),%ecx
 804a3b9:	8b 54 24 04          	mov    0x4(%esp),%edx
 804a3bd:	8b 3c 24             	mov    (%esp),%edi
 804a3c0:	8d 64 24 10          	lea    0x10(%esp),%esp
 804a3c4:	88 55 d7             	mov    %dl,-0x29(%ebp)
asm volatile (""::: "memory");
	report_label_coverage("ROR", 308);
 804a3c7:	51                   	push   %ecx
 804a3c8:	51                   	push   %ecx
 804a3c9:	68 34 01 00 00       	push   $0x134
 804a3ce:	68 48 30 06 08       	push   $0x8063048
 804a3d3:	e8 d8 05 00 00       	call   804a9b0 <report_label_coverage>
 804a3d8:	0f b6 55 d7          	movzbl -0x29(%ebp),%edx
 804a3dc:	83 c4 10             	add    $0x10,%esp
 804a3df:	90                   	nop
}
if (temp_1 == temp_2) {
 804a3e0:	8d 64 24 f0          	lea    -0x10(%esp),%esp
 804a3e4:	89 3c 24             	mov    %edi,(%esp)
 804a3e7:	89 54 24 04          	mov    %edx,0x4(%esp)
 804a3eb:	89 4c 24 08          	mov    %ecx,0x8(%esp)
 804a3ef:	89 44 24 0c          	mov    %eax,0xc(%esp)
 804a3f3:	b9 99 ff 00 00       	mov    $0xff99,%ecx
 804a3f8:	e8 03 51 00 00       	call   804f500 <__afl_maybe_log>
 804a3fd:	8b 44 24 0c          	mov    0xc(%esp),%eax
 804a401:	8b 4c 24 08          	mov    0x8(%esp),%ecx
 804a405:	8b 54 24 04          	mov    0x4(%esp),%edx
 804a409:	8b 3c 24             	mov    (%esp),%edi
 804a40c:	8d 64 24 10          	lea    0x10(%esp),%esp
 804a410:	84 d2                	test   %dl,%dl
 804a412:	0f 85 37 01 00 00    	jne    804a54f <main+0x101f>
 804a418:	8d 64 24 f0          	lea    -0x10(%esp),%esp
 804a41c:	89 3c 24             	mov    %edi,(%esp)
 804a41f:	89 54 24 04          	mov    %edx,0x4(%esp)
 804a423:	89 4c 24 08          	mov    %ecx,0x8(%esp)
 804a427:	89 44 24 0c          	mov    %eax,0xc(%esp)
 804a42b:	b9 f5 e7 00 00       	mov    $0xe7f5,%ecx
 804a430:	e8 cb 50 00 00       	call   804f500 <__afl_maybe_log>
 804a435:	8b 44 24 0c          	mov    0xc(%esp),%eax
 804a439:	8b 4c 24 08          	mov    0x8(%esp),%ecx
 804a43d:	8b 54 24 04          	mov    0x4(%esp),%edx
 804a441:	8b 3c 24             	mov    (%esp),%edi
 804a444:	8d 64 24 10          	lea    0x10(%esp),%esp
    }
}


  return EXIT_SUCCESS;
}
 804a448:	8d 64 24 f0          	lea    -0x10(%esp),%esp
 804a44c:	89 3c 24             	mov    %edi,(%esp)
 804a44f:	89 54 24 04          	mov    %edx,0x4(%esp)
 804a453:	89 4c 24 08          	mov    %ecx,0x8(%esp)
 804a457:	89 44 24 0c          	mov    %eax,0xc(%esp)
 804a45b:	b9 9a b5 00 00       	mov    $0xb59a,%ecx
 804a460:	e8 9b 50 00 00       	call   804f500 <__afl_maybe_log>
 804a465:	8b 44 24 0c          	mov    0xc(%esp),%eax
 804a469:	8b 4c 24 08          	mov    0x8(%esp),%ecx
 804a46d:	8b 54 24 04          	mov    0x4(%esp),%edx
 804a471:	8b 3c 24             	mov    (%esp),%edi
 804a474:	8d 64 24 10          	lea    0x10(%esp),%esp
 804a478:	8d 65 f0             	lea    -0x10(%ebp),%esp
 804a47b:	31 c0                	xor    %eax,%eax
 804a47d:	59                   	pop    %ecx
 804a47e:	5b                   	pop    %ebx
 804a47f:	5e                   	pop    %esi
 804a480:	5f                   	pop    %edi
 804a481:	5d                   	pop    %ebp
 804a482:	8d 61 fc             	lea    -0x4(%ecx),%esp
 804a485:	c3                   	ret    
 804a486:	66 90                	xchg   %ax,%ax
	report_label_coverage("ABS", 305);
}
if (decode)
    do_decode (input_fh, stdout, ignore_garbage);
  else
    do_encode (input_fh, stdout, wrap_column);
 804a488:	8d 64 24 f0          	lea    -0x10(%esp),%esp
 804a48c:	89 3c 24             	mov    %edi,(%esp)
 804a48f:	89 54 24 04          	mov    %edx,0x4(%esp)
 804a493:	89 4c 24 08          	mov    %ecx,0x8(%esp)
 804a497:	89 44 24 0c          	mov    %eax,0xc(%esp)
 804a49b:	b9 dd cb 00 00       	mov    $0xcbdd,%ecx
 804a4a0:	e8 5b 50 00 00       	call   804f500 <__afl_maybe_log>
 804a4a5:	8b 44 24 0c          	mov    0xc(%esp),%eax
 804a4a9:	8b 4c 24 08          	mov    0x8(%esp),%ecx
 804a4ad:	8b 54 24 04          	mov    0x4(%esp),%edx
 804a4b1:	8b 3c 24             	mov    (%esp),%edi
 804a4b4:	8d 64 24 10          	lea    0x10(%esp),%esp
 804a4b8:	8b 15 d8 72 06 08    	mov    0x80672d8,%edx
 804a4be:	50                   	push   %eax
 804a4bf:	50                   	push   %eax
 804a4c0:	ff 75 e4             	pushl  -0x1c(%ebp)
 804a4c3:	89 d8                	mov    %ebx,%eax
 804a4c5:	ff 75 e0             	pushl  -0x20(%ebp)
 804a4c8:	e8 23 05 00 00       	call   804a9f0 <do_encode>
 804a4cd:	83 c4 10             	add    $0x10,%esp
 804a4d0:	e9 f0 fd ff ff       	jmp    804a2c5 <main+0xd95>
 804a4d5:	8d 76 00             	lea    0x0(%esi),%esi
// MCC Label 302
if(( 1 ) ) {
asm volatile (""::: "memory");
	report_label_coverage("MCC", 302);
}
if (STREQ (infile, "-"))
 804a4d8:	8d 64 24 f0          	lea    -0x10(%esp),%esp
 804a4dc:	89 3c 24             	mov    %edi,(%esp)
 804a4df:	89 54 24 04          	mov    %edx,0x4(%esp)
 804a4e3:	89 4c 24 08          	mov    %ecx,0x8(%esp)
 804a4e7:	89 44 24 0c          	mov    %eax,0xc(%esp)
 804a4eb:	b9 06 59 00 00       	mov    $0x5906,%ecx
 804a4f0:	e8 0b 50 00 00       	call   804f500 <__afl_maybe_log>
 804a4f5:	8b 44 24 0c          	mov    0xc(%esp),%eax
 804a4f9:	8b 4c 24 08          	mov    0x8(%esp),%ecx
 804a4fd:	8b 54 24 04          	mov    0x4(%esp),%edx
 804a501:	8b 3c 24             	mov    (%esp),%edi
 804a504:	8d 64 24 10          	lea    0x10(%esp),%esp
 804a508:	80 7e 01 00          	cmpb   $0x0,0x1(%esi)
 804a50c:	0f 85 26 fc ff ff    	jne    804a138 <main+0xc08>
 804a512:	66 90                	xchg   %ax,%ax
 804a514:	8d 64 24 f0          	lea    -0x10(%esp),%esp
 804a518:	89 3c 24             	mov    %edi,(%esp)
 804a51b:	89 54 24 04          	mov    %edx,0x4(%esp)
 804a51f:	89 4c 24 08          	mov    %ecx,0x8(%esp)
 804a523:	89 44 24 0c          	mov    %eax,0xc(%esp)
 804a527:	b9 e5 14 00 00       	mov    $0x14e5,%ecx
 804a52c:	e8 cf 4f 00 00       	call   804f500 <__afl_maybe_log>
 804a531:	8b 44 24 0c          	mov    0xc(%esp),%eax
 804a535:	8b 4c 24 08          	mov    0x8(%esp),%ecx
 804a539:	8b 54 24 04          	mov    0x4(%esp),%edx
 804a53d:	8b 3c 24             	mov    (%esp),%edi
 804a540:	8d 64 24 10          	lea    0x10(%esp),%esp
    {
      if (O_BINARY)
        xfreopen (NULL, "rb", stdin);
      input_fh = stdin;
 804a544:	8b 1d d0 72 06 08    	mov    0x80672d0,%ebx
 804a54a:	e9 ed fc ff ff       	jmp    804a23c <main+0xd0c>
 804a54f:	90                   	nop
if (temp_1 == temp_2) {
        
// MCC Label 309
if(( 1 ) ) {
asm volatile (""::: "memory");
	report_label_coverage("MCC", 309);
 804a550:	8d 64 24 f0          	lea    -0x10(%esp),%esp
 804a554:	89 3c 24             	mov    %edi,(%esp)
 804a557:	89 54 24 04          	mov    %edx,0x4(%esp)
 804a55b:	89 4c 24 08          	mov    %ecx,0x8(%esp)
 804a55f:	89 44 24 0c          	mov    %eax,0xc(%esp)
 804a563:	b9 bc d0 00 00       	mov    $0xd0bc,%ecx
 804a568:	e8 93 4f 00 00       	call   804f500 <__afl_maybe_log>
 804a56d:	8b 44 24 0c          	mov    0xc(%esp),%eax
 804a571:	8b 4c 24 08          	mov    0x8(%esp),%ecx
 804a575:	8b 54 24 04          	mov    0x4(%esp),%edx
 804a579:	8b 3c 24             	mov    (%esp),%edi
 804a57c:	8d 64 24 10          	lea    0x10(%esp),%esp
 804a580:	52                   	push   %edx
 804a581:	52                   	push   %edx
 804a582:	68 35 01 00 00       	push   $0x135
 804a587:	68 64 30 06 08       	push   $0x8063064
 804a58c:	e8 1f 04 00 00       	call   804a9b0 <report_label_coverage>
}
if ((strcmp(infile, "-") == 0))
 804a591:	8b 7d d0             	mov    -0x30(%ebp),%edi
 804a594:	83 c4 10             	add    $0x10,%esp
 804a597:	80 3f 2d             	cmpb   $0x2d,(%edi)
 804a59a:	0f 85 11 02 00 00    	jne    804a7b1 <main+0x1281>
 804a5a0:	8d 64 24 f0          	lea    -0x10(%esp),%esp
 804a5a4:	89 3c 24             	mov    %edi,(%esp)
 804a5a7:	89 54 24 04          	mov    %edx,0x4(%esp)
 804a5ab:	89 4c 24 08          	mov    %ecx,0x8(%esp)
 804a5af:	89 44 24 0c          	mov    %eax,0xc(%esp)
 804a5b3:	b9 7e f0 00 00       	mov    $0xf07e,%ecx
 804a5b8:	e8 43 4f 00 00       	call   804f500 <__afl_maybe_log>
 804a5bd:	8b 44 24 0c          	mov    0xc(%esp),%eax
 804a5c1:	8b 4c 24 08          	mov    0x8(%esp),%ecx
 804a5c5:	8b 54 24 04          	mov    0x4(%esp),%edx
 804a5c9:	8b 3c 24             	mov    (%esp),%edi
 804a5cc:	8d 64 24 10          	lea    0x10(%esp),%esp
 804a5d0:	80 7f 01 00          	cmpb   $0x0,0x1(%edi)
 804a5d4:	0f 85 d7 01 00 00    	jne    804a7b1 <main+0x1281>
 804a5da:	66 90                	xchg   %ax,%ax
 804a5dc:	8d 64 24 f0          	lea    -0x10(%esp),%esp
 804a5e0:	89 3c 24             	mov    %edi,(%esp)
 804a5e3:	89 54 24 04          	mov    %edx,0x4(%esp)
 804a5e7:	89 4c 24 08          	mov    %ecx,0x8(%esp)
 804a5eb:	89 44 24 0c          	mov    %eax,0xc(%esp)
 804a5ef:	b9 a1 5a 00 00       	mov    $0x5aa1,%ecx
 804a5f4:	e8 07 4f 00 00       	call   804f500 <__afl_maybe_log>
 804a5f9:	8b 44 24 0c          	mov    0xc(%esp),%eax
 804a5fd:	8b 4c 24 08          	mov    0x8(%esp),%ecx
 804a601:	8b 54 24 04          	mov    0x4(%esp),%edx
 804a605:	8b 3c 24             	mov    (%esp),%edi
 804a608:	8d 64 24 10          	lea    0x10(%esp),%esp
            error(1, (*__errno_location()), gettext("closing standard input"));
 804a60c:	50                   	push   %eax
 804a60d:	6a 05                	push   $0x5
 804a60f:	68 67 31 06 08       	push   $0x8063167
 804a614:	6a 00                	push   $0x0
 804a616:	e8 c5 eb ff ff       	call   80491e0 <dcgettext@plt>
 804a61b:	89 c6                	mov    %eax,%esi
 804a61d:	e8 ae ed ff ff       	call   80493d0 <__errno_location@plt>
 804a622:	83 c4 0c             	add    $0xc,%esp
 804a625:	56                   	push   %esi
 804a626:	ff 30                	pushl  (%eax)
 804a628:	6a 01                	push   $0x1
 804a62a:	e8 61 ec ff ff       	call   8049290 <error@plt>
 804a62f:	83 c4 10             	add    $0x10,%esp
 804a632:	e9 11 fe ff ff       	jmp    804a448 <main+0xf18>
 804a637:	90                   	nop
    int temp_2 = -1;
    
// ABS Label 306
if(temp_1 < 0)  {
asm volatile (""::: "memory");
	report_label_coverage("ABS", 306);
 804a638:	8d 64 24 f0          	lea    -0x10(%esp),%esp
 804a63c:	89 3c 24             	mov    %edi,(%esp)
 804a63f:	89 54 24 04          	mov    %edx,0x4(%esp)
 804a643:	89 4c 24 08          	mov    %ecx,0x8(%esp)
 804a647:	89 44 24 0c          	mov    %eax,0xc(%esp)
 804a64b:	b9 ab 90 00 00       	mov    $0x90ab,%ecx
 804a650:	e8 ab 4e 00 00       	call   804f500 <__afl_maybe_log>
 804a655:	8b 44 24 0c          	mov    0xc(%esp),%eax
 804a659:	8b 4c 24 08          	mov    0x8(%esp),%ecx
 804a65d:	8b 54 24 04          	mov    0x4(%esp),%edx
 804a661:	8b 3c 24             	mov    (%esp),%edi
 804a664:	8d 64 24 10          	lea    0x10(%esp),%esp
 804a668:	57                   	push   %edi
 804a669:	57                   	push   %edi
 804a66a:	68 32 01 00 00       	push   $0x132
 804a66f:	68 5c 30 06 08       	push   $0x806305c
 804a674:	e8 37 03 00 00       	call   804a9b0 <report_label_coverage>
 804a679:	83 c4 10             	add    $0x10,%esp
 804a67c:	e9 bf fc ff ff       	jmp    804a340 <main+0xe10>
 804a681:	8d 76 00             	lea    0x0(%esi),%esi
	report_label_coverage("ABS", 297);
}
// ABS Label 298
if(optind < 0)  {
asm volatile (""::: "memory");
	report_label_coverage("ABS", 298);
 804a684:	8d 64 24 f0          	lea    -0x10(%esp),%esp
 804a688:	89 3c 24             	mov    %edi,(%esp)
 804a68b:	89 54 24 04          	mov    %edx,0x4(%esp)
 804a68f:	89 4c 24 08          	mov    %ecx,0x8(%esp)
 804a693:	89 44 24 0c          	mov    %eax,0xc(%esp)
 804a697:	b9 dd 84 00 00       	mov    $0x84dd,%ecx
 804a69c:	e8 5f 4e 00 00       	call   804f500 <__afl_maybe_log>
 804a6a1:	8b 44 24 0c          	mov    0xc(%esp),%eax
 804a6a5:	8b 4c 24 08          	mov    0x8(%esp),%ecx
 804a6a9:	8b 54 24 04          	mov    0x4(%esp),%edx
 804a6ad:	8b 3c 24             	mov    (%esp),%edi
 804a6b0:	8d 64 24 10          	lea    0x10(%esp),%esp
 804a6b4:	50                   	push   %eax
 804a6b5:	50                   	push   %eax
 804a6b6:	68 2a 01 00 00       	push   $0x12a
 804a6bb:	68 5c 30 06 08       	push   $0x806305c
 804a6c0:	e8 eb 02 00 00       	call   804a9b0 <report_label_coverage>
 804a6c5:	83 c4 10             	add    $0x10,%esp
 804a6c8:	e9 cf f7 ff ff       	jmp    8049e9c <main+0x96c>
 804a6cd:	8d 76 00             	lea    0x0(%esi),%esi

  
// ABS Label 297
if(argc < 0)  {
asm volatile (""::: "memory");
	report_label_coverage("ABS", 297);
 804a6d0:	8d 64 24 f0          	lea    -0x10(%esp),%esp
 804a6d4:	89 3c 24             	mov    %edi,(%esp)
 804a6d7:	89 54 24 04          	mov    %edx,0x4(%esp)
 804a6db:	89 4c 24 08          	mov    %ecx,0x8(%esp)
 804a6df:	89 44 24 0c          	mov    %eax,0xc(%esp)
 804a6e3:	b9 d6 1b 00 00       	mov    $0x1bd6,%ecx
 804a6e8:	e8 13 4e 00 00       	call   804f500 <__afl_maybe_log>
 804a6ed:	8b 44 24 0c          	mov    0xc(%esp),%eax
 804a6f1:	8b 4c 24 08          	mov    0x8(%esp),%ecx
 804a6f5:	8b 54 24 04          	mov    0x4(%esp),%edx
 804a6f9:	8b 3c 24             	mov    (%esp),%edi
 804a6fc:	8d 64 24 10          	lea    0x10(%esp),%esp
 804a700:	50                   	push   %eax
 804a701:	50                   	push   %eax
 804a702:	68 29 01 00 00       	push   $0x129
 804a707:	68 5c 30 06 08       	push   $0x806305c
 804a70c:	e8 9f 02 00 00       	call   804a9b0 <report_label_coverage>
 804a711:	83 c4 10             	add    $0x10,%esp
 804a714:	e9 13 f7 ff ff       	jmp    8049e2c <main+0x8fc>
 804a719:	8d 76 00             	lea    0x0(%esi),%esi
	report_label_coverage("ABS", 289);
}
// ABS Label 290
if(optind < 0)  {
asm volatile (""::: "memory");
	report_label_coverage("ABS", 290);
 804a71c:	8d 64 24 f0          	lea    -0x10(%esp),%esp
 804a720:	89 3c 24             	mov    %edi,(%esp)
 804a723:	89 54 24 04          	mov    %edx,0x4(%esp)
 804a727:	89 4c 24 08          	mov    %ecx,0x8(%esp)
 804a72b:	89 44 24 0c          	mov    %eax,0xc(%esp)
 804a72f:	b9 fb 65 00 00       	mov    $0x65fb,%ecx
 804a734:	e8 c7 4d 00 00       	call   804f500 <__afl_maybe_log>
 804a739:	8b 44 24 0c          	mov    0xc(%esp),%eax
 804a73d:	8b 4c 24 08          	mov    0x8(%esp),%ecx
 804a741:	8b 54 24 04          	mov    0x4(%esp),%edx
 804a745:	8b 3c 24             	mov    (%esp),%edi
 804a748:	8d 64 24 10          	lea    0x10(%esp),%esp
 804a74c:	50                   	push   %eax
 804a74d:	50                   	push   %eax
 804a74e:	68 22 01 00 00       	push   $0x122
 804a753:	68 5c 30 06 08       	push   $0x806305c
 804a758:	e8 53 02 00 00       	call   804a9b0 <report_label_coverage>
 804a75d:	83 c4 10             	add    $0x10,%esp
 804a760:	e9 db f2 ff ff       	jmp    8049a40 <main+0x510>
 804a765:	8d 76 00             	lea    0x0(%esi),%esi

  
// ABS Label 289
if(argc < 0)  {
asm volatile (""::: "memory");
	report_label_coverage("ABS", 289);
 804a768:	8d 64 24 f0          	lea    -0x10(%esp),%esp
 804a76c:	89 3c 24             	mov    %edi,(%esp)
 804a76f:	89 54 24 04          	mov    %edx,0x4(%esp)
 804a773:	89 4c 24 08          	mov    %ecx,0x8(%esp)
 804a777:	89 44 24 0c          	mov    %eax,0xc(%esp)
 804a77b:	b9 65 c6 00 00       	mov    $0xc665,%ecx
 804a780:	e8 7b 4d 00 00       	call   804f500 <__afl_maybe_log>
 804a785:	8b 44 24 0c          	mov    0xc(%esp),%eax
 804a789:	8b 4c 24 08          	mov    0x8(%esp),%ecx
 804a78d:	8b 54 24 04          	mov    0x4(%esp),%edx
 804a791:	8b 3c 24             	mov    (%esp),%edi
 804a794:	8d 64 24 10          	lea    0x10(%esp),%esp
 804a798:	50                   	push   %eax
 804a799:	50                   	push   %eax
 804a79a:	68 21 01 00 00       	push   $0x121
 804a79f:	68 5c 30 06 08       	push   $0x806305c
 804a7a4:	e8 07 02 00 00       	call   804a9b0 <report_label_coverage>
 804a7a9:	83 c4 10             	add    $0x10,%esp
 804a7ac:	e9 1f f2 ff ff       	jmp    80499d0 <main+0x4a0>
 804a7b1:	8d 76 00             	lea    0x0(%esi),%esi
	report_label_coverage("MCC", 309);
}
if ((strcmp(infile, "-") == 0))
            error(1, (*__errno_location()), gettext("closing standard input"));
        else
            error(1, (*__errno_location()), "%s", infile);
 804a7b4:	8d 64 24 f0          	lea    -0x10(%esp),%esp
 804a7b8:	89 3c 24             	mov    %edi,(%esp)
 804a7bb:	89 54 24 04          	mov    %edx,0x4(%esp)
 804a7bf:	89 4c 24 08          	mov    %ecx,0x8(%esp)
 804a7c3:	89 44 24 0c          	mov    %eax,0xc(%esp)
 804a7c7:	b9 a2 ea 00 00       	mov    $0xeaa2,%ecx
 804a7cc:	e8 2f 4d 00 00       	call   804f500 <__afl_maybe_log>
 804a7d1:	8b 44 24 0c          	mov    0xc(%esp),%eax
 804a7d5:	8b 4c 24 08          	mov    0x8(%esp),%ecx
 804a7d9:	8b 54 24 04          	mov    0x4(%esp),%edx
 804a7dd:	8b 3c 24             	mov    (%esp),%edi
 804a7e0:	8d 64 24 10          	lea    0x10(%esp),%esp
 804a7e4:	e8 e7 eb ff ff       	call   80493d0 <__errno_location@plt>
 804a7e9:	ff 75 d0             	pushl  -0x30(%ebp)
 804a7ec:	68 40 31 06 08       	push   $0x8063140
 804a7f1:	ff 30                	pushl  (%eax)
 804a7f3:	6a 01                	push   $0x1
 804a7f5:	e8 96 ea ff ff       	call   8049290 <error@plt>
 804a7fa:	83 c4 10             	add    $0x10,%esp
 804a7fd:	e9 46 fc ff ff       	jmp    804a448 <main+0xf18>
 804a802:	66 90                	xchg   %ax,%ax
if((input_fh != ((void *)0)) != (input_fh == ((void *)0)))  {
asm volatile (""::: "memory");
	report_label_coverage("ROR", 304);
}
if (input_fh == NULL)
        error (EXIT_FAILURE, errno, "%s", infile);
 804a804:	8d 64 24 f0          	lea    -0x10(%esp),%esp
 804a808:	89 3c 24             	mov    %edi,(%esp)
 804a80b:	89 54 24 04          	mov    %edx,0x4(%esp)
 804a80f:	89 4c 24 08          	mov    %ecx,0x8(%esp)
 804a813:	89 44 24 0c          	mov    %eax,0xc(%esp)
 804a817:	b9 c5 17 00 00       	mov    $0x17c5,%ecx
 804a81c:	e8 df 4c 00 00       	call   804f500 <__afl_maybe_log>
 804a821:	8b 44 24 0c          	mov    0xc(%esp),%eax
 804a825:	8b 4c 24 08          	mov    0x8(%esp),%ecx
 804a829:	8b 54 24 04          	mov    0x4(%esp),%edx
 804a82d:	8b 3c 24             	mov    (%esp),%edi
 804a830:	8d 64 24 10          	lea    0x10(%esp),%esp
 804a834:	e8 97 eb ff ff       	call   80493d0 <__errno_location@plt>
 804a839:	ff 75 d0             	pushl  -0x30(%ebp)
 804a83c:	68 40 31 06 08       	push   $0x8063140
 804a841:	ff 30                	pushl  (%eax)
 804a843:	6a 01                	push   $0x1
 804a845:	e8 46 ea ff ff       	call   8049290 <error@plt>
 804a84a:	83 c4 10             	add    $0x10,%esp
 804a84d:	e9 ea f9 ff ff       	jmp    804a23c <main+0xd0c>
 804a852:	66 90                	xchg   %ax,%ax
asm volatile (""::: "memory");
	report_label_coverage("ROR", 296);
}
if (argc - optind > 1)
    {
      error (0, 0, _("extra operand %s"), quote (argv[optind]));
 804a854:	8d 64 24 f0          	lea    -0x10(%esp),%esp
 804a858:	89 3c 24             	mov    %edi,(%esp)
 804a85b:	89 54 24 04          	mov    %edx,0x4(%esp)
 804a85f:	89 4c 24 08          	mov    %ecx,0x8(%esp)
 804a863:	89 44 24 0c          	mov    %eax,0xc(%esp)
 804a867:	b9 71 d8 00 00       	mov    $0xd871,%ecx
 804a86c:	e8 8f 4c 00 00       	call   804f500 <__afl_maybe_log>
 804a871:	8b 44 24 0c          	mov    0xc(%esp),%eax
 804a875:	8b 4c 24 08          	mov    0x8(%esp),%ecx
 804a879:	8b 54 24 04          	mov    0x4(%esp),%edx
 804a87d:	8b 3c 24             	mov    (%esp),%edi
 804a880:	8d 64 24 10          	lea    0x10(%esp),%esp
 804a884:	83 ec 0c             	sub    $0xc,%esp
 804a887:	ff 34 8b             	pushl  (%ebx,%ecx,4)
 804a88a:	e8 91 fa 00 00       	call   805a320 <quote>
 804a88f:	83 c4 0c             	add    $0xc,%esp
 804a892:	89 c3                	mov    %eax,%ebx
 804a894:	6a 05                	push   $0x5
 804a896:	68 53 31 06 08       	push   $0x8063153
 804a89b:	6a 00                	push   $0x0
 804a89d:	e8 3e e9 ff ff       	call   80491e0 <dcgettext@plt>
 804a8a2:	53                   	push   %ebx
 804a8a3:	50                   	push   %eax
 804a8a4:	6a 00                	push   $0x0
 804a8a6:	6a 00                	push   $0x0
 804a8a8:	e8 e3 e9 ff ff       	call   8049290 <error@plt>
      usage (EXIT_FAILURE);
 804a8ad:	83 c4 14             	add    $0x14,%esp
 804a8b0:	6a 01                	push   $0x1
 804a8b2:	e8 29 43 00 00       	call   804ebe0 <usage>
 804a8b7:	90                   	nop

0804a8b8 <_start>:
 804a8b8:	31 ed                	xor    %ebp,%ebp
 804a8ba:	5e                   	pop    %esi
 804a8bb:	89 e1                	mov    %esp,%ecx
 804a8bd:	83 e4 f0             	and    $0xfffffff0,%esp
 804a8c0:	50                   	push   %eax
 804a8c1:	54                   	push   %esp
 804a8c2:	52                   	push   %edx
 804a8c3:	68 e0 2f 06 08       	push   $0x8062fe0
 804a8c8:	68 70 2f 06 08       	push   $0x8062f70
 804a8cd:	51                   	push   %ecx
 804a8ce:	56                   	push   %esi
 804a8cf:	68 30 95 04 08       	push   $0x8049530
 804a8d4:	e8 97 ea ff ff       	call   8049370 <__libc_start_main@plt>
 804a8d9:	f4                   	hlt    
 804a8da:	66 90                	xchg   %ax,%ax
 804a8dc:	66 90                	xchg   %ax,%ax
 804a8de:	66 90                	xchg   %ax,%ax

0804a8e0 <__x86.get_pc_thunk.bx>:
 804a8e0:	8b 1c 24             	mov    (%esp),%ebx
 804a8e3:	c3                   	ret    
 804a8e4:	66 90                	xchg   %ax,%ax
 804a8e6:	66 90                	xchg   %ax,%ax
 804a8e8:	66 90                	xchg   %ax,%ax
 804a8ea:	66 90                	xchg   %ax,%ax
 804a8ec:	66 90                	xchg   %ax,%ax
 804a8ee:	66 90                	xchg   %ax,%ax

0804a8f0 <deregister_tm_clones>:
 804a8f0:	b8 a3 72 06 08       	mov    $0x80672a3,%eax
 804a8f5:	2d a0 72 06 08       	sub    $0x80672a0,%eax
 804a8fa:	83 f8 06             	cmp    $0x6,%eax
 804a8fd:	76 1a                	jbe    804a919 <deregister_tm_clones+0x29>
 804a8ff:	b8 00 00 00 00       	mov    $0x0,%eax
 804a904:	85 c0                	test   %eax,%eax
 804a906:	74 11                	je     804a919 <deregister_tm_clones+0x29>
 804a908:	55                   	push   %ebp
 804a909:	89 e5                	mov    %esp,%ebp
 804a90b:	83 ec 14             	sub    $0x14,%esp
 804a90e:	68 a0 72 06 08       	push   $0x80672a0
 804a913:	ff d0                	call   *%eax
 804a915:	83 c4 10             	add    $0x10,%esp
 804a918:	c9                   	leave  
 804a919:	f3 c3                	repz ret 
 804a91b:	90                   	nop
 804a91c:	8d 74 26 00          	lea    0x0(%esi,%eiz,1),%esi

0804a920 <register_tm_clones>:
 804a920:	b8 a0 72 06 08       	mov    $0x80672a0,%eax
 804a925:	2d a0 72 06 08       	sub    $0x80672a0,%eax
 804a92a:	c1 f8 02             	sar    $0x2,%eax
 804a92d:	89 c2                	mov    %eax,%edx
 804a92f:	c1 ea 1f             	shr    $0x1f,%edx
 804a932:	01 d0                	add    %edx,%eax
 804a934:	d1 f8                	sar    %eax
 804a936:	74 1b                	je     804a953 <register_tm_clones+0x33>
 804a938:	ba 00 00 00 00       	mov    $0x0,%edx
 804a93d:	85 d2                	test   %edx,%edx
 804a93f:	74 12                	je     804a953 <register_tm_clones+0x33>
 804a941:	55                   	push   %ebp
 804a942:	89 e5                	mov    %esp,%ebp
 804a944:	83 ec 10             	sub    $0x10,%esp
 804a947:	50                   	push   %eax
 804a948:	68 a0 72 06 08       	push   $0x80672a0
 804a94d:	ff d2                	call   *%edx
 804a94f:	83 c4 10             	add    $0x10,%esp
 804a952:	c9                   	leave  
 804a953:	f3 c3                	repz ret 
 804a955:	8d 74 26 00          	lea    0x0(%esi,%eiz,1),%esi
 804a959:	8d bc 27 00 00 00 00 	lea    0x0(%edi,%eiz,1),%edi

0804a960 <__do_global_dtors_aux>:
 804a960:	80 3d e4 72 06 08 00 	cmpb   $0x0,0x80672e4
 804a967:	75 13                	jne    804a97c <__do_global_dtors_aux+0x1c>
 804a969:	55                   	push   %ebp
 804a96a:	89 e5                	mov    %esp,%ebp
 804a96c:	83 ec 08             	sub    $0x8,%esp
 804a96f:	e8 7c ff ff ff       	call   804a8f0 <deregister_tm_clones>
 804a974:	c6 05 e4 72 06 08 01 	movb   $0x1,0x80672e4
 804a97b:	c9                   	leave  
 804a97c:	f3 c3                	repz ret 
 804a97e:	66 90                	xchg   %ax,%ax

0804a980 <frame_dummy>:
 804a980:	b8 08 70 06 08       	mov    $0x8067008,%eax
 804a985:	8b 10                	mov    (%eax),%edx
 804a987:	85 d2                	test   %edx,%edx
 804a989:	75 05                	jne    804a990 <frame_dummy+0x10>
 804a98b:	eb 93                	jmp    804a920 <register_tm_clones>
 804a98d:	8d 76 00             	lea    0x0(%esi),%esi
 804a990:	ba 00 00 00 00       	mov    $0x0,%edx
 804a995:	85 d2                	test   %edx,%edx
 804a997:	74 f2                	je     804a98b <frame_dummy+0xb>
 804a999:	55                   	push   %ebp
 804a99a:	89 e5                	mov    %esp,%ebp
 804a99c:	83 ec 14             	sub    $0x14,%esp
 804a99f:	50                   	push   %eax
 804a9a0:	ff d2                	call   *%edx
 804a9a2:	83 c4 10             	add    $0x10,%esp
 804a9a5:	c9                   	leave  
 804a9a6:	e9 75 ff ff ff       	jmp    804a920 <register_tm_clones>
 804a9ab:	66 90                	xchg   %ax,%ax
 804a9ad:	66 90                	xchg   %ax,%ax
 804a9af:	90                   	nop

0804a9b0 <report_label_coverage>:
void __attribute__ ((noinline)) report_label_coverage(char * crit, int id) {
	asm volatile (""::: "memory");
 804a9b0:	8d 64 24 f0          	lea    -0x10(%esp),%esp
 804a9b4:	89 3c 24             	mov    %edi,(%esp)
 804a9b7:	89 54 24 04          	mov    %edx,0x4(%esp)
 804a9bb:	89 4c 24 08          	mov    %ecx,0x8(%esp)
 804a9bf:	89 44 24 0c          	mov    %eax,0xc(%esp)
 804a9c3:	b9 8c a7 00 00       	mov    $0xa78c,%ecx
 804a9c8:	e8 33 4b 00 00       	call   804f500 <__afl_maybe_log>
 804a9cd:	8b 44 24 0c          	mov    0xc(%esp),%eax
 804a9d1:	8b 4c 24 08          	mov    0x8(%esp),%ecx
 804a9d5:	8b 54 24 04          	mov    0x4(%esp),%edx
 804a9d9:	8b 3c 24             	mov    (%esp),%edi
 804a9dc:	8d 64 24 10          	lea    0x10(%esp),%esp
 804a9e0:	c3                   	ret    
 804a9e1:	eb 0d                	jmp    804a9f0 <do_encode>
 804a9e3:	90                   	nop
 804a9e4:	90                   	nop
 804a9e5:	90                   	nop
 804a9e6:	90                   	nop
 804a9e7:	90                   	nop
 804a9e8:	90                   	nop
 804a9e9:	90                   	nop
 804a9ea:	90                   	nop
 804a9eb:	90                   	nop
 804a9ec:	90                   	nop
 804a9ed:	90                   	nop
 804a9ee:	90                   	nop
 804a9ef:	90                   	nop

0804a9f0 <do_encode>:

}

static void
do_encode (FILE *in, FILE *out, uintmax_t wrap_column)
{
 804a9f0:	8d 64 24 f0          	lea    -0x10(%esp),%esp
 804a9f4:	89 3c 24             	mov    %edi,(%esp)
 804a9f7:	89 54 24 04          	mov    %edx,0x4(%esp)
 804a9fb:	89 4c 24 08          	mov    %ecx,0x8(%esp)
 804a9ff:	89 44 24 0c          	mov    %eax,0xc(%esp)
 804aa03:	b9 ce f5 00 00       	mov    $0xf5ce,%ecx
 804aa08:	e8 f3 4a 00 00       	call   804f500 <__afl_maybe_log>
 804aa0d:	8b 44 24 0c          	mov    0xc(%esp),%eax
 804aa11:	8b 4c 24 08          	mov    0x8(%esp),%ecx
 804aa15:	8b 54 24 04          	mov    0x4(%esp),%edx
 804aa19:	8b 3c 24             	mov    (%esp),%edi
 804aa1c:	8d 64 24 10          	lea    0x10(%esp),%esp
 804aa20:	55                   	push   %ebp
 804aa21:	57                   	push   %edi
 804aa22:	89 c5                	mov    %eax,%ebp
 804aa24:	56                   	push   %esi
 804aa25:	53                   	push   %ebx
 804aa26:	81 ec 3c 18 01 00    	sub    $0x1183c,%esp
 804aa2c:	8b 84 24 50 18 01 00 	mov    0x11850(%esp),%eax
 804aa33:	89 54 24 20          	mov    %edx,0x20(%esp)
 804aa37:	8b 94 24 54 18 01 00 	mov    0x11854(%esp),%edx
  size_t current_column = 0;
 804aa3e:	c7 44 24 1c 00 00 00 	movl   $0x0,0x1c(%esp)
 804aa45:	00 
asm volatile (""::: "memory");
	report_label_coverage("ABS", 181);
}

// ROR Label 182
if((wrap_column != 0) != (wrap_column == 0))  {
 804aa46:	89 c7                	mov    %eax,%edi

}

static void
do_encode (FILE *in, FILE *out, uintmax_t wrap_column)
{
 804aa48:	89 44 24 08          	mov    %eax,0x8(%esp)
asm volatile (""::: "memory");
	report_label_coverage("ABS", 181);
}

// ROR Label 182
if((wrap_column != 0) != (wrap_column == 0))  {
 804aa4c:	09 d7                	or     %edx,%edi

}

static void
do_encode (FILE *in, FILE *out, uintmax_t wrap_column)
{
 804aa4e:	89 54 24 0c          	mov    %edx,0xc(%esp)
asm volatile (""::: "memory");
	report_label_coverage("ABS", 181);
}

// ROR Label 182
if((wrap_column != 0) != (wrap_column == 0))  {
 804aa52:	89 7c 24 2c          	mov    %edi,0x2c(%esp)
 804aa56:	8d 76 00             	lea    0x0(%esi),%esi
 804aa59:	8d bc 27 00 00 00 00 	lea    0x0(%edi,%eiz,1),%edi
  size_t sum;

  do {
    {
        size_t n;
        sum = 0;
 804aa60:	31 db                	xor    %ebx,%ebx
        do {
            {
                n = fread_unlocked(inbuf + sum, 1, (1024 * 3 * 10) - sum, in);
 804aa62:	be 00 78 00 00       	mov    $0x7800,%esi
 804aa67:	eb 7b                	jmp    804aae4 <do_encode+0xf4>
 804aa69:	8d b4 26 00 00 00 00 	lea    0x0(%esi,%eiz,1),%esi
// ABS Label 213
if(temp_2 < 0)  {
asm volatile (""::: "memory");
	report_label_coverage("ABS", 213);
}
if (temp_2)
 804aa70:	81 fb ff 77 00 00    	cmp    $0x77ff,%ebx
 804aa76:	0f 87 ec 00 00 00    	ja     804ab68 <do_encode+0x178>
 804aa7c:	8d 64 24 f0          	lea    -0x10(%esp),%esp
 804aa80:	89 3c 24             	mov    %edi,(%esp)
 804aa83:	89 54 24 04          	mov    %edx,0x4(%esp)
 804aa87:	89 4c 24 08          	mov    %ecx,0x8(%esp)
 804aa8b:	89 44 24 0c          	mov    %eax,0xc(%esp)
 804aa8f:	b9 40 1e 00 00       	mov    $0x1e40,%ecx
 804aa94:	e8 67 4a 00 00       	call   804f500 <__afl_maybe_log>
 804aa99:	8b 44 24 0c          	mov    0xc(%esp),%eax
 804aa9d:	8b 4c 24 08          	mov    0x8(%esp),%ecx
 804aaa1:	8b 54 24 04          	mov    0x4(%esp),%edx
 804aaa5:	8b 3c 24             	mov    (%esp),%edi
 804aaa8:	8d 64 24 10          	lea    0x10(%esp),%esp
 804aaac:	a8 20                	test   $0x20,%al
 804aaae:	0f 85 b4 00 00 00    	jne    804ab68 <do_encode+0x178>
 804aab4:	8d 64 24 f0          	lea    -0x10(%esp),%esp
 804aab8:	89 3c 24             	mov    %edi,(%esp)
 804aabb:	89 54 24 04          	mov    %edx,0x4(%esp)
 804aabf:	89 4c 24 08          	mov    %ecx,0x8(%esp)
 804aac3:	89 44 24 0c          	mov    %eax,0xc(%esp)
 804aac7:	b9 d4 70 00 00       	mov    $0x70d4,%ecx
 804aacc:	e8 2f 4a 00 00       	call   804f500 <__afl_maybe_log>
 804aad1:	8b 44 24 0c          	mov    0xc(%esp),%eax
 804aad5:	8b 4c 24 08          	mov    0x8(%esp),%ecx
 804aad9:	8b 54 24 04          	mov    0x4(%esp),%edx
 804aadd:	8b 3c 24             	mov    (%esp),%edi
 804aae0:	8d 64 24 10          	lea    0x10(%esp),%esp
    {
        size_t n;
        sum = 0;
        do {
            {
                n = fread_unlocked(inbuf + sum, 1, (1024 * 3 * 10) - sum, in);
 804aae4:	8d 64 24 f0          	lea    -0x10(%esp),%esp
 804aae8:	89 3c 24             	mov    %edi,(%esp)
 804aaeb:	89 54 24 04          	mov    %edx,0x4(%esp)
 804aaef:	89 4c 24 08          	mov    %ecx,0x8(%esp)
 804aaf3:	89 44 24 0c          	mov    %eax,0xc(%esp)
 804aaf7:	b9 62 73 00 00       	mov    $0x7362,%ecx
 804aafc:	e8 ff 49 00 00       	call   804f500 <__afl_maybe_log>
 804ab01:	8b 44 24 0c          	mov    0xc(%esp),%eax
 804ab05:	8b 4c 24 08          	mov    0x8(%esp),%ecx
 804ab09:	8b 54 24 04          	mov    0x4(%esp),%edx
 804ab0d:	8b 3c 24             	mov    (%esp),%edi
 804ab10:	8d 64 24 10          	lea    0x10(%esp),%esp
 804ab14:	89 f1                	mov    %esi,%ecx
 804ab16:	55                   	push   %ebp
 804ab17:	29 d9                	sub    %ebx,%ecx
 804ab19:	51                   	push   %ecx
 804ab1a:	6a 01                	push   $0x1
 804ab1c:	8d 44 24 3c          	lea    0x3c(%esp),%eax
 804ab20:	01 d8                	add    %ebx,%eax
 804ab22:	50                   	push   %eax
 804ab23:	e8 78 e7 ff ff       	call   80492a0 <fread_unlocked@plt>
                sum += n;
 804ab28:	01 c3                	add    %eax,%ebx
 804ab2a:	8b 45 00             	mov    0x0(%ebp),%eax
            }
            {
                int temp_2 = !(!feof_unlocked(in) && !ferror_unlocked(in) && sum < (1024 * 3 * 10));
 804ab2d:	83 c4 10             	add    $0x10,%esp
 804ab30:	a8 10                	test   $0x10,%al
 804ab32:	0f 84 38 ff ff ff    	je     804aa70 <do_encode+0x80>
 804ab38:	8d 64 24 f0          	lea    -0x10(%esp),%esp
 804ab3c:	89 3c 24             	mov    %edi,(%esp)
 804ab3f:	89 54 24 04          	mov    %edx,0x4(%esp)
 804ab43:	89 4c 24 08          	mov    %ecx,0x8(%esp)
 804ab47:	89 44 24 0c          	mov    %eax,0xc(%esp)
 804ab4b:	b9 b8 ec 00 00       	mov    $0xecb8,%ecx
 804ab50:	e8 ab 49 00 00       	call   804f500 <__afl_maybe_log>
 804ab55:	8b 44 24 0c          	mov    0xc(%esp),%eax
 804ab59:	8b 4c 24 08          	mov    0x8(%esp),%ecx
 804ab5d:	8b 54 24 04          	mov    0x4(%esp),%edx
 804ab61:	8b 3c 24             	mov    (%esp),%edi
 804ab64:	8d 64 24 10          	lea    0x10(%esp),%esp
asm volatile (""::: "memory");
	report_label_coverage("ABS", 214);
}

// ROR Label 215
if((sum <= 0) != (sum > 0))  {
 804ab68:	8d 64 24 f0          	lea    -0x10(%esp),%esp
 804ab6c:	89 3c 24             	mov    %edi,(%esp)
 804ab6f:	89 54 24 04          	mov    %edx,0x4(%esp)
 804ab73:	89 4c 24 08          	mov    %ecx,0x8(%esp)
 804ab77:	89 44 24 0c          	mov    %eax,0xc(%esp)
 804ab7b:	b9 ae 57 00 00       	mov    $0x57ae,%ecx
 804ab80:	e8 7b 49 00 00       	call   804f500 <__afl_maybe_log>
 804ab85:	8b 44 24 0c          	mov    0xc(%esp),%eax
 804ab89:	8b 4c 24 08          	mov    0x8(%esp),%ecx
 804ab8d:	8b 54 24 04          	mov    0x4(%esp),%edx
 804ab91:	8b 3c 24             	mov    (%esp),%edi
 804ab94:	8d 64 24 10          	lea    0x10(%esp),%esp
 804ab98:	85 db                	test   %ebx,%ebx
 804ab9a:	0f 95 44 24 17       	setne  0x17(%esp)
 804ab9f:	0f b6 54 24 17       	movzbl 0x17(%esp),%edx
 804aba4:	0f 94 c1             	sete   %cl
 804aba7:	38 d1                	cmp    %dl,%cl
 804aba9:	74 46                	je     804abf1 <do_encode+0x201>
 804abab:	90                   	nop
 804abac:	8d 64 24 f0          	lea    -0x10(%esp),%esp
 804abb0:	89 3c 24             	mov    %edi,(%esp)
 804abb3:	89 54 24 04          	mov    %edx,0x4(%esp)
 804abb7:	89 4c 24 08          	mov    %ecx,0x8(%esp)
 804abbb:	89 44 24 0c          	mov    %eax,0xc(%esp)
 804abbf:	b9 2e c0 00 00       	mov    $0xc02e,%ecx
 804abc4:	e8 37 49 00 00       	call   804f500 <__afl_maybe_log>
 804abc9:	8b 44 24 0c          	mov    0xc(%esp),%eax
 804abcd:	8b 4c 24 08          	mov    0x8(%esp),%ecx
 804abd1:	8b 54 24 04          	mov    0x4(%esp),%edx
 804abd5:	8b 3c 24             	mov    (%esp),%edi
 804abd8:	8d 64 24 10          	lea    0x10(%esp),%esp
asm volatile (""::: "memory");
	report_label_coverage("ROR", 215);
 804abdc:	83 ec 08             	sub    $0x8,%esp
 804abdf:	68 d7 00 00 00       	push   $0xd7
 804abe4:	68 48 30 06 08       	push   $0x8063048
 804abe9:	e8 c2 fd ff ff       	call   804a9b0 <report_label_coverage>
 804abee:	83 c4 10             	add    $0x10,%esp
 804abf1:	8d 76 00             	lea    0x0(%esi),%esi
}
// ROR Label 216
if((sum < 0) != (sum > 0))  {
 804abf4:	8d 64 24 f0          	lea    -0x10(%esp),%esp
 804abf8:	89 3c 24             	mov    %edi,(%esp)
 804abfb:	89 54 24 04          	mov    %edx,0x4(%esp)
 804abff:	89 4c 24 08          	mov    %ecx,0x8(%esp)
 804ac03:	89 44 24 0c          	mov    %eax,0xc(%esp)
 804ac07:	b9 d8 f7 00 00       	mov    $0xf7d8,%ecx
 804ac0c:	e8 ef 48 00 00       	call   804f500 <__afl_maybe_log>
 804ac11:	8b 44 24 0c          	mov    0xc(%esp),%eax
 804ac15:	8b 4c 24 08          	mov    0x8(%esp),%ecx
 804ac19:	8b 54 24 04          	mov    0x4(%esp),%edx
 804ac1d:	8b 3c 24             	mov    (%esp),%edi
 804ac20:	8d 64 24 10          	lea    0x10(%esp),%esp
 804ac24:	80 7c 24 17 00       	cmpb   $0x0,0x17(%esp)
 804ac29:	0f 85 e9 04 00 00    	jne    804b118 <do_encode+0x728>
 804ac2f:	90                   	nop
 804ac30:	8d 64 24 f0          	lea    -0x10(%esp),%esp
 804ac34:	89 3c 24             	mov    %edi,(%esp)
 804ac37:	89 54 24 04          	mov    %edx,0x4(%esp)
 804ac3b:	89 4c 24 08          	mov    %ecx,0x8(%esp)
 804ac3f:	89 44 24 0c          	mov    %eax,0xc(%esp)
 804ac43:	b9 38 89 00 00       	mov    $0x8938,%ecx
 804ac48:	e8 b3 48 00 00       	call   804f500 <__afl_maybe_log>
 804ac4d:	8b 44 24 0c          	mov    0xc(%esp),%eax
 804ac51:	8b 4c 24 08          	mov    0x8(%esp),%ecx
 804ac55:	8b 54 24 04          	mov    0x4(%esp),%edx
 804ac59:	8b 3c 24             	mov    (%esp),%edi
 804ac5c:	8d 64 24 10          	lea    0x10(%esp),%esp
	report_label_coverage("ROR", 216);
}
// ROR Label 217
if((sum >= 0) != (sum > 0))  {
asm volatile (""::: "memory");
	report_label_coverage("ROR", 217);
 804ac60:	83 ec 08             	sub    $0x8,%esp
 804ac63:	68 d9 00 00 00       	push   $0xd9
 804ac68:	68 48 30 06 08       	push   $0x8063048
 804ac6d:	e8 3e fd ff ff       	call   804a9b0 <report_label_coverage>
 804ac72:	83 c4 10             	add    $0x10,%esp
 804ac75:	8d 76 00             	lea    0x0(%esi),%esi
 804ac78:	8d 64 24 f0          	lea    -0x10(%esp),%esp
 804ac7c:	89 3c 24             	mov    %edi,(%esp)
 804ac7f:	89 54 24 04          	mov    %edx,0x4(%esp)
 804ac83:	89 4c 24 08          	mov    %ecx,0x8(%esp)
 804ac87:	89 44 24 0c          	mov    %eax,0xc(%esp)
 804ac8b:	b9 f7 c2 00 00       	mov    $0xc2f7,%ecx
 804ac90:	e8 6b 48 00 00       	call   804f500 <__afl_maybe_log>
 804ac95:	8b 44 24 0c          	mov    0xc(%esp),%eax
 804ac99:	8b 4c 24 08          	mov    0x8(%esp),%ecx
 804ac9d:	8b 54 24 04          	mov    0x4(%esp),%edx
 804aca1:	8b 3c 24             	mov    (%esp),%edi
 804aca4:	8d 64 24 10          	lea    0x10(%esp),%esp
 804aca8:	8b 45 00             	mov    0x0(%ebp),%eax
}
wrap_write(outbuf, ((((sum) + 2) / 3) * 4), wrap_column, &current_column, out);
        }
    }
    {
        int temp_1 = !(!feof_unlocked(in) && !ferror_unlocked(in) && sum == (1024 * 3 * 10));
 804acab:	a8 10                	test   $0x10,%al
 804acad:	0f 85 a1 00 00 00    	jne    804ad54 <do_encode+0x364>
 804acb3:	90                   	nop
 804acb4:	8d 64 24 f0          	lea    -0x10(%esp),%esp
 804acb8:	89 3c 24             	mov    %edi,(%esp)
 804acbb:	89 54 24 04          	mov    %edx,0x4(%esp)
 804acbf:	89 4c 24 08          	mov    %ecx,0x8(%esp)
 804acc3:	89 44 24 0c          	mov    %eax,0xc(%esp)
 804acc7:	b9 54 8d 00 00       	mov    $0x8d54,%ecx
 804accc:	e8 2f 48 00 00       	call   804f500 <__afl_maybe_log>
 804acd1:	8b 44 24 0c          	mov    0xc(%esp),%eax
 804acd5:	8b 4c 24 08          	mov    0x8(%esp),%ecx
 804acd9:	8b 54 24 04          	mov    0x4(%esp),%edx
 804acdd:	8b 3c 24             	mov    (%esp),%edi
 804ace0:	8d 64 24 10          	lea    0x10(%esp),%esp
// ABS Label 221
if(temp_1 < 0)  {
asm volatile (""::: "memory");
	report_label_coverage("ABS", 221);
}
if (temp_1)
 804ace4:	81 fb 00 78 00 00    	cmp    $0x7800,%ebx
 804acea:	75 68                	jne    804ad54 <do_encode+0x364>
 804acec:	8d 64 24 f0          	lea    -0x10(%esp),%esp
 804acf0:	89 3c 24             	mov    %edi,(%esp)
 804acf3:	89 54 24 04          	mov    %edx,0x4(%esp)
 804acf7:	89 4c 24 08          	mov    %ecx,0x8(%esp)
 804acfb:	89 44 24 0c          	mov    %eax,0xc(%esp)
 804acff:	b9 d4 9b 00 00       	mov    $0x9bd4,%ecx
 804ad04:	e8 f7 47 00 00       	call   804f500 <__afl_maybe_log>
 804ad09:	8b 44 24 0c          	mov    0xc(%esp),%eax
 804ad0d:	8b 4c 24 08          	mov    0x8(%esp),%ecx
 804ad11:	8b 54 24 04          	mov    0x4(%esp),%edx
 804ad15:	8b 3c 24             	mov    (%esp),%edi
 804ad18:	8d 64 24 10          	lea    0x10(%esp),%esp
 804ad1c:	a8 20                	test   $0x20,%al
 804ad1e:	0f 84 3c fd ff ff    	je     804aa60 <do_encode+0x70>
 804ad24:	8d 64 24 f0          	lea    -0x10(%esp),%esp
 804ad28:	89 3c 24             	mov    %edi,(%esp)
 804ad2b:	89 54 24 04          	mov    %edx,0x4(%esp)
 804ad2f:	89 4c 24 08          	mov    %ecx,0x8(%esp)
 804ad33:	89 44 24 0c          	mov    %eax,0xc(%esp)
 804ad37:	b9 14 7a 00 00       	mov    $0x7a14,%ecx
 804ad3c:	e8 bf 47 00 00       	call   804f500 <__afl_maybe_log>
 804ad41:	8b 44 24 0c          	mov    0xc(%esp),%eax
 804ad45:	8b 4c 24 08          	mov    0x8(%esp),%ecx
 804ad49:	8b 54 24 04          	mov    0x4(%esp),%edx
 804ad4d:	8b 3c 24             	mov    (%esp),%edi
 804ad50:	8d 64 24 10          	lea    0x10(%esp),%esp
asm volatile (""::: "memory");
	report_label_coverage("ABS", 223);
}

// COR Label 224
if((wrap_column || current_column > 0) != (wrap_column && current_column > 0))  {
 804ad54:	8d 64 24 f0          	lea    -0x10(%esp),%esp
 804ad58:	89 3c 24             	mov    %edi,(%esp)
 804ad5b:	89 54 24 04          	mov    %edx,0x4(%esp)
 804ad5f:	89 4c 24 08          	mov    %ecx,0x8(%esp)
 804ad63:	89 44 24 0c          	mov    %eax,0xc(%esp)
 804ad67:	b9 3f 6a 00 00       	mov    $0x6a3f,%ecx
 804ad6c:	e8 8f 47 00 00       	call   804f500 <__afl_maybe_log>
 804ad71:	8b 44 24 0c          	mov    0xc(%esp),%eax
 804ad75:	8b 4c 24 08          	mov    0x8(%esp),%ecx
 804ad79:	8b 54 24 04          	mov    0x4(%esp),%edx
 804ad7d:	8b 3c 24             	mov    (%esp),%edi
 804ad80:	8d 64 24 10          	lea    0x10(%esp),%esp
 804ad84:	8b 74 24 0c          	mov    0xc(%esp),%esi
 804ad88:	8b 5c 24 08          	mov    0x8(%esp),%ebx
 804ad8c:	89 f2                	mov    %esi,%edx
 804ad8e:	09 da                	or     %ebx,%edx
 804ad90:	0f 85 48 11 00 00    	jne    804bede <do_encode+0x14ee>
 804ad96:	66 90                	xchg   %ax,%ax
 804ad98:	8d 64 24 f0          	lea    -0x10(%esp),%esp
 804ad9c:	89 3c 24             	mov    %edi,(%esp)
 804ad9f:	89 54 24 04          	mov    %edx,0x4(%esp)
 804ada3:	89 4c 24 08          	mov    %ecx,0x8(%esp)
 804ada7:	89 44 24 0c          	mov    %eax,0xc(%esp)
 804adab:	b9 bd 9c 00 00       	mov    $0x9cbd,%ecx
 804adb0:	e8 4b 47 00 00       	call   804f500 <__afl_maybe_log>
 804adb5:	8b 44 24 0c          	mov    0xc(%esp),%eax
 804adb9:	8b 4c 24 08          	mov    0x8(%esp),%ecx
 804adbd:	8b 54 24 04          	mov    0x4(%esp),%edx
 804adc1:	8b 3c 24             	mov    (%esp),%edi
 804adc4:	8d 64 24 10          	lea    0x10(%esp),%esp
 804adc8:	83 7c 24 1c 00       	cmpl   $0x0,0x1c(%esp)
 804adcd:	0f 85 79 11 00 00    	jne    804bf4c <do_encode+0x155c>
 804add3:	90                   	nop
 804add4:	8d 64 24 f0          	lea    -0x10(%esp),%esp
 804add8:	89 3c 24             	mov    %edi,(%esp)
 804addb:	89 54 24 04          	mov    %edx,0x4(%esp)
 804addf:	89 4c 24 08          	mov    %ecx,0x8(%esp)
 804ade3:	89 44 24 0c          	mov    %eax,0xc(%esp)
 804ade7:	b9 35 69 00 00       	mov    $0x6935,%ecx
 804adec:	e8 0f 47 00 00       	call   804f500 <__afl_maybe_log>
 804adf1:	8b 44 24 0c          	mov    0xc(%esp),%eax
 804adf5:	8b 4c 24 08          	mov    0x8(%esp),%ecx
 804adf9:	8b 54 24 04          	mov    0x4(%esp),%edx
 804adfd:	8b 3c 24             	mov    (%esp),%edi
 804ae00:	8d 64 24 10          	lea    0x10(%esp),%esp
asm volatile (""::: "memory");
	report_label_coverage("COR", 224);
}

// ROR Label 225
if((current_column <= 0) != (current_column > 0))  {
 804ae04:	8d 64 24 f0          	lea    -0x10(%esp),%esp
 804ae08:	89 3c 24             	mov    %edi,(%esp)
 804ae0b:	89 54 24 04          	mov    %edx,0x4(%esp)
 804ae0f:	89 4c 24 08          	mov    %ecx,0x8(%esp)
 804ae13:	89 44 24 0c          	mov    %eax,0xc(%esp)
 804ae17:	b9 d7 3e 00 00       	mov    $0x3ed7,%ecx
 804ae1c:	e8 df 46 00 00       	call   804f500 <__afl_maybe_log>
 804ae21:	8b 44 24 0c          	mov    0xc(%esp),%eax
 804ae25:	8b 4c 24 08          	mov    0x8(%esp),%ecx
 804ae29:	8b 54 24 04          	mov    0x4(%esp),%edx
 804ae2d:	8b 3c 24             	mov    (%esp),%edi
 804ae30:	8d 64 24 10          	lea    0x10(%esp),%esp
 804ae34:	8b 4c 24 1c          	mov    0x1c(%esp),%ecx
 804ae38:	85 c9                	test   %ecx,%ecx
 804ae3a:	0f 94 c0             	sete   %al
 804ae3d:	0f 95 c3             	setne  %bl
 804ae40:	38 d8                	cmp    %bl,%al
 804ae42:	89 c6                	mov    %eax,%esi
 804ae44:	74 46                	je     804ae8c <do_encode+0x49c>
 804ae46:	66 90                	xchg   %ax,%ax
 804ae48:	8d 64 24 f0          	lea    -0x10(%esp),%esp
 804ae4c:	89 3c 24             	mov    %edi,(%esp)
 804ae4f:	89 54 24 04          	mov    %edx,0x4(%esp)
 804ae53:	89 4c 24 08          	mov    %ecx,0x8(%esp)
 804ae57:	89 44 24 0c          	mov    %eax,0xc(%esp)
 804ae5b:	b9 c4 24 00 00       	mov    $0x24c4,%ecx
 804ae60:	e8 9b 46 00 00       	call   804f500 <__afl_maybe_log>
 804ae65:	8b 44 24 0c          	mov    0xc(%esp),%eax
 804ae69:	8b 4c 24 08          	mov    0x8(%esp),%ecx
 804ae6d:	8b 54 24 04          	mov    0x4(%esp),%edx
 804ae71:	8b 3c 24             	mov    (%esp),%edi
 804ae74:	8d 64 24 10          	lea    0x10(%esp),%esp
asm volatile (""::: "memory");
	report_label_coverage("ROR", 225);
 804ae78:	51                   	push   %ecx
 804ae79:	51                   	push   %ecx
 804ae7a:	68 e1 00 00 00       	push   $0xe1
 804ae7f:	68 48 30 06 08       	push   $0x8063048
 804ae84:	e8 27 fb ff ff       	call   804a9b0 <report_label_coverage>
 804ae89:	83 c4 10             	add    $0x10,%esp
}
// ROR Label 226
if((current_column < 0) != (current_column > 0))  {
 804ae8c:	8d 64 24 f0          	lea    -0x10(%esp),%esp
 804ae90:	89 3c 24             	mov    %edi,(%esp)
 804ae93:	89 54 24 04          	mov    %edx,0x4(%esp)
 804ae97:	89 4c 24 08          	mov    %ecx,0x8(%esp)
 804ae9b:	89 44 24 0c          	mov    %eax,0xc(%esp)
 804ae9f:	b9 6a e9 00 00       	mov    $0xe96a,%ecx
 804aea4:	e8 57 46 00 00       	call   804f500 <__afl_maybe_log>
 804aea9:	8b 44 24 0c          	mov    0xc(%esp),%eax
 804aead:	8b 4c 24 08          	mov    0x8(%esp),%ecx
 804aeb1:	8b 54 24 04          	mov    0x4(%esp),%edx
 804aeb5:	8b 3c 24             	mov    (%esp),%edi
 804aeb8:	8d 64 24 10          	lea    0x10(%esp),%esp
 804aebc:	84 db                	test   %bl,%bl
 804aebe:	0f 85 69 12 00 00    	jne    804c12d <do_encode+0x173d>
 804aec4:	8d 64 24 f0          	lea    -0x10(%esp),%esp
 804aec8:	89 3c 24             	mov    %edi,(%esp)
 804aecb:	89 54 24 04          	mov    %edx,0x4(%esp)
 804aecf:	89 4c 24 08          	mov    %ecx,0x8(%esp)
 804aed3:	89 44 24 0c          	mov    %eax,0xc(%esp)
 804aed7:	b9 20 4d 00 00       	mov    $0x4d20,%ecx
 804aedc:	e8 1f 46 00 00       	call   804f500 <__afl_maybe_log>
 804aee1:	8b 44 24 0c          	mov    0xc(%esp),%eax
 804aee5:	8b 4c 24 08          	mov    0x8(%esp),%ecx
 804aee9:	8b 54 24 04          	mov    0x4(%esp),%edx
 804aeed:	8b 3c 24             	mov    (%esp),%edi
 804aef0:	8d 64 24 10          	lea    0x10(%esp),%esp
asm volatile (""::: "memory");
	report_label_coverage("ROR", 226);
}
// ROR Label 227
if((current_column >= 0) != (current_column > 0))  {
 804aef4:	8d 64 24 f0          	lea    -0x10(%esp),%esp
 804aef8:	89 3c 24             	mov    %edi,(%esp)
 804aefb:	89 54 24 04          	mov    %edx,0x4(%esp)
 804aeff:	89 4c 24 08          	mov    %ecx,0x8(%esp)
 804af03:	89 44 24 0c          	mov    %eax,0xc(%esp)
 804af07:	b9 04 99 00 00       	mov    $0x9904,%ecx
 804af0c:	e8 ef 45 00 00       	call   804f500 <__afl_maybe_log>
 804af11:	8b 44 24 0c          	mov    0xc(%esp),%eax
 804af15:	8b 4c 24 08          	mov    0x8(%esp),%ecx
 804af19:	8b 54 24 04          	mov    0x4(%esp),%edx
 804af1d:	8b 3c 24             	mov    (%esp),%edi
 804af20:	8d 64 24 10          	lea    0x10(%esp),%esp
 804af24:	89 f1                	mov    %esi,%ecx
 804af26:	84 c9                	test   %cl,%cl
 804af28:	0f 85 b5 11 00 00    	jne    804c0e3 <do_encode+0x16f3>
 804af2e:	66 90                	xchg   %ax,%ax
 804af30:	8d 64 24 f0          	lea    -0x10(%esp),%esp
 804af34:	89 3c 24             	mov    %edi,(%esp)
 804af37:	89 54 24 04          	mov    %edx,0x4(%esp)
 804af3b:	89 4c 24 08          	mov    %ecx,0x8(%esp)
 804af3f:	89 44 24 0c          	mov    %eax,0xc(%esp)
 804af43:	b9 fe 3c 00 00       	mov    $0x3cfe,%ecx
 804af48:	e8 b3 45 00 00       	call   804f500 <__afl_maybe_log>
 804af4d:	8b 44 24 0c          	mov    0xc(%esp),%eax
 804af51:	8b 4c 24 08          	mov    0x8(%esp),%ecx
 804af55:	8b 54 24 04          	mov    0x4(%esp),%edx
 804af59:	8b 3c 24             	mov    (%esp),%edi
 804af5c:	8d 64 24 10          	lea    0x10(%esp),%esp
asm volatile (""::: "memory");
	report_label_coverage("ROR", 227);
}

// MCC Label 228
if(wrap_column && current_column > 0 ) {
 804af60:	8d 64 24 f0          	lea    -0x10(%esp),%esp
 804af64:	89 3c 24             	mov    %edi,(%esp)
 804af67:	89 54 24 04          	mov    %edx,0x4(%esp)
 804af6b:	89 4c 24 08          	mov    %ecx,0x8(%esp)
 804af6f:	89 44 24 0c          	mov    %eax,0xc(%esp)
 804af73:	b9 a3 30 00 00       	mov    $0x30a3,%ecx
 804af78:	e8 83 45 00 00       	call   804f500 <__afl_maybe_log>
 804af7d:	8b 44 24 0c          	mov    0xc(%esp),%eax
 804af81:	8b 4c 24 08          	mov    0x8(%esp),%ecx
 804af85:	8b 54 24 04          	mov    0x4(%esp),%edx
 804af89:	8b 3c 24             	mov    (%esp),%edi
 804af8c:	8d 64 24 10          	lea    0x10(%esp),%esp
 804af90:	8b 7c 24 0c          	mov    0xc(%esp),%edi
 804af94:	8b 44 24 08          	mov    0x8(%esp),%eax
 804af98:	89 fa                	mov    %edi,%edx
 804af9a:	09 c2                	or     %eax,%edx
 804af9c:	0f 84 f3 0f 00 00    	je     804bf95 <do_encode+0x15a5>
 804afa2:	66 90                	xchg   %ax,%ax
 804afa4:	8d 64 24 f0          	lea    -0x10(%esp),%esp
 804afa8:	89 3c 24             	mov    %edi,(%esp)
 804afab:	89 54 24 04          	mov    %edx,0x4(%esp)
 804afaf:	89 4c 24 08          	mov    %ecx,0x8(%esp)
 804afb3:	89 44 24 0c          	mov    %eax,0xc(%esp)
 804afb7:	b9 d1 54 00 00       	mov    $0x54d1,%ecx
 804afbc:	e8 3f 45 00 00       	call   804f500 <__afl_maybe_log>
 804afc1:	8b 44 24 0c          	mov    0xc(%esp),%eax
 804afc5:	8b 4c 24 08          	mov    0x8(%esp),%ecx
 804afc9:	8b 54 24 04          	mov    0x4(%esp),%edx
 804afcd:	8b 3c 24             	mov    (%esp),%edi
 804afd0:	8d 64 24 10          	lea    0x10(%esp),%esp
 804afd4:	84 db                	test   %bl,%bl
 804afd6:	0f 85 9d 11 00 00    	jne    804c179 <do_encode+0x1789>
 804afdc:	8d 64 24 f0          	lea    -0x10(%esp),%esp
 804afe0:	89 3c 24             	mov    %edi,(%esp)
 804afe3:	89 54 24 04          	mov    %edx,0x4(%esp)
 804afe7:	89 4c 24 08          	mov    %ecx,0x8(%esp)
 804afeb:	89 44 24 0c          	mov    %eax,0xc(%esp)
 804afef:	b9 0a b6 00 00       	mov    $0xb60a,%ecx
 804aff4:	e8 07 45 00 00       	call   804f500 <__afl_maybe_log>
 804aff9:	8b 44 24 0c          	mov    0xc(%esp),%eax
 804affd:	8b 4c 24 08          	mov    0x8(%esp),%ecx
 804b001:	8b 54 24 04          	mov    0x4(%esp),%edx
 804b005:	8b 3c 24             	mov    (%esp),%edi
 804b008:	8d 64 24 10          	lea    0x10(%esp),%esp
asm volatile (""::: "memory");
	report_label_coverage("MCC", 228);
}
// MCC Label 229
if(wrap_column && !(current_column > 0) ) {
 804b00c:	89 f1                	mov    %esi,%ecx
 804b00e:	84 c9                	test   %cl,%cl
 804b010:	0f 85 e3 13 00 00    	jne    804c3f9 <do_encode+0x1a09>
 804b016:	66 90                	xchg   %ax,%ax
 804b018:	8d 64 24 f0          	lea    -0x10(%esp),%esp
 804b01c:	89 3c 24             	mov    %edi,(%esp)
 804b01f:	89 54 24 04          	mov    %edx,0x4(%esp)
 804b023:	89 4c 24 08          	mov    %ecx,0x8(%esp)
 804b027:	89 44 24 0c          	mov    %eax,0xc(%esp)
 804b02b:	b9 94 7e 00 00       	mov    $0x7e94,%ecx
 804b030:	e8 cb 44 00 00       	call   804f500 <__afl_maybe_log>
 804b035:	8b 44 24 0c          	mov    0xc(%esp),%eax
 804b039:	8b 4c 24 08          	mov    0x8(%esp),%ecx
 804b03d:	8b 54 24 04          	mov    0x4(%esp),%edx
 804b041:	8b 3c 24             	mov    (%esp),%edi
 804b044:	8d 64 24 10          	lea    0x10(%esp),%esp
// ABS Label 235
if(temp_1 < 0)  {
asm volatile (""::: "memory");
	report_label_coverage("ABS", 235);
}
if (temp_1)
 804b048:	8d 64 24 f0          	lea    -0x10(%esp),%esp
 804b04c:	89 3c 24             	mov    %edi,(%esp)
 804b04f:	89 54 24 04          	mov    %edx,0x4(%esp)
 804b053:	89 4c 24 08          	mov    %ecx,0x8(%esp)
 804b057:	89 44 24 0c          	mov    %eax,0xc(%esp)
 804b05b:	b9 8b 93 00 00       	mov    $0x938b,%ecx
 804b060:	e8 9b 44 00 00       	call   804f500 <__afl_maybe_log>
 804b065:	8b 44 24 0c          	mov    0xc(%esp),%eax
 804b069:	8b 4c 24 08          	mov    0x8(%esp),%ecx
 804b06d:	8b 54 24 04          	mov    0x4(%esp),%edx
 804b071:	8b 3c 24             	mov    (%esp),%edi
 804b074:	8d 64 24 10          	lea    0x10(%esp),%esp
 804b078:	f6 45 00 20          	testb  $0x20,0x0(%ebp)
 804b07c:	74 58                	je     804b0d6 <do_encode+0x6e6>
 804b07e:	66 90                	xchg   %ax,%ax
 804b080:	8d 64 24 f0          	lea    -0x10(%esp),%esp
 804b084:	89 3c 24             	mov    %edi,(%esp)
 804b087:	89 54 24 04          	mov    %edx,0x4(%esp)
 804b08b:	89 4c 24 08          	mov    %ecx,0x8(%esp)
 804b08f:	89 44 24 0c          	mov    %eax,0xc(%esp)
 804b093:	b9 76 b0 00 00       	mov    $0xb076,%ecx
 804b098:	e8 63 44 00 00       	call   804f500 <__afl_maybe_log>
 804b09d:	8b 44 24 0c          	mov    0xc(%esp),%eax
 804b0a1:	8b 4c 24 08          	mov    0x8(%esp),%ecx
 804b0a5:	8b 54 24 04          	mov    0x4(%esp),%edx
 804b0a9:	8b 3c 24             	mov    (%esp),%edi
 804b0ac:	8d 64 24 10          	lea    0x10(%esp),%esp
        error(1, (*__errno_location()), gettext("read error"));
 804b0b0:	52                   	push   %edx
 804b0b1:	6a 05                	push   $0x5
 804b0b3:	68 68 30 06 08       	push   $0x8063068
 804b0b8:	6a 00                	push   $0x0
 804b0ba:	e8 21 e1 ff ff       	call   80491e0 <dcgettext@plt>
 804b0bf:	89 c5                	mov    %eax,%ebp
 804b0c1:	e8 0a e3 ff ff       	call   80493d0 <__errno_location@plt>
 804b0c6:	83 c4 0c             	add    $0xc,%esp
 804b0c9:	55                   	push   %ebp
 804b0ca:	ff 30                	pushl  (%eax)
 804b0cc:	6a 01                	push   $0x1
 804b0ce:	e8 bd e1 ff ff       	call   8049290 <error@plt>
 804b0d3:	83 c4 10             	add    $0x10,%esp
 804b0d6:	66 90                	xchg   %ax,%ax
}
;
}
 804b0d8:	8d 64 24 f0          	lea    -0x10(%esp),%esp
 804b0dc:	89 3c 24             	mov    %edi,(%esp)
 804b0df:	89 54 24 04          	mov    %edx,0x4(%esp)
 804b0e3:	89 4c 24 08          	mov    %ecx,0x8(%esp)
 804b0e7:	89 44 24 0c          	mov    %eax,0xc(%esp)
 804b0eb:	b9 9a 0f 00 00       	mov    $0xf9a,%ecx
 804b0f0:	e8 0b 44 00 00       	call   804f500 <__afl_maybe_log>
 804b0f5:	8b 44 24 0c          	mov    0xc(%esp),%eax
 804b0f9:	8b 4c 24 08          	mov    0x8(%esp),%ecx
 804b0fd:	8b 54 24 04          	mov    0x4(%esp),%edx
 804b101:	8b 3c 24             	mov    (%esp),%edi
 804b104:	8d 64 24 10          	lea    0x10(%esp),%esp
 804b108:	81 c4 3c 18 01 00    	add    $0x1183c,%esp
 804b10e:	5b                   	pop    %ebx
 804b10f:	5e                   	pop    %esi
 804b110:	5f                   	pop    %edi
 804b111:	5d                   	pop    %ebp
 804b112:	c3                   	ret    
 804b113:	90                   	nop
 804b114:	8d 74 26 00          	lea    0x0(%esi,%eiz,1),%esi
	report_label_coverage("ROR", 215);
}
// ROR Label 216
if((sum < 0) != (sum > 0))  {
asm volatile (""::: "memory");
	report_label_coverage("ROR", 216);
 804b118:	83 ec 08             	sub    $0x8,%esp
// ABS Label 218
if(sum < 0)  {
asm volatile (""::: "memory");
	report_label_coverage("ABS", 218);
}
base64_encode(inbuf, sum, outbuf, ((((sum) + 2) / 3) * 4));
 804b11b:	bf ab aa aa aa       	mov    $0xaaaaaaab,%edi
	report_label_coverage("ROR", 215);
}
// ROR Label 216
if((sum < 0) != (sum > 0))  {
asm volatile (""::: "memory");
	report_label_coverage("ROR", 216);
 804b120:	68 d8 00 00 00       	push   $0xd8
 804b125:	68 48 30 06 08       	push   $0x8063048
 804b12a:	e8 81 f8 ff ff       	call   804a9b0 <report_label_coverage>
// ABS Label 218
if(sum < 0)  {
asm volatile (""::: "memory");
	report_label_coverage("ABS", 218);
}
base64_encode(inbuf, sum, outbuf, ((((sum) + 2) / 3) * 4));
 804b12f:	8d 43 02             	lea    0x2(%ebx),%eax
 804b132:	f7 e7                	mul    %edi
 804b134:	d1 ea                	shr    %edx
 804b136:	8d 34 95 00 00 00 00 	lea    0x0(,%edx,4),%esi
 804b13d:	89 74 24 28          	mov    %esi,0x28(%esp)
 804b141:	56                   	push   %esi
 804b142:	8d 8c 24 44 78 00 00 	lea    0x7844(%esp),%ecx
 804b149:	51                   	push   %ecx
 804b14a:	53                   	push   %ebx
 804b14b:	8d 44 24 4c          	lea    0x4c(%esp),%eax
 804b14f:	50                   	push   %eax
 804b150:	e8 fb 4f 00 00       	call   8050150 <base64_encode>
asm volatile (""::: "memory");
	report_label_coverage("ABS", 181);
}

// ROR Label 182
if((wrap_column != 0) != (wrap_column == 0))  {
 804b155:	83 c4 20             	add    $0x20,%esp
 804b158:	8b 7c 24 2c          	mov    0x2c(%esp),%edi
 804b15c:	85 ff                	test   %edi,%edi
 804b15e:	0f 94 c0             	sete   %al
 804b161:	0f 95 c1             	setne  %cl
 804b164:	38 c1                	cmp    %al,%cl
 804b166:	88 44 24 24          	mov    %al,0x24(%esp)
 804b16a:	0f 84 b0 0c 00 00    	je     804be20 <do_encode+0x1430>
 804b170:	8d 64 24 f0          	lea    -0x10(%esp),%esp
 804b174:	89 3c 24             	mov    %edi,(%esp)
 804b177:	89 54 24 04          	mov    %edx,0x4(%esp)
 804b17b:	89 4c 24 08          	mov    %ecx,0x8(%esp)
 804b17f:	89 44 24 0c          	mov    %eax,0xc(%esp)
 804b183:	b9 57 ac 00 00       	mov    $0xac57,%ecx
 804b188:	e8 73 43 00 00       	call   804f500 <__afl_maybe_log>
 804b18d:	8b 44 24 0c          	mov    0xc(%esp),%eax
 804b191:	8b 4c 24 08          	mov    0x8(%esp),%ecx
 804b195:	8b 54 24 04          	mov    0x4(%esp),%edx
 804b199:	8b 3c 24             	mov    (%esp),%edi
 804b19c:	8d 64 24 10          	lea    0x10(%esp),%esp
asm volatile (""::: "memory");
	report_label_coverage("ROR", 182);
 804b1a0:	83 ec 08             	sub    $0x8,%esp
 804b1a3:	68 b6 00 00 00       	push   $0xb6
 804b1a8:	68 48 30 06 08       	push   $0x8063048
 804b1ad:	e8 fe f7 ff ff       	call   804a9b0 <report_label_coverage>
}
if (wrap_column == 0)
 804b1b2:	83 c4 10             	add    $0x10,%esp
 804b1b5:	0f b6 54 24 24       	movzbl 0x24(%esp),%edx
 804b1ba:	84 d2                	test   %dl,%dl
 804b1bc:	0f 84 56 02 00 00    	je     804b418 <do_encode+0xa28>
 804b1c2:	66 90                	xchg   %ax,%ax
 804b1c4:	8d 64 24 f0          	lea    -0x10(%esp),%esp
 804b1c8:	89 3c 24             	mov    %edi,(%esp)
 804b1cb:	89 54 24 04          	mov    %edx,0x4(%esp)
 804b1cf:	89 4c 24 08          	mov    %ecx,0x8(%esp)
 804b1d3:	89 44 24 0c          	mov    %eax,0xc(%esp)
 804b1d7:	b9 e7 77 00 00       	mov    $0x77e7,%ecx
 804b1dc:	e8 1f 43 00 00       	call   804f500 <__afl_maybe_log>
 804b1e1:	8b 44 24 0c          	mov    0xc(%esp),%eax
 804b1e5:	8b 4c 24 08          	mov    0x8(%esp),%ecx
 804b1e9:	8b 54 24 04          	mov    0x4(%esp),%edx
 804b1ed:	8b 3c 24             	mov    (%esp),%edi
 804b1f0:	8d 64 24 10          	lea    0x10(%esp),%esp
    {
      /* Simple write. */
      {
    size_t temp_1 = fwrite_unlocked(buffer, 1, len, stdout);
 804b1f4:	8d 64 24 f0          	lea    -0x10(%esp),%esp
 804b1f8:	89 3c 24             	mov    %edi,(%esp)
 804b1fb:	89 54 24 04          	mov    %edx,0x4(%esp)
 804b1ff:	89 4c 24 08          	mov    %ecx,0x8(%esp)
 804b203:	89 44 24 0c          	mov    %eax,0xc(%esp)
 804b207:	b9 9a b9 00 00       	mov    $0xb99a,%ecx
 804b20c:	e8 ef 42 00 00       	call   804f500 <__afl_maybe_log>
 804b211:	8b 44 24 0c          	mov    0xc(%esp),%eax
 804b215:	8b 4c 24 08          	mov    0x8(%esp),%ecx
 804b219:	8b 54 24 04          	mov    0x4(%esp),%edx
 804b21d:	8b 3c 24             	mov    (%esp),%edi
 804b220:	8d 64 24 10          	lea    0x10(%esp),%esp
 804b224:	ff 35 d8 72 06 08    	pushl  0x80672d8
 804b22a:	8b 7c 24 1c          	mov    0x1c(%esp),%edi
 804b22e:	57                   	push   %edi
 804b22f:	6a 01                	push   $0x1
 804b231:	8d b4 24 3c 78 00 00 	lea    0x783c(%esp),%esi
 804b238:	56                   	push   %esi
 804b239:	e8 c2 e1 ff ff       	call   8049400 <fwrite_unlocked@plt>
asm volatile (""::: "memory");
	report_label_coverage("ABS", 184);
}

// ROR Label 185
if((temp_1 <= len) != (temp_1 < len))  {
 804b23e:	83 c4 10             	add    $0x10,%esp
 804b241:	39 c7                	cmp    %eax,%edi
}
if (wrap_column == 0)
    {
      /* Simple write. */
      {
    size_t temp_1 = fwrite_unlocked(buffer, 1, len, stdout);
 804b243:	89 c6                	mov    %eax,%esi
asm volatile (""::: "memory");
	report_label_coverage("ABS", 184);
}

// ROR Label 185
if((temp_1 <= len) != (temp_1 < len))  {
 804b245:	0f 93 c2             	setae  %dl
 804b248:	0f 97 c0             	seta   %al
 804b24b:	38 c2                	cmp    %al,%dl
 804b24d:	89 c7                	mov    %eax,%edi
 804b24f:	74 48                	je     804b299 <do_encode+0x8a9>
 804b251:	8d 76 00             	lea    0x0(%esi),%esi
 804b254:	8d 64 24 f0          	lea    -0x10(%esp),%esp
 804b258:	89 3c 24             	mov    %edi,(%esp)
 804b25b:	89 54 24 04          	mov    %edx,0x4(%esp)
 804b25f:	89 4c 24 08          	mov    %ecx,0x8(%esp)
 804b263:	89 44 24 0c          	mov    %eax,0xc(%esp)
 804b267:	b9 dc ba 00 00       	mov    $0xbadc,%ecx
 804b26c:	e8 8f 42 00 00       	call   804f500 <__afl_maybe_log>
 804b271:	8b 44 24 0c          	mov    0xc(%esp),%eax
 804b275:	8b 4c 24 08          	mov    0x8(%esp),%ecx
 804b279:	8b 54 24 04          	mov    0x4(%esp),%edx
 804b27d:	8b 3c 24             	mov    (%esp),%edi
 804b280:	8d 64 24 10          	lea    0x10(%esp),%esp
asm volatile (""::: "memory");
	report_label_coverage("ROR", 185);
 804b284:	83 ec 08             	sub    $0x8,%esp
 804b287:	68 b9 00 00 00       	push   $0xb9
 804b28c:	68 48 30 06 08       	push   $0x8063048
 804b291:	e8 1a f7 ff ff       	call   804a9b0 <report_label_coverage>
 804b296:	83 c4 10             	add    $0x10,%esp
 804b299:	8d 76 00             	lea    0x0(%esi),%esi
}
// ROR Label 186
if((temp_1 > len) != (temp_1 < len))  {
 804b29c:	8d 64 24 f0          	lea    -0x10(%esp),%esp
 804b2a0:	89 3c 24             	mov    %edi,(%esp)
 804b2a3:	89 54 24 04          	mov    %edx,0x4(%esp)
 804b2a7:	89 4c 24 08          	mov    %ecx,0x8(%esp)
 804b2ab:	89 44 24 0c          	mov    %eax,0xc(%esp)
 804b2af:	b9 c6 e8 00 00       	mov    $0xe8c6,%ecx
 804b2b4:	e8 47 42 00 00       	call   804f500 <__afl_maybe_log>
 804b2b9:	8b 44 24 0c          	mov    0xc(%esp),%eax
 804b2bd:	8b 4c 24 08          	mov    0x8(%esp),%ecx
 804b2c1:	8b 54 24 04          	mov    0x4(%esp),%edx
 804b2c5:	8b 3c 24             	mov    (%esp),%edi
 804b2c8:	8d 64 24 10          	lea    0x10(%esp),%esp
 804b2cc:	39 74 24 18          	cmp    %esi,0x18(%esp)
 804b2d0:	89 fa                	mov    %edi,%edx
 804b2d2:	0f 92 c0             	setb   %al
 804b2d5:	38 c2                	cmp    %al,%dl
 804b2d7:	74 48                	je     804b321 <do_encode+0x931>
 804b2d9:	8d 76 00             	lea    0x0(%esi),%esi
 804b2dc:	8d 64 24 f0          	lea    -0x10(%esp),%esp
 804b2e0:	89 3c 24             	mov    %edi,(%esp)
 804b2e3:	89 54 24 04          	mov    %edx,0x4(%esp)
 804b2e7:	89 4c 24 08          	mov    %ecx,0x8(%esp)
 804b2eb:	89 44 24 0c          	mov    %eax,0xc(%esp)
 804b2ef:	b9 65 b6 00 00       	mov    $0xb665,%ecx
 804b2f4:	e8 07 42 00 00       	call   804f500 <__afl_maybe_log>
 804b2f9:	8b 44 24 0c          	mov    0xc(%esp),%eax
 804b2fd:	8b 4c 24 08          	mov    0x8(%esp),%ecx
 804b301:	8b 54 24 04          	mov    0x4(%esp),%edx
 804b305:	8b 3c 24             	mov    (%esp),%edi
 804b308:	8d 64 24 10          	lea    0x10(%esp),%esp
asm volatile (""::: "memory");
	report_label_coverage("ROR", 186);
 804b30c:	83 ec 08             	sub    $0x8,%esp
 804b30f:	68 ba 00 00 00       	push   $0xba
 804b314:	68 48 30 06 08       	push   $0x8063048
 804b319:	e8 92 f6 ff ff       	call   804a9b0 <report_label_coverage>
 804b31e:	83 c4 10             	add    $0x10,%esp
 804b321:	8d 76 00             	lea    0x0(%esi),%esi
}
// ROR Label 187
if((temp_1 >= len) != (temp_1 < len))  {
 804b324:	8d 64 24 f0          	lea    -0x10(%esp),%esp
 804b328:	89 3c 24             	mov    %edi,(%esp)
 804b32b:	89 54 24 04          	mov    %edx,0x4(%esp)
 804b32f:	89 4c 24 08          	mov    %ecx,0x8(%esp)
 804b333:	89 44 24 0c          	mov    %eax,0xc(%esp)
 804b337:	b9 06 ec 00 00       	mov    $0xec06,%ecx
 804b33c:	e8 bf 41 00 00       	call   804f500 <__afl_maybe_log>
 804b341:	8b 44 24 0c          	mov    0xc(%esp),%eax
 804b345:	8b 4c 24 08          	mov    0x8(%esp),%ecx
 804b349:	8b 54 24 04          	mov    0x4(%esp),%edx
 804b34d:	8b 3c 24             	mov    (%esp),%edi
 804b350:	8d 64 24 10          	lea    0x10(%esp),%esp
 804b354:	39 74 24 18          	cmp    %esi,0x18(%esp)
 804b358:	89 f9                	mov    %edi,%ecx
 804b35a:	0f 96 c0             	setbe  %al
 804b35d:	38 c1                	cmp    %al,%cl
 804b35f:	74 48                	je     804b3a9 <do_encode+0x9b9>
 804b361:	8d 76 00             	lea    0x0(%esi),%esi
 804b364:	8d 64 24 f0          	lea    -0x10(%esp),%esp
 804b368:	89 3c 24             	mov    %edi,(%esp)
 804b36b:	89 54 24 04          	mov    %edx,0x4(%esp)
 804b36f:	89 4c 24 08          	mov    %ecx,0x8(%esp)
 804b373:	89 44 24 0c          	mov    %eax,0xc(%esp)
 804b377:	b9 e7 fb 00 00       	mov    $0xfbe7,%ecx
 804b37c:	e8 7f 41 00 00       	call   804f500 <__afl_maybe_log>
 804b381:	8b 44 24 0c          	mov    0xc(%esp),%eax
 804b385:	8b 4c 24 08          	mov    0x8(%esp),%ecx
 804b389:	8b 54 24 04          	mov    0x4(%esp),%edx
 804b38d:	8b 3c 24             	mov    (%esp),%edi
 804b390:	8d 64 24 10          	lea    0x10(%esp),%esp
asm volatile (""::: "memory");
	report_label_coverage("ROR", 187);
 804b394:	83 ec 08             	sub    $0x8,%esp
 804b397:	68 bb 00 00 00       	push   $0xbb
 804b39c:	68 48 30 06 08       	push   $0x8063048
 804b3a1:	e8 0a f6 ff ff       	call   804a9b0 <report_label_coverage>
 804b3a6:	83 c4 10             	add    $0x10,%esp
 804b3a9:	8d 76 00             	lea    0x0(%esi),%esi
}
if (temp_1 < len)
 804b3ac:	8d 64 24 f0          	lea    -0x10(%esp),%esp
 804b3b0:	89 3c 24             	mov    %edi,(%esp)
 804b3b3:	89 54 24 04          	mov    %edx,0x4(%esp)
 804b3b7:	89 4c 24 08          	mov    %ecx,0x8(%esp)
 804b3bb:	89 44 24 0c          	mov    %eax,0xc(%esp)
 804b3bf:	b9 d7 8b 00 00       	mov    $0x8bd7,%ecx
 804b3c4:	e8 37 41 00 00       	call   804f500 <__afl_maybe_log>
 804b3c9:	8b 44 24 0c          	mov    0xc(%esp),%eax
 804b3cd:	8b 4c 24 08          	mov    0x8(%esp),%ecx
 804b3d1:	8b 54 24 04          	mov    0x4(%esp),%edx
 804b3d5:	8b 3c 24             	mov    (%esp),%edi
 804b3d8:	8d 64 24 10          	lea    0x10(%esp),%esp
 804b3dc:	89 fa                	mov    %edi,%edx
 804b3de:	84 d2                	test   %dl,%dl
 804b3e0:	0f 85 9f 0c 00 00    	jne    804c085 <do_encode+0x1695>
 804b3e6:	66 90                	xchg   %ax,%ax
 804b3e8:	8d 64 24 f0          	lea    -0x10(%esp),%esp
 804b3ec:	89 3c 24             	mov    %edi,(%esp)
 804b3ef:	89 54 24 04          	mov    %edx,0x4(%esp)
 804b3f3:	89 4c 24 08          	mov    %ecx,0x8(%esp)
 804b3f7:	89 44 24 0c          	mov    %eax,0xc(%esp)
 804b3fb:	b9 09 9a 00 00       	mov    $0x9a09,%ecx
 804b400:	e8 fb 40 00 00       	call   804f500 <__afl_maybe_log>
 804b405:	8b 44 24 0c          	mov    0xc(%esp),%eax
 804b409:	8b 4c 24 08          	mov    0x8(%esp),%ecx
 804b40d:	8b 54 24 04          	mov    0x4(%esp),%edx
 804b411:	8b 3c 24             	mov    (%esp),%edi
 804b414:	8d 64 24 10          	lea    0x10(%esp),%esp
asm volatile (""::: "memory");
	report_label_coverage("ABS", 189);
}

// ROR Label 190
if((written <= len) != (written < len))  {
 804b418:	8d 64 24 f0          	lea    -0x10(%esp),%esp
 804b41c:	89 3c 24             	mov    %edi,(%esp)
 804b41f:	89 54 24 04          	mov    %edx,0x4(%esp)
 804b423:	89 4c 24 08          	mov    %ecx,0x8(%esp)
 804b427:	89 44 24 0c          	mov    %eax,0xc(%esp)
 804b42b:	b9 c7 e6 00 00       	mov    $0xe6c7,%ecx
 804b430:	e8 cb 40 00 00       	call   804f500 <__afl_maybe_log>
 804b435:	8b 44 24 0c          	mov    0xc(%esp),%eax
 804b439:	8b 4c 24 08          	mov    0x8(%esp),%ecx
 804b43d:	8b 54 24 04          	mov    0x4(%esp),%edx
 804b441:	8b 3c 24             	mov    (%esp),%edi
 804b444:	8d 64 24 10          	lea    0x10(%esp),%esp
 804b448:	8b 7c 24 18          	mov    0x18(%esp),%edi
 804b44c:	85 ff                	test   %edi,%edi
 804b44e:	0f 84 40 0a 00 00    	je     804be94 <do_encode+0x14a4>
 804b454:	8d 64 24 f0          	lea    -0x10(%esp),%esp
 804b458:	89 3c 24             	mov    %edi,(%esp)
 804b45b:	89 54 24 04          	mov    %edx,0x4(%esp)
 804b45f:	89 4c 24 08          	mov    %ecx,0x8(%esp)
 804b463:	89 44 24 0c          	mov    %eax,0xc(%esp)
 804b467:	b9 47 c4 00 00       	mov    $0xc447,%ecx
 804b46c:	e8 8f 40 00 00       	call   804f500 <__afl_maybe_log>
 804b471:	8b 44 24 0c          	mov    0xc(%esp),%eax
 804b475:	8b 4c 24 08          	mov    0x8(%esp),%ecx
 804b479:	8b 54 24 04          	mov    0x4(%esp),%edx
 804b47d:	8b 3c 24             	mov    (%esp),%edi
 804b480:	8d 64 24 10          	lea    0x10(%esp),%esp
	report_label_coverage("ROR", 190);
}
// ROR Label 191
if((written > len) != (written < len))  {
asm volatile (""::: "memory");
	report_label_coverage("ROR", 191);
 804b484:	8d 64 24 f0          	lea    -0x10(%esp),%esp
 804b488:	89 3c 24             	mov    %edi,(%esp)
 804b48b:	89 54 24 04          	mov    %edx,0x4(%esp)
 804b48f:	89 4c 24 08          	mov    %ecx,0x8(%esp)
 804b493:	89 44 24 0c          	mov    %eax,0xc(%esp)
 804b497:	b9 5d 45 00 00       	mov    $0x455d,%ecx
 804b49c:	e8 5f 40 00 00       	call   804f500 <__afl_maybe_log>
 804b4a1:	8b 44 24 0c          	mov    0xc(%esp),%eax
 804b4a5:	8b 4c 24 08          	mov    0x8(%esp),%ecx
 804b4a9:	8b 54 24 04          	mov    0x4(%esp),%edx
 804b4ad:	8b 3c 24             	mov    (%esp),%edi
 804b4b0:	8d 64 24 10          	lea    0x10(%esp),%esp
 804b4b4:	83 ec 08             	sub    $0x8,%esp
 804b4b7:	68 bf 00 00 00       	push   $0xbf
 804b4bc:	68 48 30 06 08       	push   $0x8063048
 804b4c1:	e8 ea f4 ff ff       	call   804a9b0 <report_label_coverage>
 804b4c6:	83 c4 10             	add    $0x10,%esp
 804b4c9:	8d 76 00             	lea    0x0(%esi),%esi
}
// ROR Label 192
if((written >= len) != (written < len))  {
asm volatile (""::: "memory");
	report_label_coverage("ROR", 192);
 804b4cc:	8d 64 24 f0          	lea    -0x10(%esp),%esp
 804b4d0:	89 3c 24             	mov    %edi,(%esp)
 804b4d3:	89 54 24 04          	mov    %edx,0x4(%esp)
 804b4d7:	89 4c 24 08          	mov    %ecx,0x8(%esp)
 804b4db:	89 44 24 0c          	mov    %eax,0xc(%esp)
 804b4df:	b9 9b da 00 00       	mov    $0xda9b,%ecx
 804b4e4:	e8 17 40 00 00       	call   804f500 <__afl_maybe_log>
 804b4e9:	8b 44 24 0c          	mov    0xc(%esp),%eax
 804b4ed:	8b 4c 24 08          	mov    0x8(%esp),%ecx
 804b4f1:	8b 54 24 04          	mov    0x4(%esp),%edx
 804b4f5:	8b 3c 24             	mov    (%esp),%edi
 804b4f8:	8d 64 24 10          	lea    0x10(%esp),%esp
 804b4fc:	83 ec 08             	sub    $0x8,%esp
}
for (; written < len;)
 804b4ff:	31 f6                	xor    %esi,%esi
	report_label_coverage("ROR", 191);
}
// ROR Label 192
if((written >= len) != (written < len))  {
asm volatile (""::: "memory");
	report_label_coverage("ROR", 192);
 804b501:	68 c0 00 00 00       	push   $0xc0
 804b506:	68 48 30 06 08       	push   $0x8063048
 804b50b:	e8 a0 f4 ff ff       	call   804a9b0 <report_label_coverage>
}
for (; written < len;)
 804b510:	83 c4 10             	add    $0x10,%esp
 804b513:	8b 44 24 18          	mov    0x18(%esp),%eax
 804b517:	31 c9                	xor    %ecx,%ecx
 804b519:	85 c0                	test   %eax,%eax
 804b51b:	0f 84 2f 08 00 00    	je     804bd50 <do_encode+0x1360>
 804b521:	8d 76 00             	lea    0x0(%esi),%esi
 804b524:	8d 64 24 f0          	lea    -0x10(%esp),%esp
 804b528:	89 3c 24             	mov    %edi,(%esp)
 804b52b:	89 54 24 04          	mov    %edx,0x4(%esp)
 804b52f:	89 4c 24 08          	mov    %ecx,0x8(%esp)
 804b533:	89 44 24 0c          	mov    %eax,0xc(%esp)
 804b537:	b9 4a ee 00 00       	mov    $0xee4a,%ecx
 804b53c:	e8 bf 3f 00 00       	call   804f500 <__afl_maybe_log>
 804b541:	8b 44 24 0c          	mov    0xc(%esp),%eax
 804b545:	8b 4c 24 08          	mov    0x8(%esp),%ecx
 804b549:	8b 54 24 04          	mov    0x4(%esp),%edx
 804b54d:	8b 3c 24             	mov    (%esp),%edi
 804b550:	8d 64 24 10          	lea    0x10(%esp),%esp
 804b554:	89 5c 24 24          	mov    %ebx,0x24(%esp)
 804b558:	89 6c 24 28          	mov    %ebp,0x28(%esp)
 804b55c:	89 cd                	mov    %ecx,%ebp
 804b55e:	8b 5c 24 1c          	mov    0x1c(%esp),%ebx
 804b562:	e9 81 02 00 00       	jmp    804b7e8 <do_encode+0xdf8>
 804b567:	89 f6                	mov    %esi,%esi
 804b569:	8d bc 27 00 00 00 00 	lea    0x0(%edi,%eiz,1),%edi
}

// ROR Label 204
if((to_write != 0) != (to_write == 0))  {
asm volatile (""::: "memory");
	report_label_coverage("ROR", 204);
 804b570:	83 ec 08             	sub    $0x8,%esp
 804b573:	68 cc 00 00 00       	push   $0xcc
 804b578:	68 48 30 06 08       	push   $0x8063048
 804b57d:	e8 2e f4 ff ff       	call   804a9b0 <report_label_coverage>
}
if (to_write == 0)
 804b582:	83 c4 10             	add    $0x10,%esp
 804b585:	0f b6 54 24 1c       	movzbl 0x1c(%esp),%edx
 804b58a:	84 d2                	test   %dl,%dl
 804b58c:	0f 84 ba 03 00 00    	je     804b94c <do_encode+0xf5c>
 804b592:	66 90                	xchg   %ax,%ax
 804b594:	8d 64 24 f0          	lea    -0x10(%esp),%esp
 804b598:	89 3c 24             	mov    %edi,(%esp)
 804b59b:	89 54 24 04          	mov    %edx,0x4(%esp)
 804b59f:	89 4c 24 08          	mov    %ecx,0x8(%esp)
 804b5a3:	89 44 24 0c          	mov    %eax,0xc(%esp)
 804b5a7:	b9 a1 9a 00 00       	mov    $0x9aa1,%ecx
 804b5ac:	e8 4f 3f 00 00       	call   804f500 <__afl_maybe_log>
 804b5b1:	8b 44 24 0c          	mov    0xc(%esp),%eax
 804b5b5:	8b 4c 24 08          	mov    0x8(%esp),%ecx
 804b5b9:	8b 54 24 04          	mov    0x4(%esp),%edx
 804b5bd:	8b 3c 24             	mov    (%esp),%edi
 804b5c0:	8d 64 24 10          	lea    0x10(%esp),%esp
# ifdef __USE_MISC
/* Faster version when locking is not necessary.  */
__STDIO_INLINE int
fputc_unlocked (int __c, FILE *__stream)
{
  return _IO_putc_unlocked (__c, __stream);
 804b5c4:	8d 64 24 f0          	lea    -0x10(%esp),%esp
 804b5c8:	89 3c 24             	mov    %edi,(%esp)
 804b5cb:	89 54 24 04          	mov    %edx,0x4(%esp)
 804b5cf:	89 4c 24 08          	mov    %ecx,0x8(%esp)
 804b5d3:	89 44 24 0c          	mov    %eax,0xc(%esp)
 804b5d7:	b9 96 d9 00 00       	mov    $0xd996,%ecx
 804b5dc:	e8 1f 3f 00 00       	call   804f500 <__afl_maybe_log>
 804b5e1:	8b 44 24 0c          	mov    0xc(%esp),%eax
 804b5e5:	8b 4c 24 08          	mov    0x8(%esp),%ecx
 804b5e9:	8b 54 24 04          	mov    0x4(%esp),%edx
 804b5ed:	8b 3c 24             	mov    (%esp),%edi
 804b5f0:	8d 64 24 10          	lea    0x10(%esp),%esp
 804b5f4:	8b 5c 24 20          	mov    0x20(%esp),%ebx
 804b5f8:	8b 43 14             	mov    0x14(%ebx),%eax
 804b5fb:	3b 43 18             	cmp    0x18(%ebx),%eax
 804b5fe:	0f 83 a4 07 00 00    	jae    804bda8 <do_encode+0x13b8>
 804b604:	8d 64 24 f0          	lea    -0x10(%esp),%esp
 804b608:	89 3c 24             	mov    %edi,(%esp)
 804b60b:	89 54 24 04          	mov    %edx,0x4(%esp)
 804b60f:	89 4c 24 08          	mov    %ecx,0x8(%esp)
 804b613:	89 44 24 0c          	mov    %eax,0xc(%esp)
 804b617:	b9 ae 29 00 00       	mov    $0x29ae,%ecx
 804b61c:	e8 df 3e 00 00       	call   804f500 <__afl_maybe_log>
 804b621:	8b 44 24 0c          	mov    0xc(%esp),%eax
 804b625:	8b 4c 24 08          	mov    0x8(%esp),%ecx
 804b629:	8b 54 24 04          	mov    0x4(%esp),%edx
 804b62d:	8b 3c 24             	mov    (%esp),%edi
 804b630:	8d 64 24 10          	lea    0x10(%esp),%esp
 804b634:	8b 4c 24 20          	mov    0x20(%esp),%ecx
 804b638:	8d 50 01             	lea    0x1(%eax),%edx
 804b63b:	89 51 14             	mov    %edx,0x14(%ecx)
 804b63e:	c6 00 0a             	movb   $0xa,(%eax)
 804b641:	8d 76 00             	lea    0x0(%esi),%esi
 804b644:	8d 64 24 f0          	lea    -0x10(%esp),%esp
 804b648:	89 3c 24             	mov    %edi,(%esp)
 804b64b:	89 54 24 04          	mov    %edx,0x4(%esp)
 804b64f:	89 4c 24 08          	mov    %ecx,0x8(%esp)
 804b653:	89 44 24 0c          	mov    %eax,0xc(%esp)
 804b657:	b9 96 eb 00 00       	mov    $0xeb96,%ecx
 804b65c:	e8 9f 3e 00 00       	call   804f500 <__afl_maybe_log>
 804b661:	8b 44 24 0c          	mov    0xc(%esp),%eax
 804b665:	8b 4c 24 08          	mov    0x8(%esp),%ecx
 804b669:	8b 54 24 04          	mov    0x4(%esp),%edx
 804b66d:	8b 3c 24             	mov    (%esp),%edi
 804b670:	8d 64 24 10          	lea    0x10(%esp),%esp
 804b674:	0f b6 5c 24 17       	movzbl 0x17(%esp),%ebx
 804b679:	31 f6                	xor    %esi,%esi
 804b67b:	90                   	nop
	report_label_coverage("ABS", 205);
}
// ABS Label 206
if(temp_2 < 0)  {
asm volatile (""::: "memory");
	report_label_coverage("ABS", 206);
 804b67c:	8d 64 24 f0          	lea    -0x10(%esp),%esp
 804b680:	89 3c 24             	mov    %edi,(%esp)
 804b683:	89 54 24 04          	mov    %edx,0x4(%esp)
 804b687:	89 4c 24 08          	mov    %ecx,0x8(%esp)
 804b68b:	89 44 24 0c          	mov    %eax,0xc(%esp)
 804b68f:	b9 b9 c1 00 00       	mov    $0xc1b9,%ecx
 804b694:	e8 67 3e 00 00       	call   804f500 <__afl_maybe_log>
 804b699:	8b 44 24 0c          	mov    0xc(%esp),%eax
 804b69d:	8b 4c 24 08          	mov    0x8(%esp),%ecx
 804b6a1:	8b 54 24 04          	mov    0x4(%esp),%edx
 804b6a5:	8b 3c 24             	mov    (%esp),%edi
 804b6a8:	8d 64 24 10          	lea    0x10(%esp),%esp
 804b6ac:	83 ec 08             	sub    $0x8,%esp
 804b6af:	68 ce 00 00 00       	push   $0xce
 804b6b4:	68 5c 30 06 08       	push   $0x806305c
 804b6b9:	e8 f2 f2 ff ff       	call   804a9b0 <report_label_coverage>
}

// ROR Label 207
if((temp_1 != temp_2) != (temp_1 == temp_2))  {
 804b6be:	89 f2                	mov    %esi,%edx
 804b6c0:	83 c4 10             	add    $0x10,%esp
 804b6c3:	38 da                	cmp    %bl,%dl
 804b6c5:	74 46                	je     804b70d <do_encode+0xd1d>
 804b6c7:	90                   	nop
 804b6c8:	8d 64 24 f0          	lea    -0x10(%esp),%esp
 804b6cc:	89 3c 24             	mov    %edi,(%esp)
 804b6cf:	89 54 24 04          	mov    %edx,0x4(%esp)
 804b6d3:	89 4c 24 08          	mov    %ecx,0x8(%esp)
 804b6d7:	89 44 24 0c          	mov    %eax,0xc(%esp)
 804b6db:	b9 58 49 00 00       	mov    $0x4958,%ecx
 804b6e0:	e8 1b 3e 00 00       	call   804f500 <__afl_maybe_log>
 804b6e5:	8b 44 24 0c          	mov    0xc(%esp),%eax
 804b6e9:	8b 4c 24 08          	mov    0x8(%esp),%ecx
 804b6ed:	8b 54 24 04          	mov    0x4(%esp),%edx
 804b6f1:	8b 3c 24             	mov    (%esp),%edi
 804b6f4:	8d 64 24 10          	lea    0x10(%esp),%esp
asm volatile (""::: "memory");
	report_label_coverage("ROR", 207);
 804b6f8:	83 ec 08             	sub    $0x8,%esp
 804b6fb:	68 cf 00 00 00       	push   $0xcf
 804b700:	68 48 30 06 08       	push   $0x8063048
 804b705:	e8 a6 f2 ff ff       	call   804a9b0 <report_label_coverage>
 804b70a:	83 c4 10             	add    $0x10,%esp
 804b70d:	8d 76 00             	lea    0x0(%esi),%esi
}
if (temp_1 == temp_2)
 804b710:	8d 64 24 f0          	lea    -0x10(%esp),%esp
 804b714:	89 3c 24             	mov    %edi,(%esp)
 804b717:	89 54 24 04          	mov    %edx,0x4(%esp)
 804b71b:	89 4c 24 08          	mov    %ecx,0x8(%esp)
 804b71f:	89 44 24 0c          	mov    %eax,0xc(%esp)
 804b723:	b9 9f 2a 00 00       	mov    $0x2a9f,%ecx
 804b728:	e8 d3 3d 00 00       	call   804f500 <__afl_maybe_log>
 804b72d:	8b 44 24 0c          	mov    0xc(%esp),%eax
 804b731:	8b 4c 24 08          	mov    0x8(%esp),%ecx
 804b735:	8b 54 24 04          	mov    0x4(%esp),%edx
 804b739:	8b 3c 24             	mov    (%esp),%edi
 804b73c:	8d 64 24 10          	lea    0x10(%esp),%esp
 804b740:	89 f1                	mov    %esi,%ecx
        error(1, (*__errno_location()), gettext("write error"));
}
;
            *current_column = 0;
 804b742:	31 db                	xor    %ebx,%ebx
// ROR Label 207
if((temp_1 != temp_2) != (temp_1 == temp_2))  {
asm volatile (""::: "memory");
	report_label_coverage("ROR", 207);
}
if (temp_1 == temp_2)
 804b744:	84 c9                	test   %cl,%cl
 804b746:	0f 85 d4 05 00 00    	jne    804bd20 <do_encode+0x1330>
 804b74c:	8d 64 24 f0          	lea    -0x10(%esp),%esp
 804b750:	89 3c 24             	mov    %edi,(%esp)
 804b753:	89 54 24 04          	mov    %edx,0x4(%esp)
 804b757:	89 4c 24 08          	mov    %ecx,0x8(%esp)
 804b75b:	89 44 24 0c          	mov    %eax,0xc(%esp)
 804b75f:	b9 89 7c 00 00       	mov    $0x7c89,%ecx
 804b764:	e8 97 3d 00 00       	call   804f500 <__afl_maybe_log>
 804b769:	8b 44 24 0c          	mov    0xc(%esp),%eax
 804b76d:	8b 4c 24 08          	mov    0x8(%esp),%ecx
 804b771:	8b 54 24 04          	mov    0x4(%esp),%edx
 804b775:	8b 3c 24             	mov    (%esp),%edi
 804b778:	8d 64 24 10          	lea    0x10(%esp),%esp
// ROR Label 192
if((written >= len) != (written < len))  {
asm volatile (""::: "memory");
	report_label_coverage("ROR", 192);
}
for (; written < len;)
 804b77c:	8d 64 24 f0          	lea    -0x10(%esp),%esp
 804b780:	89 3c 24             	mov    %edi,(%esp)
 804b783:	89 54 24 04          	mov    %edx,0x4(%esp)
 804b787:	89 4c 24 08          	mov    %ecx,0x8(%esp)
 804b78b:	89 44 24 0c          	mov    %eax,0xc(%esp)
 804b78f:	b9 64 30 00 00       	mov    $0x3064,%ecx
 804b794:	e8 67 3d 00 00       	call   804f500 <__afl_maybe_log>
 804b799:	8b 44 24 0c          	mov    0xc(%esp),%eax
 804b79d:	8b 4c 24 08          	mov    0x8(%esp),%ecx
 804b7a1:	8b 54 24 04          	mov    0x4(%esp),%edx
 804b7a5:	8b 3c 24             	mov    (%esp),%edi
 804b7a8:	8d 64 24 10          	lea    0x10(%esp),%esp
 804b7ac:	3b 6c 24 18          	cmp    0x18(%esp),%ebp
 804b7b0:	0f 83 2e 04 00 00    	jae    804bbe4 <do_encode+0x11f4>
 804b7b6:	66 90                	xchg   %ax,%ax
 804b7b8:	8d 64 24 f0          	lea    -0x10(%esp),%esp
 804b7bc:	89 3c 24             	mov    %edi,(%esp)
 804b7bf:	89 54 24 04          	mov    %edx,0x4(%esp)
 804b7c3:	89 4c 24 08          	mov    %ecx,0x8(%esp)
 804b7c7:	89 44 24 0c          	mov    %eax,0xc(%esp)
 804b7cb:	b9 e1 09 00 00       	mov    $0x9e1,%ecx
 804b7d0:	e8 2b 3d 00 00       	call   804f500 <__afl_maybe_log>
 804b7d5:	8b 44 24 0c          	mov    0xc(%esp),%eax
 804b7d9:	8b 4c 24 08          	mov    0x8(%esp),%ecx
 804b7dd:	8b 54 24 04          	mov    0x4(%esp),%edx
 804b7e1:	8b 3c 24             	mov    (%esp),%edi
 804b7e4:	8d 64 24 10          	lea    0x10(%esp),%esp
	report_label_coverage("ABS", 199);
}


// AOR Label 202
if(wrap_column * *current_column != wrap_column - *current_column)  {
 804b7e8:	8d 64 24 f0          	lea    -0x10(%esp),%esp
 804b7ec:	89 3c 24             	mov    %edi,(%esp)
 804b7ef:	89 54 24 04          	mov    %edx,0x4(%esp)
 804b7f3:	89 4c 24 08          	mov    %ecx,0x8(%esp)
 804b7f7:	89 44 24 0c          	mov    %eax,0xc(%esp)
 804b7fb:	b9 0d 94 00 00       	mov    $0x940d,%ecx
 804b800:	e8 fb 3c 00 00       	call   804f500 <__afl_maybe_log>
 804b805:	8b 44 24 0c          	mov    0xc(%esp),%eax
 804b809:	8b 4c 24 08          	mov    0x8(%esp),%ecx
 804b80d:	8b 54 24 04          	mov    0x4(%esp),%edx
 804b811:	8b 3c 24             	mov    (%esp),%edi
 804b814:	8d 64 24 10          	lea    0x10(%esp),%esp
 804b818:	8b 74 24 08          	mov    0x8(%esp),%esi
 804b81c:	8b 7c 24 0c          	mov    0xc(%esp),%edi
 804b820:	31 d2                	xor    %edx,%edx
 804b822:	8b 4c 24 0c          	mov    0xc(%esp),%ecx
 804b826:	8b 44 24 08          	mov    0x8(%esp),%eax
 804b82a:	29 de                	sub    %ebx,%esi
 804b82c:	19 d7                	sbb    %edx,%edi
 804b82e:	f7 e3                	mul    %ebx
 804b830:	0f af cb             	imul   %ebx,%ecx
 804b833:	31 f0                	xor    %esi,%eax
 804b835:	01 ca                	add    %ecx,%edx
 804b837:	31 fa                	xor    %edi,%edx
 804b839:	09 c2                	or     %eax,%edx
 804b83b:	74 48                	je     804b885 <do_encode+0xe95>
 804b83d:	8d 76 00             	lea    0x0(%esi),%esi
 804b840:	8d 64 24 f0          	lea    -0x10(%esp),%esp
 804b844:	89 3c 24             	mov    %edi,(%esp)
 804b847:	89 54 24 04          	mov    %edx,0x4(%esp)
 804b84b:	89 4c 24 08          	mov    %ecx,0x8(%esp)
 804b84f:	89 44 24 0c          	mov    %eax,0xc(%esp)
 804b853:	b9 5f 3a 00 00       	mov    $0x3a5f,%ecx
 804b858:	e8 a3 3c 00 00       	call   804f500 <__afl_maybe_log>
 804b85d:	8b 44 24 0c          	mov    0xc(%esp),%eax
 804b861:	8b 4c 24 08          	mov    0x8(%esp),%ecx
 804b865:	8b 54 24 04          	mov    0x4(%esp),%edx
 804b869:	8b 3c 24             	mov    (%esp),%edi
 804b86c:	8d 64 24 10          	lea    0x10(%esp),%esp
asm volatile (""::: "memory");
	report_label_coverage("AOR", 202);
 804b870:	83 ec 08             	sub    $0x8,%esp
 804b873:	68 ca 00 00 00       	push   $0xca
 804b878:	68 58 30 06 08       	push   $0x8063058
 804b87d:	e8 2e f1 ff ff       	call   804a9b0 <report_label_coverage>
 804b882:	83 c4 10             	add    $0x10,%esp
 804b885:	8d 76 00             	lea    0x0(%esi),%esi
}
uintmax_t cols_remaining = wrap_column - *current_column;
        size_t to_write = MIN (cols_remaining, SIZE_MAX);
 804b888:	8d 64 24 f0          	lea    -0x10(%esp),%esp
 804b88c:	89 3c 24             	mov    %edi,(%esp)
 804b88f:	89 54 24 04          	mov    %edx,0x4(%esp)
 804b893:	89 4c 24 08          	mov    %ecx,0x8(%esp)
 804b897:	89 44 24 0c          	mov    %eax,0xc(%esp)
 804b89b:	b9 11 01 00 00       	mov    $0x111,%ecx
 804b8a0:	e8 5b 3c 00 00       	call   804f500 <__afl_maybe_log>
 804b8a5:	8b 44 24 0c          	mov    0xc(%esp),%eax
 804b8a9:	8b 4c 24 08          	mov    0x8(%esp),%ecx
 804b8ad:	8b 54 24 04          	mov    0x4(%esp),%edx
 804b8b1:	8b 3c 24             	mov    (%esp),%edi
 804b8b4:	8d 64 24 10          	lea    0x10(%esp),%esp
 804b8b8:	85 ff                	test   %edi,%edi
 804b8ba:	bf ff ff ff ff       	mov    $0xffffffff,%edi
 804b8bf:	0f 44 fe             	cmove  %esi,%edi
        to_write = MIN (to_write, len - written);
 804b8c2:	8b 74 24 18          	mov    0x18(%esp),%esi
 804b8c6:	29 ee                	sub    %ebp,%esi
 804b8c8:	39 fe                	cmp    %edi,%esi
 804b8ca:	0f 43 f7             	cmovae %edi,%esi
asm volatile (""::: "memory");
	report_label_coverage("ABS", 203);
}

// ROR Label 204
if((to_write != 0) != (to_write == 0))  {
 804b8cd:	85 f6                	test   %esi,%esi
 804b8cf:	0f 94 c0             	sete   %al
 804b8d2:	0f 95 c1             	setne  %cl
 804b8d5:	38 c1                	cmp    %al,%cl
 804b8d7:	88 44 24 1c          	mov    %al,0x1c(%esp)
 804b8db:	0f 85 8f fc ff ff    	jne    804b570 <do_encode+0xb80>
 804b8e1:	8d 76 00             	lea    0x0(%esi),%esi
 804b8e4:	8d 64 24 f0          	lea    -0x10(%esp),%esp
 804b8e8:	89 3c 24             	mov    %edi,(%esp)
 804b8eb:	89 54 24 04          	mov    %edx,0x4(%esp)
 804b8ef:	89 4c 24 08          	mov    %ecx,0x8(%esp)
 804b8f3:	89 44 24 0c          	mov    %eax,0xc(%esp)
 804b8f7:	b9 ce 98 00 00       	mov    $0x98ce,%ecx
 804b8fc:	e8 ff 3b 00 00       	call   804f500 <__afl_maybe_log>
 804b901:	8b 44 24 0c          	mov    0xc(%esp),%eax
 804b905:	8b 4c 24 08          	mov    0x8(%esp),%ecx
 804b909:	8b 54 24 04          	mov    0x4(%esp),%edx
 804b90d:	8b 3c 24             	mov    (%esp),%edi
 804b910:	8d 64 24 10          	lea    0x10(%esp),%esp
asm volatile (""::: "memory");
	report_label_coverage("ROR", 204);
}
if (to_write == 0)
 804b914:	84 c9                	test   %cl,%cl
 804b916:	0f 85 a8 fc ff ff    	jne    804b5c4 <do_encode+0xbd4>
 804b91c:	8d 64 24 f0          	lea    -0x10(%esp),%esp
 804b920:	89 3c 24             	mov    %edi,(%esp)
 804b923:	89 54 24 04          	mov    %edx,0x4(%esp)
 804b927:	89 4c 24 08          	mov    %ecx,0x8(%esp)
 804b92b:	89 44 24 0c          	mov    %eax,0xc(%esp)
 804b92f:	b9 59 07 00 00       	mov    $0x759,%ecx
 804b934:	e8 c7 3b 00 00       	call   804f500 <__afl_maybe_log>
 804b939:	8b 44 24 0c          	mov    0xc(%esp),%eax
 804b93d:	8b 4c 24 08          	mov    0x8(%esp),%ecx
 804b941:	8b 54 24 04          	mov    0x4(%esp),%edx
 804b945:	8b 3c 24             	mov    (%esp),%edi
 804b948:	8d 64 24 10          	lea    0x10(%esp),%esp
            *current_column = 0;
          }
        else
          {
            {
    size_t temp_1 = fwrite_unlocked(buffer + written, 1, to_write, stdout);
 804b94c:	8d 64 24 f0          	lea    -0x10(%esp),%esp
 804b950:	89 3c 24             	mov    %edi,(%esp)
 804b953:	89 54 24 04          	mov    %edx,0x4(%esp)
 804b957:	89 4c 24 08          	mov    %ecx,0x8(%esp)
 804b95b:	89 44 24 0c          	mov    %eax,0xc(%esp)
 804b95f:	b9 be b5 00 00       	mov    $0xb5be,%ecx
 804b964:	e8 97 3b 00 00       	call   804f500 <__afl_maybe_log>
 804b969:	8b 44 24 0c          	mov    0xc(%esp),%eax
 804b96d:	8b 4c 24 08          	mov    0x8(%esp),%ecx
 804b971:	8b 54 24 04          	mov    0x4(%esp),%edx
 804b975:	8b 3c 24             	mov    (%esp),%edi
 804b978:	8d 64 24 10          	lea    0x10(%esp),%esp
 804b97c:	ff 35 d8 72 06 08    	pushl  0x80672d8
 804b982:	56                   	push   %esi
 804b983:	6a 01                	push   $0x1
 804b985:	8d bc 24 3c 78 00 00 	lea    0x783c(%esp),%edi
 804b98c:	01 ef                	add    %ebp,%edi
 804b98e:	57                   	push   %edi
 804b98f:	e8 6c da ff ff       	call   8049400 <fwrite_unlocked@plt>
asm volatile (""::: "memory");
	report_label_coverage("ABS", 209);
}

// ROR Label 210
if((temp_1 <= to_write) != (temp_1 < to_write))  {
 804b994:	83 c4 10             	add    $0x10,%esp
 804b997:	39 c6                	cmp    %eax,%esi
 804b999:	0f 97 c1             	seta   %cl
 804b99c:	0f 93 c2             	setae  %dl
 804b99f:	38 ca                	cmp    %cl,%dl
 804b9a1:	89 cf                	mov    %ecx,%edi
 804b9a3:	74 50                	je     804b9f5 <do_encode+0x1005>
 804b9a5:	8d 76 00             	lea    0x0(%esi),%esi
 804b9a8:	8d 64 24 f0          	lea    -0x10(%esp),%esp
 804b9ac:	89 3c 24             	mov    %edi,(%esp)
 804b9af:	89 54 24 04          	mov    %edx,0x4(%esp)
 804b9b3:	89 4c 24 08          	mov    %ecx,0x8(%esp)
 804b9b7:	89 44 24 0c          	mov    %eax,0xc(%esp)
 804b9bb:	b9 33 fe 00 00       	mov    $0xfe33,%ecx
 804b9c0:	e8 3b 3b 00 00       	call   804f500 <__afl_maybe_log>
 804b9c5:	8b 44 24 0c          	mov    0xc(%esp),%eax
 804b9c9:	8b 4c 24 08          	mov    0x8(%esp),%ecx
 804b9cd:	8b 54 24 04          	mov    0x4(%esp),%edx
 804b9d1:	8b 3c 24             	mov    (%esp),%edi
 804b9d4:	8d 64 24 10          	lea    0x10(%esp),%esp
 804b9d8:	89 44 24 1c          	mov    %eax,0x1c(%esp)
asm volatile (""::: "memory");
	report_label_coverage("ROR", 210);
 804b9dc:	83 ec 08             	sub    $0x8,%esp
 804b9df:	68 d2 00 00 00       	push   $0xd2
 804b9e4:	68 48 30 06 08       	push   $0x8063048
 804b9e9:	e8 c2 ef ff ff       	call   804a9b0 <report_label_coverage>
 804b9ee:	83 c4 10             	add    $0x10,%esp
 804b9f1:	8b 44 24 1c          	mov    0x1c(%esp),%eax
 804b9f5:	8d 76 00             	lea    0x0(%esi),%esi
}
// ROR Label 211
if((temp_1 > to_write) != (temp_1 < to_write))  {
 804b9f8:	8d 64 24 f0          	lea    -0x10(%esp),%esp
 804b9fc:	89 3c 24             	mov    %edi,(%esp)
 804b9ff:	89 54 24 04          	mov    %edx,0x4(%esp)
 804ba03:	89 4c 24 08          	mov    %ecx,0x8(%esp)
 804ba07:	89 44 24 0c          	mov    %eax,0xc(%esp)
 804ba0b:	b9 b4 d2 00 00       	mov    $0xd2b4,%ecx
 804ba10:	e8 eb 3a 00 00       	call   804f500 <__afl_maybe_log>
 804ba15:	8b 44 24 0c          	mov    0xc(%esp),%eax
 804ba19:	8b 4c 24 08          	mov    0x8(%esp),%ecx
 804ba1d:	8b 54 24 04          	mov    0x4(%esp),%edx
 804ba21:	8b 3c 24             	mov    (%esp),%edi
 804ba24:	8d 64 24 10          	lea    0x10(%esp),%esp
 804ba28:	39 c6                	cmp    %eax,%esi
 804ba2a:	89 f9                	mov    %edi,%ecx
 804ba2c:	0f 92 c2             	setb   %dl
 804ba2f:	38 d1                	cmp    %dl,%cl
 804ba31:	74 4e                	je     804ba81 <do_encode+0x1091>
 804ba33:	90                   	nop
 804ba34:	8d 64 24 f0          	lea    -0x10(%esp),%esp
 804ba38:	89 3c 24             	mov    %edi,(%esp)
 804ba3b:	89 54 24 04          	mov    %edx,0x4(%esp)
 804ba3f:	89 4c 24 08          	mov    %ecx,0x8(%esp)
 804ba43:	89 44 24 0c          	mov    %eax,0xc(%esp)
 804ba47:	b9 47 68 00 00       	mov    $0x6847,%ecx
 804ba4c:	e8 af 3a 00 00       	call   804f500 <__afl_maybe_log>
 804ba51:	8b 44 24 0c          	mov    0xc(%esp),%eax
 804ba55:	8b 4c 24 08          	mov    0x8(%esp),%ecx
 804ba59:	8b 54 24 04          	mov    0x4(%esp),%edx
 804ba5d:	8b 3c 24             	mov    (%esp),%edi
 804ba60:	8d 64 24 10          	lea    0x10(%esp),%esp
 804ba64:	89 44 24 1c          	mov    %eax,0x1c(%esp)
asm volatile (""::: "memory");
	report_label_coverage("ROR", 211);
 804ba68:	83 ec 08             	sub    $0x8,%esp
 804ba6b:	68 d3 00 00 00       	push   $0xd3
 804ba70:	68 48 30 06 08       	push   $0x8063048
 804ba75:	e8 36 ef ff ff       	call   804a9b0 <report_label_coverage>
 804ba7a:	83 c4 10             	add    $0x10,%esp
 804ba7d:	8b 44 24 1c          	mov    0x1c(%esp),%eax
 804ba81:	8d 76 00             	lea    0x0(%esi),%esi
}
// ROR Label 212
if((temp_1 >= to_write) != (temp_1 < to_write))  {
 804ba84:	8d 64 24 f0          	lea    -0x10(%esp),%esp
 804ba88:	89 3c 24             	mov    %edi,(%esp)
 804ba8b:	89 54 24 04          	mov    %edx,0x4(%esp)
 804ba8f:	89 4c 24 08          	mov    %ecx,0x8(%esp)
 804ba93:	89 44 24 0c          	mov    %eax,0xc(%esp)
 804ba97:	b9 d4 ba 00 00       	mov    $0xbad4,%ecx
 804ba9c:	e8 5f 3a 00 00       	call   804f500 <__afl_maybe_log>
 804baa1:	8b 44 24 0c          	mov    0xc(%esp),%eax
 804baa5:	8b 4c 24 08          	mov    0x8(%esp),%ecx
 804baa9:	8b 54 24 04          	mov    0x4(%esp),%edx
 804baad:	8b 3c 24             	mov    (%esp),%edi
 804bab0:	8d 64 24 10          	lea    0x10(%esp),%esp
 804bab4:	39 c6                	cmp    %eax,%esi
 804bab6:	89 fa                	mov    %edi,%edx
 804bab8:	0f 96 c0             	setbe  %al
 804babb:	38 c2                	cmp    %al,%dl
 804babd:	74 46                	je     804bb05 <do_encode+0x1115>
 804babf:	90                   	nop
 804bac0:	8d 64 24 f0          	lea    -0x10(%esp),%esp
 804bac4:	89 3c 24             	mov    %edi,(%esp)
 804bac7:	89 54 24 04          	mov    %edx,0x4(%esp)
 804bacb:	89 4c 24 08          	mov    %ecx,0x8(%esp)
 804bacf:	89 44 24 0c          	mov    %eax,0xc(%esp)
 804bad3:	b9 e4 fc 00 00       	mov    $0xfce4,%ecx
 804bad8:	e8 23 3a 00 00       	call   804f500 <__afl_maybe_log>
 804badd:	8b 44 24 0c          	mov    0xc(%esp),%eax
 804bae1:	8b 4c 24 08          	mov    0x8(%esp),%ecx
 804bae5:	8b 54 24 04          	mov    0x4(%esp),%edx
 804bae9:	8b 3c 24             	mov    (%esp),%edi
 804baec:	8d 64 24 10          	lea    0x10(%esp),%esp
asm volatile (""::: "memory");
	report_label_coverage("ROR", 212);
 804baf0:	83 ec 08             	sub    $0x8,%esp
 804baf3:	68 d4 00 00 00       	push   $0xd4
 804baf8:	68 48 30 06 08       	push   $0x8063048
 804bafd:	e8 ae ee ff ff       	call   804a9b0 <report_label_coverage>
 804bb02:	83 c4 10             	add    $0x10,%esp
 804bb05:	8d 76 00             	lea    0x0(%esi),%esi
}
if (temp_1 < to_write)
 804bb08:	8d 64 24 f0          	lea    -0x10(%esp),%esp
 804bb0c:	89 3c 24             	mov    %edi,(%esp)
 804bb0f:	89 54 24 04          	mov    %edx,0x4(%esp)
 804bb13:	89 4c 24 08          	mov    %ecx,0x8(%esp)
 804bb17:	89 44 24 0c          	mov    %eax,0xc(%esp)
 804bb1b:	b9 a3 aa 00 00       	mov    $0xaaa3,%ecx
 804bb20:	e8 db 39 00 00       	call   804f500 <__afl_maybe_log>
 804bb25:	8b 44 24 0c          	mov    0xc(%esp),%eax
 804bb29:	8b 4c 24 08          	mov    0x8(%esp),%ecx
 804bb2d:	8b 54 24 04          	mov    0x4(%esp),%edx
 804bb31:	8b 3c 24             	mov    (%esp),%edi
 804bb34:	8d 64 24 10          	lea    0x10(%esp),%esp
 804bb38:	89 f9                	mov    %edi,%ecx
 804bb3a:	84 c9                	test   %cl,%cl
 804bb3c:	0f 85 ae 01 00 00    	jne    804bcf0 <do_encode+0x1300>
 804bb42:	66 90                	xchg   %ax,%ax
 804bb44:	8d 64 24 f0          	lea    -0x10(%esp),%esp
 804bb48:	89 3c 24             	mov    %edi,(%esp)
 804bb4b:	89 54 24 04          	mov    %edx,0x4(%esp)
 804bb4f:	89 4c 24 08          	mov    %ecx,0x8(%esp)
 804bb53:	89 44 24 0c          	mov    %eax,0xc(%esp)
 804bb57:	b9 b9 a8 00 00       	mov    $0xa8b9,%ecx
 804bb5c:	e8 9f 39 00 00       	call   804f500 <__afl_maybe_log>
 804bb61:	8b 44 24 0c          	mov    0xc(%esp),%eax
 804bb65:	8b 4c 24 08          	mov    0x8(%esp),%ecx
 804bb69:	8b 54 24 04          	mov    0x4(%esp),%edx
 804bb6d:	8b 3c 24             	mov    (%esp),%edi
 804bb70:	8d 64 24 10          	lea    0x10(%esp),%esp
        error(1, (*__errno_location()), gettext("write error"));
}
;
            *current_column += to_write;
 804bb74:	8d 64 24 f0          	lea    -0x10(%esp),%esp
 804bb78:	89 3c 24             	mov    %edi,(%esp)
 804bb7b:	89 54 24 04          	mov    %edx,0x4(%esp)
 804bb7f:	89 4c 24 08          	mov    %ecx,0x8(%esp)
 804bb83:	89 44 24 0c          	mov    %eax,0xc(%esp)
 804bb87:	b9 5b 97 00 00       	mov    $0x975b,%ecx
 804bb8c:	e8 6f 39 00 00       	call   804f500 <__afl_maybe_log>
 804bb91:	8b 44 24 0c          	mov    0xc(%esp),%eax
 804bb95:	8b 4c 24 08          	mov    0x8(%esp),%ecx
 804bb99:	8b 54 24 04          	mov    0x4(%esp),%edx
 804bb9d:	8b 3c 24             	mov    (%esp),%edi
 804bba0:	8d 64 24 10          	lea    0x10(%esp),%esp
 804bba4:	01 f3                	add    %esi,%ebx
            written += to_write;
 804bba6:	01 f5                	add    %esi,%ebp
// ROR Label 192
if((written >= len) != (written < len))  {
asm volatile (""::: "memory");
	report_label_coverage("ROR", 192);
}
for (; written < len;)
 804bba8:	3b 6c 24 18          	cmp    0x18(%esp),%ebp
 804bbac:	0f 82 36 fc ff ff    	jb     804b7e8 <do_encode+0xdf8>
 804bbb2:	66 90                	xchg   %ax,%ax
 804bbb4:	8d 64 24 f0          	lea    -0x10(%esp),%esp
 804bbb8:	89 3c 24             	mov    %edi,(%esp)
 804bbbb:	89 54 24 04          	mov    %edx,0x4(%esp)
 804bbbf:	89 4c 24 08          	mov    %ecx,0x8(%esp)
 804bbc3:	89 44 24 0c          	mov    %eax,0xc(%esp)
 804bbc7:	b9 73 d4 00 00       	mov    $0xd473,%ecx
 804bbcc:	e8 2f 39 00 00       	call   804f500 <__afl_maybe_log>
 804bbd1:	8b 44 24 0c          	mov    0xc(%esp),%eax
 804bbd5:	8b 4c 24 08          	mov    0x8(%esp),%ecx
 804bbd9:	8b 54 24 04          	mov    0x4(%esp),%edx
 804bbdd:	8b 3c 24             	mov    (%esp),%edi
 804bbe0:	8d 64 24 10          	lea    0x10(%esp),%esp
 804bbe4:	8d 64 24 f0          	lea    -0x10(%esp),%esp
 804bbe8:	89 3c 24             	mov    %edi,(%esp)
 804bbeb:	89 54 24 04          	mov    %edx,0x4(%esp)
 804bbef:	89 4c 24 08          	mov    %ecx,0x8(%esp)
 804bbf3:	89 44 24 0c          	mov    %eax,0xc(%esp)
 804bbf7:	b9 35 4f 00 00       	mov    $0x4f35,%ecx
 804bbfc:	e8 ff 38 00 00       	call   804f500 <__afl_maybe_log>
 804bc01:	8b 44 24 0c          	mov    0xc(%esp),%eax
 804bc05:	8b 4c 24 08          	mov    0x8(%esp),%ecx
 804bc09:	8b 54 24 04          	mov    0x4(%esp),%edx
 804bc0d:	8b 3c 24             	mov    (%esp),%edi
 804bc10:	8d 64 24 10          	lea    0x10(%esp),%esp
 804bc14:	89 ee                	mov    %ebp,%esi
asm volatile (""::: "memory");
	report_label_coverage("ABS", 194);
}

// ROR Label 195
if((written <= len) != (written < len))  {
 804bc16:	39 74 24 18          	cmp    %esi,0x18(%esp)
 804bc1a:	89 5c 24 1c          	mov    %ebx,0x1c(%esp)
 804bc1e:	8b 6c 24 28          	mov    0x28(%esp),%ebp
 804bc22:	8b 5c 24 24          	mov    0x24(%esp),%ebx
 804bc26:	0f 83 24 01 00 00    	jae    804bd50 <do_encode+0x1360>
 804bc2c:	8d 64 24 f0          	lea    -0x10(%esp),%esp
 804bc30:	89 3c 24             	mov    %edi,(%esp)
 804bc33:	89 54 24 04          	mov    %edx,0x4(%esp)
 804bc37:	89 4c 24 08          	mov    %ecx,0x8(%esp)
 804bc3b:	89 44 24 0c          	mov    %eax,0xc(%esp)
 804bc3f:	b9 f0 5c 00 00       	mov    $0x5cf0,%ecx
 804bc44:	e8 b7 38 00 00       	call   804f500 <__afl_maybe_log>
 804bc49:	8b 44 24 0c          	mov    0xc(%esp),%eax
 804bc4d:	8b 4c 24 08          	mov    0x8(%esp),%ecx
 804bc51:	8b 54 24 04          	mov    0x4(%esp),%edx
 804bc55:	8b 3c 24             	mov    (%esp),%edi
 804bc58:	8d 64 24 10          	lea    0x10(%esp),%esp
	report_label_coverage("ROR", 195);
}
// ROR Label 196
if((written > len) != (written < len))  {
asm volatile (""::: "memory");
	report_label_coverage("ROR", 196);
 804bc5c:	8d 64 24 f0          	lea    -0x10(%esp),%esp
 804bc60:	89 3c 24             	mov    %edi,(%esp)
 804bc63:	89 54 24 04          	mov    %edx,0x4(%esp)
 804bc67:	89 4c 24 08          	mov    %ecx,0x8(%esp)
 804bc6b:	89 44 24 0c          	mov    %eax,0xc(%esp)
 804bc6f:	b9 b4 26 00 00       	mov    $0x26b4,%ecx
 804bc74:	e8 87 38 00 00       	call   804f500 <__afl_maybe_log>
 804bc79:	8b 44 24 0c          	mov    0xc(%esp),%eax
 804bc7d:	8b 4c 24 08          	mov    0x8(%esp),%ecx
 804bc81:	8b 54 24 04          	mov    0x4(%esp),%edx
 804bc85:	8b 3c 24             	mov    (%esp),%edi
 804bc88:	8d 64 24 10          	lea    0x10(%esp),%esp
 804bc8c:	83 ec 08             	sub    $0x8,%esp
 804bc8f:	68 c4 00 00 00       	push   $0xc4
 804bc94:	68 48 30 06 08       	push   $0x8063048
 804bc99:	e8 12 ed ff ff       	call   804a9b0 <report_label_coverage>
 804bc9e:	83 c4 10             	add    $0x10,%esp
 804bca1:	8d 76 00             	lea    0x0(%esi),%esi
}
// ROR Label 197
if((written >= len) != (written < len))  {
asm volatile (""::: "memory");
	report_label_coverage("ROR", 197);
 804bca4:	8d 64 24 f0          	lea    -0x10(%esp),%esp
 804bca8:	89 3c 24             	mov    %edi,(%esp)
 804bcab:	89 54 24 04          	mov    %edx,0x4(%esp)
 804bcaf:	89 4c 24 08          	mov    %ecx,0x8(%esp)
 804bcb3:	89 44 24 0c          	mov    %eax,0xc(%esp)
 804bcb7:	b9 a3 a2 00 00       	mov    $0xa2a3,%ecx
 804bcbc:	e8 3f 38 00 00       	call   804f500 <__afl_maybe_log>
 804bcc1:	8b 44 24 0c          	mov    0xc(%esp),%eax
 804bcc5:	8b 4c 24 08          	mov    0x8(%esp),%ecx
 804bcc9:	8b 54 24 04          	mov    0x4(%esp),%edx
 804bccd:	8b 3c 24             	mov    (%esp),%edi
 804bcd0:	8d 64 24 10          	lea    0x10(%esp),%esp
 804bcd4:	83 ec 08             	sub    $0x8,%esp
 804bcd7:	68 c5 00 00 00       	push   $0xc5
 804bcdc:	68 48 30 06 08       	push   $0x8063048
 804bce1:	e8 ca ec ff ff       	call   804a9b0 <report_label_coverage>
 804bce6:	83 c4 10             	add    $0x10,%esp
 804bce9:	e9 87 ef ff ff       	jmp    804ac75 <do_encode+0x285>
 804bcee:	66 90                	xchg   %ax,%ax
if((temp_1 >= to_write) != (temp_1 < to_write))  {
asm volatile (""::: "memory");
	report_label_coverage("ROR", 212);
}
if (temp_1 < to_write)
        error(1, (*__errno_location()), gettext("write error"));
 804bcf0:	83 ec 04             	sub    $0x4,%esp
 804bcf3:	6a 05                	push   $0x5
 804bcf5:	68 4c 30 06 08       	push   $0x806304c
 804bcfa:	6a 00                	push   $0x0
 804bcfc:	e8 df d4 ff ff       	call   80491e0 <dcgettext@plt>
 804bd01:	89 c7                	mov    %eax,%edi
 804bd03:	e8 c8 d6 ff ff       	call   80493d0 <__errno_location@plt>
 804bd08:	83 c4 0c             	add    $0xc,%esp
 804bd0b:	57                   	push   %edi
 804bd0c:	ff 30                	pushl  (%eax)
 804bd0e:	6a 01                	push   $0x1
 804bd10:	e8 7b d5 ff ff       	call   8049290 <error@plt>
 804bd15:	83 c4 10             	add    $0x10,%esp
 804bd18:	e9 57 fe ff ff       	jmp    804bb74 <do_encode+0x1184>
 804bd1d:	8d 76 00             	lea    0x0(%esi),%esi
if((temp_1 != temp_2) != (temp_1 == temp_2))  {
asm volatile (""::: "memory");
	report_label_coverage("ROR", 207);
}
if (temp_1 == temp_2)
        error(1, (*__errno_location()), gettext("write error"));
 804bd20:	83 ec 04             	sub    $0x4,%esp
 804bd23:	6a 05                	push   $0x5
 804bd25:	68 4c 30 06 08       	push   $0x806304c
 804bd2a:	6a 00                	push   $0x0
 804bd2c:	e8 af d4 ff ff       	call   80491e0 <dcgettext@plt>
 804bd31:	89 c7                	mov    %eax,%edi
 804bd33:	e8 98 d6 ff ff       	call   80493d0 <__errno_location@plt>
 804bd38:	83 c4 0c             	add    $0xc,%esp
 804bd3b:	57                   	push   %edi
 804bd3c:	ff 30                	pushl  (%eax)
 804bd3e:	6a 01                	push   $0x1
 804bd40:	e8 4b d5 ff ff       	call   8049290 <error@plt>
 804bd45:	83 c4 10             	add    $0x10,%esp
 804bd48:	e9 2f fa ff ff       	jmp    804b77c <do_encode+0xd8c>
 804bd4d:	8d 76 00             	lea    0x0(%esi),%esi
}

// ROR Label 195
if((written <= len) != (written < len))  {
asm volatile (""::: "memory");
	report_label_coverage("ROR", 195);
 804bd50:	83 ec 08             	sub    $0x8,%esp
 804bd53:	68 c3 00 00 00       	push   $0xc3
 804bd58:	68 48 30 06 08       	push   $0x8063048
 804bd5d:	e8 4e ec ff ff       	call   804a9b0 <report_label_coverage>
 804bd62:	83 c4 10             	add    $0x10,%esp
}
// ROR Label 196
if((written > len) != (written < len))  {
 804bd65:	39 74 24 18          	cmp    %esi,0x18(%esp)
 804bd69:	0f 83 32 ff ff ff    	jae    804bca1 <do_encode+0x12b1>
 804bd6f:	90                   	nop
 804bd70:	8d 64 24 f0          	lea    -0x10(%esp),%esp
 804bd74:	89 3c 24             	mov    %edi,(%esp)
 804bd77:	89 54 24 04          	mov    %edx,0x4(%esp)
 804bd7b:	89 4c 24 08          	mov    %ecx,0x8(%esp)
 804bd7f:	89 44 24 0c          	mov    %eax,0xc(%esp)
 804bd83:	b9 ce 67 00 00       	mov    $0x67ce,%ecx
 804bd88:	e8 73 37 00 00       	call   804f500 <__afl_maybe_log>
 804bd8d:	8b 44 24 0c          	mov    0xc(%esp),%eax
 804bd91:	8b 4c 24 08          	mov    0x8(%esp),%ecx
 804bd95:	8b 54 24 04          	mov    0x4(%esp),%edx
 804bd99:	8b 3c 24             	mov    (%esp),%edi
 804bd9c:	8d 64 24 10          	lea    0x10(%esp),%esp
 804bda0:	e9 b7 fe ff ff       	jmp    804bc5c <do_encode+0x126c>
 804bda5:	8d 76 00             	lea    0x0(%esi),%esi
 804bda8:	83 ec 08             	sub    $0x8,%esp
 804bdab:	6a 0a                	push   $0xa
 804bdad:	ff 74 24 2c          	pushl  0x2c(%esp)
 804bdb1:	e8 ba d6 ff ff       	call   8049470 <__overflow@plt>
            {
    int temp_1 = fputc_unlocked('\n', out);
    int temp_2 = -1;
    
// ABS Label 205
if(temp_1 < 0)  {
 804bdb6:	83 c4 10             	add    $0x10,%esp
 804bdb9:	85 c0                	test   %eax,%eax
 804bdbb:	89 c7                	mov    %eax,%edi
 804bdbd:	0f 89 7e f8 ff ff    	jns    804b641 <do_encode+0xc51>
 804bdc3:	90                   	nop
 804bdc4:	8d 64 24 f0          	lea    -0x10(%esp),%esp
 804bdc8:	89 3c 24             	mov    %edi,(%esp)
 804bdcb:	89 54 24 04          	mov    %edx,0x4(%esp)
 804bdcf:	89 4c 24 08          	mov    %ecx,0x8(%esp)
 804bdd3:	89 44 24 0c          	mov    %eax,0xc(%esp)
 804bdd7:	b9 22 f7 00 00       	mov    $0xf722,%ecx
 804bddc:	e8 1f 37 00 00       	call   804f500 <__afl_maybe_log>
 804bde1:	8b 44 24 0c          	mov    0xc(%esp),%eax
 804bde5:	8b 4c 24 08          	mov    0x8(%esp),%ecx
 804bde9:	8b 54 24 04          	mov    0x4(%esp),%edx
 804bded:	8b 3c 24             	mov    (%esp),%edi
 804bdf0:	8d 64 24 10          	lea    0x10(%esp),%esp
asm volatile (""::: "memory");
	report_label_coverage("ABS", 205);
 804bdf4:	83 ec 08             	sub    $0x8,%esp
 804bdf7:	68 cd 00 00 00       	push   $0xcd
 804bdfc:	68 5c 30 06 08       	push   $0x806305c
 804be01:	e8 aa eb ff ff       	call   804a9b0 <report_label_coverage>
 804be06:	83 c4 10             	add    $0x10,%esp
 804be09:	83 ff ff             	cmp    $0xffffffff,%edi
 804be0c:	0f 94 c0             	sete   %al
 804be0f:	0f 95 c3             	setne  %bl
 804be12:	89 c6                	mov    %eax,%esi
 804be14:	e9 62 f8 ff ff       	jmp    804b67b <do_encode+0xc8b>
 804be19:	8d b4 26 00 00 00 00 	lea    0x0(%esi,%eiz,1),%esi
// ROR Label 182
if((wrap_column != 0) != (wrap_column == 0))  {
asm volatile (""::: "memory");
	report_label_coverage("ROR", 182);
}
if (wrap_column == 0)
 804be20:	84 c9                	test   %cl,%cl
 804be22:	0f 85 cc f3 ff ff    	jne    804b1f4 <do_encode+0x804>
 804be28:	8d 64 24 f0          	lea    -0x10(%esp),%esp
 804be2c:	89 3c 24             	mov    %edi,(%esp)
 804be2f:	89 54 24 04          	mov    %edx,0x4(%esp)
 804be33:	89 4c 24 08          	mov    %ecx,0x8(%esp)
 804be37:	89 44 24 0c          	mov    %eax,0xc(%esp)
 804be3b:	b9 6a 5f 00 00       	mov    $0x5f6a,%ecx
 804be40:	e8 bb 36 00 00       	call   804f500 <__afl_maybe_log>
 804be45:	8b 44 24 0c          	mov    0xc(%esp),%eax
 804be49:	8b 4c 24 08          	mov    0x8(%esp),%ecx
 804be4d:	8b 54 24 04          	mov    0x4(%esp),%edx
 804be51:	8b 3c 24             	mov    (%esp),%edi
 804be54:	8d 64 24 10          	lea    0x10(%esp),%esp
asm volatile (""::: "memory");
	report_label_coverage("ABS", 189);
}

// ROR Label 190
if((written <= len) != (written < len))  {
 804be58:	8b 7c 24 18          	mov    0x18(%esp),%edi
 804be5c:	85 ff                	test   %edi,%edi
 804be5e:	0f 85 20 f6 ff ff    	jne    804b484 <do_encode+0xa94>
 804be64:	8d 64 24 f0          	lea    -0x10(%esp),%esp
 804be68:	89 3c 24             	mov    %edi,(%esp)
 804be6b:	89 54 24 04          	mov    %edx,0x4(%esp)
 804be6f:	89 4c 24 08          	mov    %ecx,0x8(%esp)
 804be73:	89 44 24 0c          	mov    %eax,0xc(%esp)
 804be77:	b9 8b 2e 00 00       	mov    $0x2e8b,%ecx
 804be7c:	e8 7f 36 00 00       	call   804f500 <__afl_maybe_log>
 804be81:	8b 44 24 0c          	mov    0xc(%esp),%eax
 804be85:	8b 4c 24 08          	mov    0x8(%esp),%ecx
 804be89:	8b 54 24 04          	mov    0x4(%esp),%edx
 804be8d:	8b 3c 24             	mov    (%esp),%edi
 804be90:	8d 64 24 10          	lea    0x10(%esp),%esp
asm volatile (""::: "memory");
	report_label_coverage("ROR", 190);
 804be94:	8d 64 24 f0          	lea    -0x10(%esp),%esp
 804be98:	89 3c 24             	mov    %edi,(%esp)
 804be9b:	89 54 24 04          	mov    %edx,0x4(%esp)
 804be9f:	89 4c 24 08          	mov    %ecx,0x8(%esp)
 804bea3:	89 44 24 0c          	mov    %eax,0xc(%esp)
 804bea7:	b9 da d9 00 00       	mov    $0xd9da,%ecx
 804beac:	e8 4f 36 00 00       	call   804f500 <__afl_maybe_log>
 804beb1:	8b 44 24 0c          	mov    0xc(%esp),%eax
 804beb5:	8b 4c 24 08          	mov    0x8(%esp),%ecx
 804beb9:	8b 54 24 04          	mov    0x4(%esp),%edx
 804bebd:	8b 3c 24             	mov    (%esp),%edi
 804bec0:	8d 64 24 10          	lea    0x10(%esp),%esp
 804bec4:	83 ec 08             	sub    $0x8,%esp
 804bec7:	68 be 00 00 00       	push   $0xbe
 804becc:	68 48 30 06 08       	push   $0x8063048
 804bed1:	e8 da ea ff ff       	call   804a9b0 <report_label_coverage>
 804bed6:	83 c4 10             	add    $0x10,%esp
 804bed9:	e9 eb f5 ff ff       	jmp    804b4c9 <do_encode+0xad9>
 804bede:	66 90                	xchg   %ax,%ax
asm volatile (""::: "memory");
	report_label_coverage("ABS", 223);
}

// COR Label 224
if((wrap_column || current_column > 0) != (wrap_column && current_column > 0))  {
 804bee0:	8d 64 24 f0          	lea    -0x10(%esp),%esp
 804bee4:	89 3c 24             	mov    %edi,(%esp)
 804bee7:	89 54 24 04          	mov    %edx,0x4(%esp)
 804beeb:	89 4c 24 08          	mov    %ecx,0x8(%esp)
 804beef:	89 44 24 0c          	mov    %eax,0xc(%esp)
 804bef3:	b9 0e 34 00 00       	mov    $0x340e,%ecx
 804bef8:	e8 03 36 00 00       	call   804f500 <__afl_maybe_log>
 804befd:	8b 44 24 0c          	mov    0xc(%esp),%eax
 804bf01:	8b 4c 24 08          	mov    0x8(%esp),%ecx
 804bf05:	8b 54 24 04          	mov    0x4(%esp),%edx
 804bf09:	8b 3c 24             	mov    (%esp),%edi
 804bf0c:	8d 64 24 10          	lea    0x10(%esp),%esp
 804bf10:	83 7c 24 1c 00       	cmpl   $0x0,0x1c(%esp)
 804bf15:	0f 85 e9 ee ff ff    	jne    804ae04 <do_encode+0x414>
 804bf1b:	90                   	nop
 804bf1c:	8d 64 24 f0          	lea    -0x10(%esp),%esp
 804bf20:	89 3c 24             	mov    %edi,(%esp)
 804bf23:	89 54 24 04          	mov    %edx,0x4(%esp)
 804bf27:	89 4c 24 08          	mov    %ecx,0x8(%esp)
 804bf2b:	89 44 24 0c          	mov    %eax,0xc(%esp)
 804bf2f:	b9 72 db 00 00       	mov    $0xdb72,%ecx
 804bf34:	e8 c7 35 00 00       	call   804f500 <__afl_maybe_log>
 804bf39:	8b 44 24 0c          	mov    0xc(%esp),%eax
 804bf3d:	8b 4c 24 08          	mov    0x8(%esp),%ecx
 804bf41:	8b 54 24 04          	mov    0x4(%esp),%edx
 804bf45:	8b 3c 24             	mov    (%esp),%edi
 804bf48:	8d 64 24 10          	lea    0x10(%esp),%esp
asm volatile (""::: "memory");
	report_label_coverage("COR", 224);
 804bf4c:	8d 64 24 f0          	lea    -0x10(%esp),%esp
 804bf50:	89 3c 24             	mov    %edi,(%esp)
 804bf53:	89 54 24 04          	mov    %edx,0x4(%esp)
 804bf57:	89 4c 24 08          	mov    %ecx,0x8(%esp)
 804bf5b:	89 44 24 0c          	mov    %eax,0xc(%esp)
 804bf5f:	b9 b9 98 00 00       	mov    $0x98b9,%ecx
 804bf64:	e8 97 35 00 00       	call   804f500 <__afl_maybe_log>
 804bf69:	8b 44 24 0c          	mov    0xc(%esp),%eax
 804bf6d:	8b 4c 24 08          	mov    0x8(%esp),%ecx
 804bf71:	8b 54 24 04          	mov    0x4(%esp),%edx
 804bf75:	8b 3c 24             	mov    (%esp),%edi
 804bf78:	8d 64 24 10          	lea    0x10(%esp),%esp
 804bf7c:	53                   	push   %ebx
 804bf7d:	53                   	push   %ebx
 804bf7e:	68 e0 00 00 00       	push   $0xe0
 804bf83:	68 60 30 06 08       	push   $0x8063060
 804bf88:	e8 23 ea ff ff       	call   804a9b0 <report_label_coverage>
 804bf8d:	83 c4 10             	add    $0x10,%esp
 804bf90:	e9 6f ee ff ff       	jmp    804ae04 <do_encode+0x414>
 804bf95:	8d 76 00             	lea    0x0(%esi),%esi
if(wrap_column && !(current_column > 0) ) {
asm volatile (""::: "memory");
	report_label_coverage("MCC", 229);
}
// MCC Label 230
if(!(wrap_column) && current_column > 0 ) {
 804bf98:	8d 64 24 f0          	lea    -0x10(%esp),%esp
 804bf9c:	89 3c 24             	mov    %edi,(%esp)
 804bf9f:	89 54 24 04          	mov    %edx,0x4(%esp)
 804bfa3:	89 4c 24 08          	mov    %ecx,0x8(%esp)
 804bfa7:	89 44 24 0c          	mov    %eax,0xc(%esp)
 804bfab:	b9 af 2f 00 00       	mov    $0x2faf,%ecx
 804bfb0:	e8 4b 35 00 00       	call   804f500 <__afl_maybe_log>
 804bfb5:	8b 44 24 0c          	mov    0xc(%esp),%eax
 804bfb9:	8b 4c 24 08          	mov    0x8(%esp),%ecx
 804bfbd:	8b 54 24 04          	mov    0x4(%esp),%edx
 804bfc1:	8b 3c 24             	mov    (%esp),%edi
 804bfc4:	8d 64 24 10          	lea    0x10(%esp),%esp
 804bfc8:	84 db                	test   %bl,%bl
 804bfca:	0f 85 df 03 00 00    	jne    804c3af <do_encode+0x19bf>
 804bfd0:	8d 64 24 f0          	lea    -0x10(%esp),%esp
 804bfd4:	89 3c 24             	mov    %edi,(%esp)
 804bfd7:	89 54 24 04          	mov    %edx,0x4(%esp)
 804bfdb:	89 4c 24 08          	mov    %ecx,0x8(%esp)
 804bfdf:	89 44 24 0c          	mov    %eax,0xc(%esp)
 804bfe3:	b9 c4 03 00 00       	mov    $0x3c4,%ecx
 804bfe8:	e8 13 35 00 00       	call   804f500 <__afl_maybe_log>
 804bfed:	8b 44 24 0c          	mov    0xc(%esp),%eax
 804bff1:	8b 4c 24 08          	mov    0x8(%esp),%ecx
 804bff5:	8b 54 24 04          	mov    0x4(%esp),%edx
 804bff9:	8b 3c 24             	mov    (%esp),%edi
 804bffc:	8d 64 24 10          	lea    0x10(%esp),%esp
asm volatile (""::: "memory");
	report_label_coverage("MCC", 230);
}
// MCC Label 231
if(!(wrap_column) && !(current_column > 0) ) {
 804c000:	8d 64 24 f0          	lea    -0x10(%esp),%esp
 804c004:	89 3c 24             	mov    %edi,(%esp)
 804c007:	89 54 24 04          	mov    %edx,0x4(%esp)
 804c00b:	89 4c 24 08          	mov    %ecx,0x8(%esp)
 804c00f:	89 44 24 0c          	mov    %eax,0xc(%esp)
 804c013:	b9 e6 96 00 00       	mov    $0x96e6,%ecx
 804c018:	e8 e3 34 00 00       	call   804f500 <__afl_maybe_log>
 804c01d:	8b 44 24 0c          	mov    0xc(%esp),%eax
 804c021:	8b 4c 24 08          	mov    0x8(%esp),%ecx
 804c025:	8b 54 24 04          	mov    0x4(%esp),%edx
 804c029:	8b 3c 24             	mov    (%esp),%edi
 804c02c:	8d 64 24 10          	lea    0x10(%esp),%esp
 804c030:	89 f3                	mov    %esi,%ebx
 804c032:	84 db                	test   %bl,%bl
 804c034:	0f 84 0e f0 ff ff    	je     804b048 <do_encode+0x658>
 804c03a:	66 90                	xchg   %ax,%ax
 804c03c:	8d 64 24 f0          	lea    -0x10(%esp),%esp
 804c040:	89 3c 24             	mov    %edi,(%esp)
 804c043:	89 54 24 04          	mov    %edx,0x4(%esp)
 804c047:	89 4c 24 08          	mov    %ecx,0x8(%esp)
 804c04b:	89 44 24 0c          	mov    %eax,0xc(%esp)
 804c04f:	b9 e4 be 00 00       	mov    $0xbee4,%ecx
 804c054:	e8 a7 34 00 00       	call   804f500 <__afl_maybe_log>
 804c059:	8b 44 24 0c          	mov    0xc(%esp),%eax
 804c05d:	8b 4c 24 08          	mov    0x8(%esp),%ecx
 804c061:	8b 54 24 04          	mov    0x4(%esp),%edx
 804c065:	8b 3c 24             	mov    (%esp),%edi
 804c068:	8d 64 24 10          	lea    0x10(%esp),%esp
asm volatile (""::: "memory");
	report_label_coverage("MCC", 231);
 804c06c:	50                   	push   %eax
 804c06d:	50                   	push   %eax
 804c06e:	68 e7 00 00 00       	push   $0xe7
 804c073:	68 64 30 06 08       	push   $0x8063064
 804c078:	e8 33 e9 ff ff       	call   804a9b0 <report_label_coverage>
 804c07d:	83 c4 10             	add    $0x10,%esp
 804c080:	e9 c3 ef ff ff       	jmp    804b048 <do_encode+0x658>
 804c085:	8d 76 00             	lea    0x0(%esi),%esi
if((temp_1 >= len) != (temp_1 < len))  {
asm volatile (""::: "memory");
	report_label_coverage("ROR", 187);
}
if (temp_1 < len)
        error(1, (*__errno_location()), gettext("write error"));
 804c088:	8d 64 24 f0          	lea    -0x10(%esp),%esp
 804c08c:	89 3c 24             	mov    %edi,(%esp)
 804c08f:	89 54 24 04          	mov    %edx,0x4(%esp)
 804c093:	89 4c 24 08          	mov    %ecx,0x8(%esp)
 804c097:	89 44 24 0c          	mov    %eax,0xc(%esp)
 804c09b:	b9 fb 2f 00 00       	mov    $0x2ffb,%ecx
 804c0a0:	e8 5b 34 00 00       	call   804f500 <__afl_maybe_log>
 804c0a5:	8b 44 24 0c          	mov    0xc(%esp),%eax
 804c0a9:	8b 4c 24 08          	mov    0x8(%esp),%ecx
 804c0ad:	8b 54 24 04          	mov    0x4(%esp),%edx
 804c0b1:	8b 3c 24             	mov    (%esp),%edi
 804c0b4:	8d 64 24 10          	lea    0x10(%esp),%esp
 804c0b8:	57                   	push   %edi
 804c0b9:	6a 05                	push   $0x5
 804c0bb:	68 4c 30 06 08       	push   $0x806304c
 804c0c0:	6a 00                	push   $0x0
 804c0c2:	e8 19 d1 ff ff       	call   80491e0 <dcgettext@plt>
 804c0c7:	89 c6                	mov    %eax,%esi
 804c0c9:	e8 02 d3 ff ff       	call   80493d0 <__errno_location@plt>
 804c0ce:	83 c4 0c             	add    $0xc,%esp
 804c0d1:	56                   	push   %esi
 804c0d2:	ff 30                	pushl  (%eax)
 804c0d4:	6a 01                	push   $0x1
 804c0d6:	e8 b5 d1 ff ff       	call   8049290 <error@plt>
 804c0db:	83 c4 10             	add    $0x10,%esp
 804c0de:	e9 35 f3 ff ff       	jmp    804b418 <do_encode+0xa28>
 804c0e3:	90                   	nop
	report_label_coverage("ROR", 226);
}
// ROR Label 227
if((current_column >= 0) != (current_column > 0))  {
asm volatile (""::: "memory");
	report_label_coverage("ROR", 227);
 804c0e4:	8d 64 24 f0          	lea    -0x10(%esp),%esp
 804c0e8:	89 3c 24             	mov    %edi,(%esp)
 804c0eb:	89 54 24 04          	mov    %edx,0x4(%esp)
 804c0ef:	89 4c 24 08          	mov    %ecx,0x8(%esp)
 804c0f3:	89 44 24 0c          	mov    %eax,0xc(%esp)
 804c0f7:	b9 f8 a6 00 00       	mov    $0xa6f8,%ecx
 804c0fc:	e8 ff 33 00 00       	call   804f500 <__afl_maybe_log>
 804c101:	8b 44 24 0c          	mov    0xc(%esp),%eax
 804c105:	8b 4c 24 08          	mov    0x8(%esp),%ecx
 804c109:	8b 54 24 04          	mov    0x4(%esp),%edx
 804c10d:	8b 3c 24             	mov    (%esp),%edi
 804c110:	8d 64 24 10          	lea    0x10(%esp),%esp
 804c114:	50                   	push   %eax
 804c115:	50                   	push   %eax
 804c116:	68 e3 00 00 00       	push   $0xe3
 804c11b:	68 48 30 06 08       	push   $0x8063048
 804c120:	e8 8b e8 ff ff       	call   804a9b0 <report_label_coverage>
 804c125:	83 c4 10             	add    $0x10,%esp
 804c128:	e9 33 ee ff ff       	jmp    804af60 <do_encode+0x570>
 804c12d:	8d 76 00             	lea    0x0(%esi),%esi
	report_label_coverage("ROR", 225);
}
// ROR Label 226
if((current_column < 0) != (current_column > 0))  {
asm volatile (""::: "memory");
	report_label_coverage("ROR", 226);
 804c130:	8d 64 24 f0          	lea    -0x10(%esp),%esp
 804c134:	89 3c 24             	mov    %edi,(%esp)
 804c137:	89 54 24 04          	mov    %edx,0x4(%esp)
 804c13b:	89 4c 24 08          	mov    %ecx,0x8(%esp)
 804c13f:	89 44 24 0c          	mov    %eax,0xc(%esp)
 804c143:	b9 08 cc 00 00       	mov    $0xcc08,%ecx
 804c148:	e8 b3 33 00 00       	call   804f500 <__afl_maybe_log>
 804c14d:	8b 44 24 0c          	mov    0xc(%esp),%eax
 804c151:	8b 4c 24 08          	mov    0x8(%esp),%ecx
 804c155:	8b 54 24 04          	mov    0x4(%esp),%edx
 804c159:	8b 3c 24             	mov    (%esp),%edi
 804c15c:	8d 64 24 10          	lea    0x10(%esp),%esp
 804c160:	52                   	push   %edx
 804c161:	52                   	push   %edx
 804c162:	68 e2 00 00 00       	push   $0xe2
 804c167:	68 48 30 06 08       	push   $0x8063048
 804c16c:	e8 3f e8 ff ff       	call   804a9b0 <report_label_coverage>
 804c171:	83 c4 10             	add    $0x10,%esp
 804c174:	e9 7b ed ff ff       	jmp    804aef4 <do_encode+0x504>
 804c179:	8d 76 00             	lea    0x0(%esi),%esi
}

// MCC Label 228
if(wrap_column && current_column > 0 ) {
asm volatile (""::: "memory");
	report_label_coverage("MCC", 228);
 804c17c:	8d 64 24 f0          	lea    -0x10(%esp),%esp
 804c180:	89 3c 24             	mov    %edi,(%esp)
 804c183:	89 54 24 04          	mov    %edx,0x4(%esp)
 804c187:	89 4c 24 08          	mov    %ecx,0x8(%esp)
 804c18b:	89 44 24 0c          	mov    %eax,0xc(%esp)
 804c18f:	b9 ee 25 00 00       	mov    $0x25ee,%ecx
 804c194:	e8 67 33 00 00       	call   804f500 <__afl_maybe_log>
 804c199:	8b 44 24 0c          	mov    0xc(%esp),%eax
 804c19d:	8b 4c 24 08          	mov    0x8(%esp),%ecx
 804c1a1:	8b 54 24 04          	mov    0x4(%esp),%edx
 804c1a5:	8b 3c 24             	mov    (%esp),%edi
 804c1a8:	8d 64 24 10          	lea    0x10(%esp),%esp
 804c1ac:	50                   	push   %eax
 804c1ad:	50                   	push   %eax
 804c1ae:	68 e4 00 00 00       	push   $0xe4
 804c1b3:	68 64 30 06 08       	push   $0x8063064
 804c1b8:	e8 f3 e7 ff ff       	call   804a9b0 <report_label_coverage>
}
// MCC Label 229
if(wrap_column && !(current_column > 0) ) {
 804c1bd:	89 f0                	mov    %esi,%eax
 804c1bf:	83 c4 10             	add    $0x10,%esp
 804c1c2:	84 c0                	test   %al,%al
 804c1c4:	0f 85 2f 02 00 00    	jne    804c3f9 <do_encode+0x1a09>
 804c1ca:	66 90                	xchg   %ax,%ax
 804c1cc:	8d 64 24 f0          	lea    -0x10(%esp),%esp
 804c1d0:	89 3c 24             	mov    %edi,(%esp)
 804c1d3:	89 54 24 04          	mov    %edx,0x4(%esp)
 804c1d7:	89 4c 24 08          	mov    %ecx,0x8(%esp)
 804c1db:	89 44 24 0c          	mov    %eax,0xc(%esp)
 804c1df:	b9 e8 05 00 00       	mov    $0x5e8,%ecx
 804c1e4:	e8 17 33 00 00       	call   804f500 <__afl_maybe_log>
 804c1e9:	8b 44 24 0c          	mov    0xc(%esp),%eax
 804c1ed:	8b 4c 24 08          	mov    0x8(%esp),%ecx
 804c1f1:	8b 54 24 04          	mov    0x4(%esp),%edx
 804c1f5:	8b 3c 24             	mov    (%esp),%edi
 804c1f8:	8d 64 24 10          	lea    0x10(%esp),%esp
 804c1fc:	8d 64 24 f0          	lea    -0x10(%esp),%esp
 804c200:	89 3c 24             	mov    %edi,(%esp)
 804c203:	89 54 24 04          	mov    %edx,0x4(%esp)
 804c207:	89 4c 24 08          	mov    %ecx,0x8(%esp)
 804c20b:	89 44 24 0c          	mov    %eax,0xc(%esp)
 804c20f:	b9 95 8b 00 00       	mov    $0x8b95,%ecx
 804c214:	e8 e7 32 00 00       	call   804f500 <__afl_maybe_log>
 804c219:	8b 44 24 0c          	mov    0xc(%esp),%eax
 804c21d:	8b 4c 24 08          	mov    0x8(%esp),%ecx
 804c221:	8b 54 24 04          	mov    0x4(%esp),%edx
 804c225:	8b 3c 24             	mov    (%esp),%edi
 804c228:	8d 64 24 10          	lea    0x10(%esp),%esp
 804c22c:	8b 74 24 20          	mov    0x20(%esp),%esi
 804c230:	8b 5e 14             	mov    0x14(%esi),%ebx
 804c233:	3b 5e 18             	cmp    0x18(%esi),%ebx
 804c236:	0f 83 41 02 00 00    	jae    804c47d <do_encode+0x1a8d>
 804c23c:	8d 64 24 f0          	lea    -0x10(%esp),%esp
 804c240:	89 3c 24             	mov    %edi,(%esp)
 804c243:	89 54 24 04          	mov    %edx,0x4(%esp)
 804c247:	89 4c 24 08          	mov    %ecx,0x8(%esp)
 804c24b:	89 44 24 0c          	mov    %eax,0xc(%esp)
 804c24f:	b9 8f 21 00 00       	mov    $0x218f,%ecx
 804c254:	e8 a7 32 00 00       	call   804f500 <__afl_maybe_log>
 804c259:	8b 44 24 0c          	mov    0xc(%esp),%eax
 804c25d:	8b 4c 24 08          	mov    0x8(%esp),%ecx
 804c261:	8b 54 24 04          	mov    0x4(%esp),%edx
 804c265:	8b 3c 24             	mov    (%esp),%edi
 804c268:	8d 64 24 10          	lea    0x10(%esp),%esp
 804c26c:	8b 4c 24 20          	mov    0x20(%esp),%ecx
 804c270:	8d 53 01             	lea    0x1(%ebx),%edx
 804c273:	89 51 14             	mov    %edx,0x14(%ecx)
 804c276:	c6 03 0a             	movb   $0xa,(%ebx)
 804c279:	bb 0a 00 00 00       	mov    $0xa,%ebx
 804c27e:	66 90                	xchg   %ax,%ax
	report_label_coverage("ABS", 232);
}
// ABS Label 233
if(temp_2 < 0)  {
asm volatile (""::: "memory");
	report_label_coverage("ABS", 233);
 804c280:	8d 64 24 f0          	lea    -0x10(%esp),%esp
 804c284:	89 3c 24             	mov    %edi,(%esp)
 804c287:	89 54 24 04          	mov    %edx,0x4(%esp)
 804c28b:	89 4c 24 08          	mov    %ecx,0x8(%esp)
 804c28f:	89 44 24 0c          	mov    %eax,0xc(%esp)
 804c293:	b9 bd ee 00 00       	mov    $0xeebd,%ecx
 804c298:	e8 63 32 00 00       	call   804f500 <__afl_maybe_log>
 804c29d:	8b 44 24 0c          	mov    0xc(%esp),%eax
 804c2a1:	8b 4c 24 08          	mov    0x8(%esp),%ecx
 804c2a5:	8b 54 24 04          	mov    0x4(%esp),%edx
 804c2a9:	8b 3c 24             	mov    (%esp),%edi
 804c2ac:	8d 64 24 10          	lea    0x10(%esp),%esp
 804c2b0:	56                   	push   %esi
 804c2b1:	56                   	push   %esi
 804c2b2:	68 e9 00 00 00       	push   $0xe9
 804c2b7:	68 5c 30 06 08       	push   $0x806305c
 804c2bc:	e8 ef e6 ff ff       	call   804a9b0 <report_label_coverage>
}

// ROR Label 234
if((temp_1 != temp_2) != (temp_1 == temp_2))  {
 804c2c1:	83 c4 10             	add    $0x10,%esp
 804c2c4:	83 c3 01             	add    $0x1,%ebx
 804c2c7:	0f 94 c0             	sete   %al
 804c2ca:	0f 95 c2             	setne  %dl
 804c2cd:	38 c2                	cmp    %al,%dl
 804c2cf:	89 c6                	mov    %eax,%esi
 804c2d1:	74 45                	je     804c318 <do_encode+0x1928>
 804c2d3:	90                   	nop
 804c2d4:	8d 64 24 f0          	lea    -0x10(%esp),%esp
 804c2d8:	89 3c 24             	mov    %edi,(%esp)
 804c2db:	89 54 24 04          	mov    %edx,0x4(%esp)
 804c2df:	89 4c 24 08          	mov    %ecx,0x8(%esp)
 804c2e3:	89 44 24 0c          	mov    %eax,0xc(%esp)
 804c2e7:	b9 d9 ec 00 00       	mov    $0xecd9,%ecx
 804c2ec:	e8 0f 32 00 00       	call   804f500 <__afl_maybe_log>
 804c2f1:	8b 44 24 0c          	mov    0xc(%esp),%eax
 804c2f5:	8b 4c 24 08          	mov    0x8(%esp),%ecx
 804c2f9:	8b 54 24 04          	mov    0x4(%esp),%edx
 804c2fd:	8b 3c 24             	mov    (%esp),%edi
 804c300:	8d 64 24 10          	lea    0x10(%esp),%esp
asm volatile (""::: "memory");
	report_label_coverage("ROR", 234);
 804c304:	53                   	push   %ebx
 804c305:	53                   	push   %ebx
 804c306:	68 ea 00 00 00       	push   $0xea
 804c30b:	68 48 30 06 08       	push   $0x8063048
 804c310:	e8 9b e6 ff ff       	call   804a9b0 <report_label_coverage>
 804c315:	83 c4 10             	add    $0x10,%esp
}
if (temp_1 == temp_2)
 804c318:	8d 64 24 f0          	lea    -0x10(%esp),%esp
 804c31c:	89 3c 24             	mov    %edi,(%esp)
 804c31f:	89 54 24 04          	mov    %edx,0x4(%esp)
 804c323:	89 4c 24 08          	mov    %ecx,0x8(%esp)
 804c327:	89 44 24 0c          	mov    %eax,0xc(%esp)
 804c32b:	b9 c6 fc 00 00       	mov    $0xfcc6,%ecx
 804c330:	e8 cb 31 00 00       	call   804f500 <__afl_maybe_log>
 804c335:	8b 44 24 0c          	mov    0xc(%esp),%eax
 804c339:	8b 4c 24 08          	mov    0x8(%esp),%ecx
 804c33d:	8b 54 24 04          	mov    0x4(%esp),%edx
 804c341:	8b 3c 24             	mov    (%esp),%edi
 804c344:	8d 64 24 10          	lea    0x10(%esp),%esp
 804c348:	89 f3                	mov    %esi,%ebx
 804c34a:	84 db                	test   %bl,%bl
 804c34c:	0f 84 f6 ec ff ff    	je     804b048 <do_encode+0x658>
 804c352:	66 90                	xchg   %ax,%ax
 804c354:	8d 64 24 f0          	lea    -0x10(%esp),%esp
 804c358:	89 3c 24             	mov    %edi,(%esp)
 804c35b:	89 54 24 04          	mov    %edx,0x4(%esp)
 804c35f:	89 4c 24 08          	mov    %ecx,0x8(%esp)
 804c363:	89 44 24 0c          	mov    %eax,0xc(%esp)
 804c367:	b9 07 7e 00 00       	mov    $0x7e07,%ecx
 804c36c:	e8 8f 31 00 00       	call   804f500 <__afl_maybe_log>
 804c371:	8b 44 24 0c          	mov    0xc(%esp),%eax
 804c375:	8b 4c 24 08          	mov    0x8(%esp),%ecx
 804c379:	8b 54 24 04          	mov    0x4(%esp),%edx
 804c37d:	8b 3c 24             	mov    (%esp),%edi
 804c380:	8d 64 24 10          	lea    0x10(%esp),%esp
        error(1, (*__errno_location()), gettext("write error"));
 804c384:	51                   	push   %ecx
 804c385:	6a 05                	push   $0x5
 804c387:	68 4c 30 06 08       	push   $0x806304c
 804c38c:	6a 00                	push   $0x0
 804c38e:	e8 4d ce ff ff       	call   80491e0 <dcgettext@plt>
 804c393:	89 c7                	mov    %eax,%edi
 804c395:	e8 36 d0 ff ff       	call   80493d0 <__errno_location@plt>
 804c39a:	83 c4 0c             	add    $0xc,%esp
 804c39d:	57                   	push   %edi
 804c39e:	ff 30                	pushl  (%eax)
 804c3a0:	6a 01                	push   $0x1
 804c3a2:	e8 e9 ce ff ff       	call   8049290 <error@plt>
 804c3a7:	83 c4 10             	add    $0x10,%esp
 804c3aa:	e9 99 ec ff ff       	jmp    804b048 <do_encode+0x658>
 804c3af:	90                   	nop
	report_label_coverage("MCC", 229);
}
// MCC Label 230
if(!(wrap_column) && current_column > 0 ) {
asm volatile (""::: "memory");
	report_label_coverage("MCC", 230);
 804c3b0:	8d 64 24 f0          	lea    -0x10(%esp),%esp
 804c3b4:	89 3c 24             	mov    %edi,(%esp)
 804c3b7:	89 54 24 04          	mov    %edx,0x4(%esp)
 804c3bb:	89 4c 24 08          	mov    %ecx,0x8(%esp)
 804c3bf:	89 44 24 0c          	mov    %eax,0xc(%esp)
 804c3c3:	b9 da 7c 00 00       	mov    $0x7cda,%ecx
 804c3c8:	e8 33 31 00 00       	call   804f500 <__afl_maybe_log>
 804c3cd:	8b 44 24 0c          	mov    0xc(%esp),%eax
 804c3d1:	8b 4c 24 08          	mov    0x8(%esp),%ecx
 804c3d5:	8b 54 24 04          	mov    0x4(%esp),%edx
 804c3d9:	8b 3c 24             	mov    (%esp),%edi
 804c3dc:	8d 64 24 10          	lea    0x10(%esp),%esp
 804c3e0:	50                   	push   %eax
 804c3e1:	50                   	push   %eax
 804c3e2:	68 e6 00 00 00       	push   $0xe6
 804c3e7:	68 64 30 06 08       	push   $0x8063064
 804c3ec:	e8 bf e5 ff ff       	call   804a9b0 <report_label_coverage>
 804c3f1:	83 c4 10             	add    $0x10,%esp
 804c3f4:	e9 07 fc ff ff       	jmp    804c000 <do_encode+0x1610>
 804c3f9:	8d 76 00             	lea    0x0(%esi),%esi
	report_label_coverage("MCC", 228);
}
// MCC Label 229
if(wrap_column && !(current_column > 0) ) {
asm volatile (""::: "memory");
	report_label_coverage("MCC", 229);
 804c3fc:	8d 64 24 f0          	lea    -0x10(%esp),%esp
 804c400:	89 3c 24             	mov    %edi,(%esp)
 804c403:	89 54 24 04          	mov    %edx,0x4(%esp)
 804c407:	89 4c 24 08          	mov    %ecx,0x8(%esp)
 804c40b:	89 44 24 0c          	mov    %eax,0xc(%esp)
 804c40f:	b9 75 cf 00 00       	mov    $0xcf75,%ecx
 804c414:	e8 e7 30 00 00       	call   804f500 <__afl_maybe_log>
 804c419:	8b 44 24 0c          	mov    0xc(%esp),%eax
 804c41d:	8b 4c 24 08          	mov    0x8(%esp),%ecx
 804c421:	8b 54 24 04          	mov    0x4(%esp),%edx
 804c425:	8b 3c 24             	mov    (%esp),%edi
 804c428:	8d 64 24 10          	lea    0x10(%esp),%esp
 804c42c:	50                   	push   %eax
 804c42d:	50                   	push   %eax
 804c42e:	68 e5 00 00 00       	push   $0xe5
 804c433:	68 64 30 06 08       	push   $0x8063064
 804c438:	e8 73 e5 ff ff       	call   804a9b0 <report_label_coverage>
// MCC Label 231
if(!(wrap_column) && !(current_column > 0) ) {
asm volatile (""::: "memory");
	report_label_coverage("MCC", 231);
}
if (wrap_column && current_column > 0) {
 804c43d:	83 c4 10             	add    $0x10,%esp
 804c440:	84 db                	test   %bl,%bl
 804c442:	0f 84 00 ec ff ff    	je     804b048 <do_encode+0x658>
 804c448:	8d 64 24 f0          	lea    -0x10(%esp),%esp
 804c44c:	89 3c 24             	mov    %edi,(%esp)
 804c44f:	89 54 24 04          	mov    %edx,0x4(%esp)
 804c453:	89 4c 24 08          	mov    %ecx,0x8(%esp)
 804c457:	89 44 24 0c          	mov    %eax,0xc(%esp)
 804c45b:	b9 e6 45 00 00       	mov    $0x45e6,%ecx
 804c460:	e8 9b 30 00 00       	call   804f500 <__afl_maybe_log>
 804c465:	8b 44 24 0c          	mov    0xc(%esp),%eax
 804c469:	8b 4c 24 08          	mov    0x8(%esp),%ecx
 804c46d:	8b 54 24 04          	mov    0x4(%esp),%edx
 804c471:	8b 3c 24             	mov    (%esp),%edi
 804c474:	8d 64 24 10          	lea    0x10(%esp),%esp
 804c478:	e9 7f fd ff ff       	jmp    804c1fc <do_encode+0x180c>
 804c47d:	8d 76 00             	lea    0x0(%esi),%esi
 804c480:	8d 64 24 f0          	lea    -0x10(%esp),%esp
 804c484:	89 3c 24             	mov    %edi,(%esp)
 804c487:	89 54 24 04          	mov    %edx,0x4(%esp)
 804c48b:	89 4c 24 08          	mov    %ecx,0x8(%esp)
 804c48f:	89 44 24 0c          	mov    %eax,0xc(%esp)
 804c493:	b9 f7 0d 00 00       	mov    $0xdf7,%ecx
 804c498:	e8 63 30 00 00       	call   804f500 <__afl_maybe_log>
 804c49d:	8b 44 24 0c          	mov    0xc(%esp),%eax
 804c4a1:	8b 4c 24 08          	mov    0x8(%esp),%ecx
 804c4a5:	8b 54 24 04          	mov    0x4(%esp),%edx
 804c4a9:	8b 3c 24             	mov    (%esp),%edi
 804c4ac:	8d 64 24 10          	lea    0x10(%esp),%esp
 804c4b0:	50                   	push   %eax
 804c4b1:	50                   	push   %eax
 804c4b2:	6a 0a                	push   $0xa
 804c4b4:	ff 74 24 2c          	pushl  0x2c(%esp)
 804c4b8:	e8 b3 cf ff ff       	call   8049470 <__overflow@plt>
    int temp_1 = fputc_unlocked('\n', out);
    int temp_2 = -1;
    
// ABS Label 232
if(temp_1 < 0)  {
 804c4bd:	83 c4 10             	add    $0x10,%esp
 804c4c0:	85 c0                	test   %eax,%eax
 804c4c2:	89 c3                	mov    %eax,%ebx
 804c4c4:	0f 89 b4 fd ff ff    	jns    804c27e <do_encode+0x188e>
 804c4ca:	66 90                	xchg   %ax,%ax
 804c4cc:	8d 64 24 f0          	lea    -0x10(%esp),%esp
 804c4d0:	89 3c 24             	mov    %edi,(%esp)
 804c4d3:	89 54 24 04          	mov    %edx,0x4(%esp)
 804c4d7:	89 4c 24 08          	mov    %ecx,0x8(%esp)
 804c4db:	89 44 24 0c          	mov    %eax,0xc(%esp)
 804c4df:	b9 44 5b 00 00       	mov    $0x5b44,%ecx
 804c4e4:	e8 17 30 00 00       	call   804f500 <__afl_maybe_log>
 804c4e9:	8b 44 24 0c          	mov    0xc(%esp),%eax
 804c4ed:	8b 4c 24 08          	mov    0x8(%esp),%ecx
 804c4f1:	8b 54 24 04          	mov    0x4(%esp),%edx
 804c4f5:	8b 3c 24             	mov    (%esp),%edi
 804c4f8:	8d 64 24 10          	lea    0x10(%esp),%esp
asm volatile (""::: "memory");
	report_label_coverage("ABS", 232);
 804c4fc:	57                   	push   %edi
 804c4fd:	57                   	push   %edi
 804c4fe:	68 e8 00 00 00       	push   $0xe8
 804c503:	68 5c 30 06 08       	push   $0x806305c
 804c508:	e8 a3 e4 ff ff       	call   804a9b0 <report_label_coverage>
 804c50d:	83 c4 10             	add    $0x10,%esp
 804c510:	e9 69 fd ff ff       	jmp    804c27e <do_encode+0x188e>
 804c515:	8d 74 26 00          	lea    0x0(%esi,%eiz,1),%esi
 804c519:	8d bc 27 00 00 00 00 	lea    0x0(%edi,%eiz,1),%edi

0804c520 <lava_set>:
#include "coverage.h"
#include <stdio.h>
extern unsigned int lava_get(unsigned int) ;
static unsigned int lava_val[1000000];
void lava_set(unsigned int bug_num, unsigned int val);
void lava_set(unsigned int bug_num, unsigned int val) { lava_val[bug_num] = val; }
 804c520:	8d 64 24 f0          	lea    -0x10(%esp),%esp
 804c524:	89 3c 24             	mov    %edi,(%esp)
 804c527:	89 54 24 04          	mov    %edx,0x4(%esp)
 804c52b:	89 4c 24 08          	mov    %ecx,0x8(%esp)
 804c52f:	89 44 24 0c          	mov    %eax,0xc(%esp)
 804c533:	b9 f3 3d 00 00       	mov    $0x3df3,%ecx
 804c538:	e8 c3 2f 00 00       	call   804f500 <__afl_maybe_log>
 804c53d:	8b 44 24 0c          	mov    0xc(%esp),%eax
 804c541:	8b 4c 24 08          	mov    0x8(%esp),%ecx
 804c545:	8b 54 24 04          	mov    0x4(%esp),%edx
 804c549:	8b 3c 24             	mov    (%esp),%edi
 804c54c:	8d 64 24 10          	lea    0x10(%esp),%esp
 804c550:	8b 54 24 08          	mov    0x8(%esp),%edx
 804c554:	8b 44 24 04          	mov    0x4(%esp),%eax
 804c558:	89 14 85 00 73 06 08 	mov    %edx,0x8067300(,%eax,4)
 804c55f:	c3                   	ret    

0804c560 <lava_get>:
unsigned int lava_get(unsigned int bug_num);


#define SWAP_UINT32(x) (((x) >> 24) | (((x) & 0x00FF0000) >> 8) | (((x) & 0x0000FF00) << 8) | ((x) << 24))
#include <stdio.h>
unsigned int lava_get(unsigned int bug_num) {
 804c560:	8d 64 24 f0          	lea    -0x10(%esp),%esp
 804c564:	89 3c 24             	mov    %edi,(%esp)
 804c567:	89 54 24 04          	mov    %edx,0x4(%esp)
 804c56b:	89 4c 24 08          	mov    %ecx,0x8(%esp)
 804c56f:	89 44 24 0c          	mov    %eax,0xc(%esp)
 804c573:	b9 31 83 00 00       	mov    $0x8331,%ecx
 804c578:	e8 83 2f 00 00       	call   804f500 <__afl_maybe_log>
 804c57d:	8b 44 24 0c          	mov    0xc(%esp),%eax
 804c581:	8b 4c 24 08          	mov    0x8(%esp),%ecx
 804c585:	8b 54 24 04          	mov    0x4(%esp),%edx
 804c589:	8b 3c 24             	mov    (%esp),%edi
 804c58c:	8d 64 24 10          	lea    0x10(%esp),%esp
 804c590:	57                   	push   %edi
 804c591:	56                   	push   %esi
asm volatile (""::: "memory");
	report_label_coverage("ABS", 8);
}

// AOR Label 9
if(1818326625 / bug_num != 1818326625 - bug_num)  {
 804c592:	b8 61 76 61 6c       	mov    $0x6c617661,%eax
unsigned int lava_get(unsigned int bug_num);


#define SWAP_UINT32(x) (((x) >> 24) | (((x) & 0x00FF0000) >> 8) | (((x) & 0x0000FF00) << 8) | ((x) << 24))
#include <stdio.h>
unsigned int lava_get(unsigned int bug_num) {
 804c597:	53                   	push   %ebx
 804c598:	8b 74 24 10          	mov    0x10(%esp),%esi
asm volatile (""::: "memory");
	report_label_coverage("ABS", 8);
}

// AOR Label 9
if(1818326625 / bug_num != 1818326625 - bug_num)  {
 804c59c:	31 d2                	xor    %edx,%edx
 804c59e:	89 c3                	mov    %eax,%ebx
 804c5a0:	f7 f6                	div    %esi
 804c5a2:	29 f3                	sub    %esi,%ebx
 804c5a4:	39 d8                	cmp    %ebx,%eax
 804c5a6:	74 3e                	je     804c5e6 <lava_get+0x86>
 804c5a8:	8d 64 24 f0          	lea    -0x10(%esp),%esp
 804c5ac:	89 3c 24             	mov    %edi,(%esp)
 804c5af:	89 54 24 04          	mov    %edx,0x4(%esp)
 804c5b3:	89 4c 24 08          	mov    %ecx,0x8(%esp)
 804c5b7:	89 44 24 0c          	mov    %eax,0xc(%esp)
 804c5bb:	b9 ea 17 00 00       	mov    $0x17ea,%ecx
 804c5c0:	e8 3b 2f 00 00       	call   804f500 <__afl_maybe_log>
 804c5c5:	8b 44 24 0c          	mov    0xc(%esp),%eax
 804c5c9:	8b 4c 24 08          	mov    0x8(%esp),%ecx
 804c5cd:	8b 54 24 04          	mov    0x4(%esp),%edx
 804c5d1:	8b 3c 24             	mov    (%esp),%edi
 804c5d4:	8d 64 24 10          	lea    0x10(%esp),%esp
asm volatile (""::: "memory");
	report_label_coverage("AOR", 9);
 804c5d8:	6a 09                	push   $0x9
 804c5da:	68 58 30 06 08       	push   $0x8063058
 804c5df:	e8 cc e3 ff ff       	call   804a9b0 <report_label_coverage>
 804c5e4:	59                   	pop    %ecx
 804c5e5:	5f                   	pop    %edi
 804c5e6:	66 90                	xchg   %ax,%ax
}
// AOR Label 10
if(1818326625 + bug_num != 1818326625 - bug_num)  {
 804c5e8:	8d 64 24 f0          	lea    -0x10(%esp),%esp
 804c5ec:	89 3c 24             	mov    %edi,(%esp)
 804c5ef:	89 54 24 04          	mov    %edx,0x4(%esp)
 804c5f3:	89 4c 24 08          	mov    %ecx,0x8(%esp)
 804c5f7:	89 44 24 0c          	mov    %eax,0xc(%esp)
 804c5fb:	b9 02 11 00 00       	mov    $0x1102,%ecx
 804c600:	e8 fb 2e 00 00       	call   804f500 <__afl_maybe_log>
 804c605:	8b 44 24 0c          	mov    0xc(%esp),%eax
 804c609:	8b 4c 24 08          	mov    0x8(%esp),%ecx
 804c60d:	8b 54 24 04          	mov    0x4(%esp),%edx
 804c611:	8b 3c 24             	mov    (%esp),%edi
 804c614:	8d 64 24 10          	lea    0x10(%esp),%esp
 804c618:	8d 8e 61 76 61 6c    	lea    0x6c617661(%esi),%ecx
 804c61e:	39 cb                	cmp    %ecx,%ebx
 804c620:	74 40                	je     804c662 <lava_get+0x102>
 804c622:	66 90                	xchg   %ax,%ax
 804c624:	8d 64 24 f0          	lea    -0x10(%esp),%esp
 804c628:	89 3c 24             	mov    %edi,(%esp)
 804c62b:	89 54 24 04          	mov    %edx,0x4(%esp)
 804c62f:	89 4c 24 08          	mov    %ecx,0x8(%esp)
 804c633:	89 44 24 0c          	mov    %eax,0xc(%esp)
 804c637:	b9 17 67 00 00       	mov    $0x6717,%ecx
 804c63c:	e8 bf 2e 00 00       	call   804f500 <__afl_maybe_log>
 804c641:	8b 44 24 0c          	mov    0xc(%esp),%eax
 804c645:	8b 4c 24 08          	mov    0x8(%esp),%ecx
 804c649:	8b 54 24 04          	mov    0x4(%esp),%edx
 804c64d:	8b 3c 24             	mov    (%esp),%edi
 804c650:	8d 64 24 10          	lea    0x10(%esp),%esp
asm volatile (""::: "memory");
	report_label_coverage("AOR", 10);
 804c654:	6a 0a                	push   $0xa
 804c656:	68 58 30 06 08       	push   $0x8063058
 804c65b:	e8 50 e3 ff ff       	call   804a9b0 <report_label_coverage>
 804c660:	58                   	pop    %eax
 804c661:	5a                   	pop    %edx
 804c662:	66 90                	xchg   %ax,%ax
}
// AOR Label 11
if(1818326625 * bug_num != 1818326625 - bug_num)  {
 804c664:	8d 64 24 f0          	lea    -0x10(%esp),%esp
 804c668:	89 3c 24             	mov    %edi,(%esp)
 804c66b:	89 54 24 04          	mov    %edx,0x4(%esp)
 804c66f:	89 4c 24 08          	mov    %ecx,0x8(%esp)
 804c673:	89 44 24 0c          	mov    %eax,0xc(%esp)
 804c677:	b9 71 82 00 00       	mov    $0x8271,%ecx
 804c67c:	e8 7f 2e 00 00       	call   804f500 <__afl_maybe_log>
 804c681:	8b 44 24 0c          	mov    0xc(%esp),%eax
 804c685:	8b 4c 24 08          	mov    0x8(%esp),%ecx
 804c689:	8b 54 24 04          	mov    0x4(%esp),%edx
 804c68d:	8b 3c 24             	mov    (%esp),%edi
 804c690:	8d 64 24 10          	lea    0x10(%esp),%esp
 804c694:	69 fe 61 76 61 6c    	imul   $0x6c617661,%esi,%edi
 804c69a:	39 fb                	cmp    %edi,%ebx
 804c69c:	74 40                	je     804c6de <lava_get+0x17e>
 804c69e:	66 90                	xchg   %ax,%ax
 804c6a0:	8d 64 24 f0          	lea    -0x10(%esp),%esp
 804c6a4:	89 3c 24             	mov    %edi,(%esp)
 804c6a7:	89 54 24 04          	mov    %edx,0x4(%esp)
 804c6ab:	89 4c 24 08          	mov    %ecx,0x8(%esp)
 804c6af:	89 44 24 0c          	mov    %eax,0xc(%esp)
 804c6b3:	b9 3d 7c 00 00       	mov    $0x7c3d,%ecx
 804c6b8:	e8 43 2e 00 00       	call   804f500 <__afl_maybe_log>
 804c6bd:	8b 44 24 0c          	mov    0xc(%esp),%eax
 804c6c1:	8b 4c 24 08          	mov    0x8(%esp),%ecx
 804c6c5:	8b 54 24 04          	mov    0x4(%esp),%edx
 804c6c9:	8b 3c 24             	mov    (%esp),%edi
 804c6cc:	8d 64 24 10          	lea    0x10(%esp),%esp
asm volatile (""::: "memory");
	report_label_coverage("AOR", 11);
 804c6d0:	6a 0b                	push   $0xb
 804c6d2:	68 58 30 06 08       	push   $0x8063058
 804c6d7:	e8 d4 e2 ff ff       	call   804a9b0 <report_label_coverage>
 804c6dc:	5f                   	pop    %edi
 804c6dd:	58                   	pop    %eax
 804c6de:	66 90                	xchg   %ax,%ax
}

// COR Label 12
if((1818326625 - bug_num == lava_val[bug_num] && (((1818326625 - bug_num) >> 24) | (((1818326625 - bug_num) & 16711680) >> 8) | (((1818326625 - bug_num) & 65280) << 8) | ((1818326625 - bug_num) << 24)) == lava_val[bug_num]) != (1818326625 - bug_num == lava_val[bug_num] || (((1818326625 - bug_num) >> 24) | (((1818326625 - bug_num) & 16711680) >> 8) | (((1818326625 - bug_num) & 65280) << 8) | ((1818326625 - bug_num) << 24)) == lava_val[bug_num]))  {
 804c6e0:	8d 64 24 f0          	lea    -0x10(%esp),%esp
 804c6e4:	89 3c 24             	mov    %edi,(%esp)
 804c6e7:	89 54 24 04          	mov    %edx,0x4(%esp)
 804c6eb:	89 4c 24 08          	mov    %ecx,0x8(%esp)
 804c6ef:	89 44 24 0c          	mov    %eax,0xc(%esp)
 804c6f3:	b9 cd ac 00 00       	mov    $0xaccd,%ecx
 804c6f8:	e8 03 2e 00 00       	call   804f500 <__afl_maybe_log>
 804c6fd:	8b 44 24 0c          	mov    0xc(%esp),%eax
 804c701:	8b 4c 24 08          	mov    0x8(%esp),%ecx
 804c705:	8b 54 24 04          	mov    0x4(%esp),%edx
 804c709:	8b 3c 24             	mov    (%esp),%edi
 804c70c:	8d 64 24 10          	lea    0x10(%esp),%esp
 804c710:	8b 04 b5 00 73 06 08 	mov    0x8067300(,%esi,4),%eax
 804c717:	89 df                	mov    %ebx,%edi
 804c719:	0f cf                	bswap  %edi
 804c71b:	39 c3                	cmp    %eax,%ebx
 804c71d:	0f 84 7d 04 00 00    	je     804cba0 <lava_get+0x640>
 804c723:	90                   	nop
 804c724:	8d 64 24 f0          	lea    -0x10(%esp),%esp
 804c728:	89 3c 24             	mov    %edi,(%esp)
 804c72b:	89 54 24 04          	mov    %edx,0x4(%esp)
 804c72f:	89 4c 24 08          	mov    %ecx,0x8(%esp)
 804c733:	89 44 24 0c          	mov    %eax,0xc(%esp)
 804c737:	b9 69 9f 00 00       	mov    $0x9f69,%ecx
 804c73c:	e8 bf 2d 00 00       	call   804f500 <__afl_maybe_log>
 804c741:	8b 44 24 0c          	mov    0xc(%esp),%eax
 804c745:	8b 4c 24 08          	mov    0x8(%esp),%ecx
 804c749:	8b 54 24 04          	mov    0x4(%esp),%edx
 804c74d:	8b 3c 24             	mov    (%esp),%edi
 804c750:	8d 64 24 10          	lea    0x10(%esp),%esp
 804c754:	39 f8                	cmp    %edi,%eax
 804c756:	0f 84 7c 04 00 00    	je     804cbd8 <lava_get+0x678>
 804c75c:	8d 64 24 f0          	lea    -0x10(%esp),%esp
 804c760:	89 3c 24             	mov    %edi,(%esp)
 804c763:	89 54 24 04          	mov    %edx,0x4(%esp)
 804c767:	89 4c 24 08          	mov    %ecx,0x8(%esp)
 804c76b:	89 44 24 0c          	mov    %eax,0xc(%esp)
 804c76f:	b9 c6 8d 00 00       	mov    $0x8dc6,%ecx
 804c774:	e8 87 2d 00 00       	call   804f500 <__afl_maybe_log>
 804c779:	8b 44 24 0c          	mov    0xc(%esp),%eax
 804c77d:	8b 4c 24 08          	mov    0x8(%esp),%ecx
 804c781:	8b 54 24 04          	mov    0x4(%esp),%edx
 804c785:	8b 3c 24             	mov    (%esp),%edi
 804c788:	8d 64 24 10          	lea    0x10(%esp),%esp
}

// ROR Label 13
if((1818326625 - bug_num != lava_val[bug_num]) != (1818326625 - bug_num == lava_val[bug_num]))  {
asm volatile (""::: "memory");
	report_label_coverage("ROR", 13);
 804c78c:	8d 64 24 f0          	lea    -0x10(%esp),%esp
 804c790:	89 3c 24             	mov    %edi,(%esp)
 804c793:	89 54 24 04          	mov    %edx,0x4(%esp)
 804c797:	89 4c 24 08          	mov    %ecx,0x8(%esp)
 804c79b:	89 44 24 0c          	mov    %eax,0xc(%esp)
 804c79f:	b9 f1 61 00 00       	mov    $0x61f1,%ecx
 804c7a4:	e8 57 2d 00 00       	call   804f500 <__afl_maybe_log>
 804c7a9:	8b 44 24 0c          	mov    0xc(%esp),%eax
 804c7ad:	8b 4c 24 08          	mov    0x8(%esp),%ecx
 804c7b1:	8b 54 24 04          	mov    0x4(%esp),%edx
 804c7b5:	8b 3c 24             	mov    (%esp),%edi
 804c7b8:	8d 64 24 10          	lea    0x10(%esp),%esp
 804c7bc:	6a 0d                	push   $0xd
 804c7be:	68 48 30 06 08       	push   $0x8063048
 804c7c3:	e8 e8 e1 ff ff       	call   804a9b0 <report_label_coverage>
 804c7c8:	5a                   	pop    %edx
 804c7c9:	59                   	pop    %ecx
 804c7ca:	8b 04 b5 00 73 06 08 	mov    0x8067300(,%esi,4),%eax
 804c7d1:	8d 76 00             	lea    0x0(%esi),%esi
}
// ROR Label 14
if(((((1818326625 - bug_num) >> 24) | (((1818326625 - bug_num) & 16711680) >> 8) | (((1818326625 - bug_num) & 65280) << 8) | ((1818326625 - bug_num) << 24)) != lava_val[bug_num]) != ((((1818326625 - bug_num) >> 24) | (((1818326625 - bug_num) & 16711680) >> 8) | (((1818326625 - bug_num) & 65280) << 8) | ((1818326625 - bug_num) << 24)) == lava_val[bug_num]))  {
 804c7d4:	8d 64 24 f0          	lea    -0x10(%esp),%esp
 804c7d8:	89 3c 24             	mov    %edi,(%esp)
 804c7db:	89 54 24 04          	mov    %edx,0x4(%esp)
 804c7df:	89 4c 24 08          	mov    %ecx,0x8(%esp)
 804c7e3:	89 44 24 0c          	mov    %eax,0xc(%esp)
 804c7e7:	b9 af 31 00 00       	mov    $0x31af,%ecx
 804c7ec:	e8 0f 2d 00 00       	call   804f500 <__afl_maybe_log>
 804c7f1:	8b 44 24 0c          	mov    0xc(%esp),%eax
 804c7f5:	8b 4c 24 08          	mov    0x8(%esp),%ecx
 804c7f9:	8b 54 24 04          	mov    0x4(%esp),%edx
 804c7fd:	8b 3c 24             	mov    (%esp),%edi
 804c800:	8d 64 24 10          	lea    0x10(%esp),%esp
 804c804:	39 f8                	cmp    %edi,%eax
 804c806:	0f 94 c2             	sete   %dl
 804c809:	0f 95 c1             	setne  %cl
 804c80c:	38 d1                	cmp    %dl,%cl
 804c80e:	74 4a                	je     804c85a <lava_get+0x2fa>
 804c810:	8d 64 24 f0          	lea    -0x10(%esp),%esp
 804c814:	89 3c 24             	mov    %edi,(%esp)
 804c817:	89 54 24 04          	mov    %edx,0x4(%esp)
 804c81b:	89 4c 24 08          	mov    %ecx,0x8(%esp)
 804c81f:	89 44 24 0c          	mov    %eax,0xc(%esp)
 804c823:	b9 84 b9 00 00       	mov    $0xb984,%ecx
 804c828:	e8 d3 2c 00 00       	call   804f500 <__afl_maybe_log>
 804c82d:	8b 44 24 0c          	mov    0xc(%esp),%eax
 804c831:	8b 4c 24 08          	mov    0x8(%esp),%ecx
 804c835:	8b 54 24 04          	mov    0x4(%esp),%edx
 804c839:	8b 3c 24             	mov    (%esp),%edi
 804c83c:	8d 64 24 10          	lea    0x10(%esp),%esp
asm volatile (""::: "memory");
	report_label_coverage("ROR", 14);
 804c840:	6a 0e                	push   $0xe
 804c842:	68 48 30 06 08       	push   $0x8063048
 804c847:	e8 64 e1 ff ff       	call   804a9b0 <report_label_coverage>
 804c84c:	8b 04 b5 00 73 06 08 	mov    0x8067300(,%esi,4),%eax
 804c853:	5a                   	pop    %edx
 804c854:	59                   	pop    %ecx
 804c855:	39 f8                	cmp    %edi,%eax
 804c857:	0f 94 c2             	sete   %dl
 804c85a:	66 90                	xchg   %ax,%ax
}

// MCC Label 15
if(1818326625 - bug_num == lava_val[bug_num] && (((1818326625 - bug_num) >> 24) | (((1818326625 - bug_num) & 16711680) >> 8) | (((1818326625 - bug_num) & 65280) << 8) | ((1818326625 - bug_num) << 24)) == lava_val[bug_num] ) {
 804c85c:	8d 64 24 f0          	lea    -0x10(%esp),%esp
 804c860:	89 3c 24             	mov    %edi,(%esp)
 804c863:	89 54 24 04          	mov    %edx,0x4(%esp)
 804c867:	89 4c 24 08          	mov    %ecx,0x8(%esp)
 804c86b:	89 44 24 0c          	mov    %eax,0xc(%esp)
 804c86f:	b9 6a 5f 00 00       	mov    $0x5f6a,%ecx
 804c874:	e8 87 2c 00 00       	call   804f500 <__afl_maybe_log>
 804c879:	8b 44 24 0c          	mov    0xc(%esp),%eax
 804c87d:	8b 4c 24 08          	mov    0x8(%esp),%ecx
 804c881:	8b 54 24 04          	mov    0x4(%esp),%edx
 804c885:	8b 3c 24             	mov    (%esp),%edi
 804c888:	8d 64 24 10          	lea    0x10(%esp),%esp
 804c88c:	39 c3                	cmp    %eax,%ebx
 804c88e:	0f 94 c1             	sete   %cl
 804c891:	75 69                	jne    804c8fc <lava_get+0x39c>
 804c893:	90                   	nop
 804c894:	8d 64 24 f0          	lea    -0x10(%esp),%esp
 804c898:	89 3c 24             	mov    %edi,(%esp)
 804c89b:	89 54 24 04          	mov    %edx,0x4(%esp)
 804c89f:	89 4c 24 08          	mov    %ecx,0x8(%esp)
 804c8a3:	89 44 24 0c          	mov    %eax,0xc(%esp)
 804c8a7:	b9 81 67 00 00       	mov    $0x6781,%ecx
 804c8ac:	e8 4f 2c 00 00       	call   804f500 <__afl_maybe_log>
 804c8b1:	8b 44 24 0c          	mov    0xc(%esp),%eax
 804c8b5:	8b 4c 24 08          	mov    0x8(%esp),%ecx
 804c8b9:	8b 54 24 04          	mov    0x4(%esp),%edx
 804c8bd:	8b 3c 24             	mov    (%esp),%edi
 804c8c0:	8d 64 24 10          	lea    0x10(%esp),%esp
 804c8c4:	84 d2                	test   %dl,%dl
 804c8c6:	0f 85 e4 03 00 00    	jne    804ccb0 <lava_get+0x750>
 804c8cc:	8d 64 24 f0          	lea    -0x10(%esp),%esp
 804c8d0:	89 3c 24             	mov    %edi,(%esp)
 804c8d3:	89 54 24 04          	mov    %edx,0x4(%esp)
 804c8d7:	89 4c 24 08          	mov    %ecx,0x8(%esp)
 804c8db:	89 44 24 0c          	mov    %eax,0xc(%esp)
 804c8df:	b9 35 04 00 00       	mov    $0x435,%ecx
 804c8e4:	e8 17 2c 00 00       	call   804f500 <__afl_maybe_log>
 804c8e9:	8b 44 24 0c          	mov    0xc(%esp),%eax
 804c8ed:	8b 4c 24 08          	mov    0x8(%esp),%ecx
 804c8f1:	8b 54 24 04          	mov    0x4(%esp),%edx
 804c8f5:	8b 3c 24             	mov    (%esp),%edi
 804c8f8:	8d 64 24 10          	lea    0x10(%esp),%esp
asm volatile (""::: "memory");
	report_label_coverage("MCC", 15);
}
// MCC Label 16
if(1818326625 - bug_num == lava_val[bug_num] && !((((1818326625 - bug_num) >> 24) | (((1818326625 - bug_num) & 16711680) >> 8) | (((1818326625 - bug_num) & 65280) << 8) | ((1818326625 - bug_num) << 24)) == lava_val[bug_num]) ) {
 804c8fc:	8d 64 24 f0          	lea    -0x10(%esp),%esp
 804c900:	89 3c 24             	mov    %edi,(%esp)
 804c903:	89 54 24 04          	mov    %edx,0x4(%esp)
 804c907:	89 4c 24 08          	mov    %ecx,0x8(%esp)
 804c90b:	89 44 24 0c          	mov    %eax,0xc(%esp)
 804c90f:	b9 55 ab 00 00       	mov    $0xab55,%ecx
 804c914:	e8 e7 2b 00 00       	call   804f500 <__afl_maybe_log>
 804c919:	8b 44 24 0c          	mov    0xc(%esp),%eax
 804c91d:	8b 4c 24 08          	mov    0x8(%esp),%ecx
 804c921:	8b 54 24 04          	mov    0x4(%esp),%edx
 804c925:	8b 3c 24             	mov    (%esp),%edi
 804c928:	8d 64 24 10          	lea    0x10(%esp),%esp
 804c92c:	39 f8                	cmp    %edi,%eax
 804c92e:	74 79                	je     804c9a9 <lava_get+0x449>
 804c930:	8d 64 24 f0          	lea    -0x10(%esp),%esp
 804c934:	89 3c 24             	mov    %edi,(%esp)
 804c937:	89 54 24 04          	mov    %edx,0x4(%esp)
 804c93b:	89 4c 24 08          	mov    %ecx,0x8(%esp)
 804c93f:	89 44 24 0c          	mov    %eax,0xc(%esp)
 804c943:	b9 01 c5 00 00       	mov    $0xc501,%ecx
 804c948:	e8 b3 2b 00 00       	call   804f500 <__afl_maybe_log>
 804c94d:	8b 44 24 0c          	mov    0xc(%esp),%eax
 804c951:	8b 4c 24 08          	mov    0x8(%esp),%ecx
 804c955:	8b 54 24 04          	mov    0x4(%esp),%edx
 804c959:	8b 3c 24             	mov    (%esp),%edi
 804c95c:	8d 64 24 10          	lea    0x10(%esp),%esp
 804c960:	84 c9                	test   %cl,%cl
 804c962:	74 45                	je     804c9a9 <lava_get+0x449>
 804c964:	8d 64 24 f0          	lea    -0x10(%esp),%esp
 804c968:	89 3c 24             	mov    %edi,(%esp)
 804c96b:	89 54 24 04          	mov    %edx,0x4(%esp)
 804c96f:	89 4c 24 08          	mov    %ecx,0x8(%esp)
 804c973:	89 44 24 0c          	mov    %eax,0xc(%esp)
 804c977:	b9 a0 d6 00 00       	mov    $0xd6a0,%ecx
 804c97c:	e8 7f 2b 00 00       	call   804f500 <__afl_maybe_log>
 804c981:	8b 44 24 0c          	mov    0xc(%esp),%eax
 804c985:	8b 4c 24 08          	mov    0x8(%esp),%ecx
 804c989:	8b 54 24 04          	mov    0x4(%esp),%edx
 804c98d:	8b 3c 24             	mov    (%esp),%edi
 804c990:	8d 64 24 10          	lea    0x10(%esp),%esp
asm volatile (""::: "memory");
	report_label_coverage("MCC", 16);
 804c994:	6a 10                	push   $0x10
 804c996:	68 64 30 06 08       	push   $0x8063064
 804c99b:	e8 10 e0 ff ff       	call   804a9b0 <report_label_coverage>
 804c9a0:	5a                   	pop    %edx
 804c9a1:	59                   	pop    %ecx
 804c9a2:	8b 04 b5 00 73 06 08 	mov    0x8067300(,%esi,4),%eax
 804c9a9:	8d 76 00             	lea    0x0(%esi),%esi
}
// MCC Label 17
if(!(1818326625 - bug_num == lava_val[bug_num]) && (((1818326625 - bug_num) >> 24) | (((1818326625 - bug_num) & 16711680) >> 8) | (((1818326625 - bug_num) & 65280) << 8) | ((1818326625 - bug_num) << 24)) == lava_val[bug_num] ) {
 804c9ac:	8d 64 24 f0          	lea    -0x10(%esp),%esp
 804c9b0:	89 3c 24             	mov    %edi,(%esp)
 804c9b3:	89 54 24 04          	mov    %edx,0x4(%esp)
 804c9b7:	89 4c 24 08          	mov    %ecx,0x8(%esp)
 804c9bb:	89 44 24 0c          	mov    %eax,0xc(%esp)
 804c9bf:	b9 18 01 00 00       	mov    $0x118,%ecx
 804c9c4:	e8 37 2b 00 00       	call   804f500 <__afl_maybe_log>
 804c9c9:	8b 44 24 0c          	mov    0xc(%esp),%eax
 804c9cd:	8b 4c 24 08          	mov    0x8(%esp),%ecx
 804c9d1:	8b 54 24 04          	mov    0x4(%esp),%edx
 804c9d5:	8b 3c 24             	mov    (%esp),%edi
 804c9d8:	8d 64 24 10          	lea    0x10(%esp),%esp
 804c9dc:	39 c3                	cmp    %eax,%ebx
 804c9de:	0f 95 c2             	setne  %dl
 804c9e1:	74 69                	je     804ca4c <lava_get+0x4ec>
 804c9e3:	90                   	nop
 804c9e4:	8d 64 24 f0          	lea    -0x10(%esp),%esp
 804c9e8:	89 3c 24             	mov    %edi,(%esp)
 804c9eb:	89 54 24 04          	mov    %edx,0x4(%esp)
 804c9ef:	89 4c 24 08          	mov    %ecx,0x8(%esp)
 804c9f3:	89 44 24 0c          	mov    %eax,0xc(%esp)
 804c9f7:	b9 ed ec 00 00       	mov    $0xeced,%ecx
 804c9fc:	e8 ff 2a 00 00       	call   804f500 <__afl_maybe_log>
 804ca01:	8b 44 24 0c          	mov    0xc(%esp),%eax
 804ca05:	8b 4c 24 08          	mov    0x8(%esp),%ecx
 804ca09:	8b 54 24 04          	mov    0x4(%esp),%edx
 804ca0d:	8b 3c 24             	mov    (%esp),%edi
 804ca10:	8d 64 24 10          	lea    0x10(%esp),%esp
 804ca14:	39 f8                	cmp    %edi,%eax
 804ca16:	0f 84 74 02 00 00    	je     804cc90 <lava_get+0x730>
 804ca1c:	8d 64 24 f0          	lea    -0x10(%esp),%esp
 804ca20:	89 3c 24             	mov    %edi,(%esp)
 804ca23:	89 54 24 04          	mov    %edx,0x4(%esp)
 804ca27:	89 4c 24 08          	mov    %ecx,0x8(%esp)
 804ca2b:	89 44 24 0c          	mov    %eax,0xc(%esp)
 804ca2f:	b9 64 30 00 00       	mov    $0x3064,%ecx
 804ca34:	e8 c7 2a 00 00       	call   804f500 <__afl_maybe_log>
 804ca39:	8b 44 24 0c          	mov    0xc(%esp),%eax
 804ca3d:	8b 4c 24 08          	mov    0x8(%esp),%ecx
 804ca41:	8b 54 24 04          	mov    0x4(%esp),%edx
 804ca45:	8b 3c 24             	mov    (%esp),%edi
 804ca48:	8d 64 24 10          	lea    0x10(%esp),%esp
asm volatile (""::: "memory");
	report_label_coverage("MCC", 17);
}
// MCC Label 18
if(!(1818326625 - bug_num == lava_val[bug_num]) && !((((1818326625 - bug_num) >> 24) | (((1818326625 - bug_num) & 16711680) >> 8) | (((1818326625 - bug_num) & 65280) << 8) | ((1818326625 - bug_num) << 24)) == lava_val[bug_num]) ) {
 804ca4c:	8d 64 24 f0          	lea    -0x10(%esp),%esp
 804ca50:	89 3c 24             	mov    %edi,(%esp)
 804ca53:	89 54 24 04          	mov    %edx,0x4(%esp)
 804ca57:	89 4c 24 08          	mov    %ecx,0x8(%esp)
 804ca5b:	89 44 24 0c          	mov    %eax,0xc(%esp)
 804ca5f:	b9 8a 27 00 00       	mov    $0x278a,%ecx
 804ca64:	e8 97 2a 00 00       	call   804f500 <__afl_maybe_log>
 804ca69:	8b 44 24 0c          	mov    0xc(%esp),%eax
 804ca6d:	8b 4c 24 08          	mov    0x8(%esp),%ecx
 804ca71:	8b 54 24 04          	mov    0x4(%esp),%edx
 804ca75:	8b 3c 24             	mov    (%esp),%edi
 804ca78:	8d 64 24 10          	lea    0x10(%esp),%esp
 804ca7c:	39 f8                	cmp    %edi,%eax
 804ca7e:	74 79                	je     804caf9 <lava_get+0x599>
 804ca80:	8d 64 24 f0          	lea    -0x10(%esp),%esp
 804ca84:	89 3c 24             	mov    %edi,(%esp)
 804ca87:	89 54 24 04          	mov    %edx,0x4(%esp)
 804ca8b:	89 4c 24 08          	mov    %ecx,0x8(%esp)
 804ca8f:	89 44 24 0c          	mov    %eax,0xc(%esp)
 804ca93:	b9 25 d4 00 00       	mov    $0xd425,%ecx
 804ca98:	e8 63 2a 00 00       	call   804f500 <__afl_maybe_log>
 804ca9d:	8b 44 24 0c          	mov    0xc(%esp),%eax
 804caa1:	8b 4c 24 08          	mov    0x8(%esp),%ecx
 804caa5:	8b 54 24 04          	mov    0x4(%esp),%edx
 804caa9:	8b 3c 24             	mov    (%esp),%edi
 804caac:	8d 64 24 10          	lea    0x10(%esp),%esp
 804cab0:	84 d2                	test   %dl,%dl
 804cab2:	74 45                	je     804caf9 <lava_get+0x599>
 804cab4:	8d 64 24 f0          	lea    -0x10(%esp),%esp
 804cab8:	89 3c 24             	mov    %edi,(%esp)
 804cabb:	89 54 24 04          	mov    %edx,0x4(%esp)
 804cabf:	89 4c 24 08          	mov    %ecx,0x8(%esp)
 804cac3:	89 44 24 0c          	mov    %eax,0xc(%esp)
 804cac7:	b9 d7 76 00 00       	mov    $0x76d7,%ecx
 804cacc:	e8 2f 2a 00 00       	call   804f500 <__afl_maybe_log>
 804cad1:	8b 44 24 0c          	mov    0xc(%esp),%eax
 804cad5:	8b 4c 24 08          	mov    0x8(%esp),%ecx
 804cad9:	8b 54 24 04          	mov    0x4(%esp),%edx
 804cadd:	8b 3c 24             	mov    (%esp),%edi
 804cae0:	8d 64 24 10          	lea    0x10(%esp),%esp
asm volatile (""::: "memory");
	report_label_coverage("MCC", 18);
 804cae4:	6a 12                	push   $0x12
 804cae6:	68 64 30 06 08       	push   $0x8063064
 804caeb:	e8 c0 de ff ff       	call   804a9b0 <report_label_coverage>
 804caf0:	5a                   	pop    %edx
 804caf1:	59                   	pop    %ecx
 804caf2:	8b 04 b5 00 73 06 08 	mov    0x8067300(,%esi,4),%eax
 804caf9:	8d 76 00             	lea    0x0(%esi),%esi
}
if (0x6c617661 - bug_num == lava_val[bug_num] ||
 804cafc:	8d 64 24 f0          	lea    -0x10(%esp),%esp
 804cb00:	89 3c 24             	mov    %edi,(%esp)
 804cb03:	89 54 24 04          	mov    %edx,0x4(%esp)
 804cb07:	89 4c 24 08          	mov    %ecx,0x8(%esp)
 804cb0b:	89 44 24 0c          	mov    %eax,0xc(%esp)
 804cb0f:	b9 23 63 00 00       	mov    $0x6323,%ecx
 804cb14:	e8 e7 29 00 00       	call   804f500 <__afl_maybe_log>
 804cb19:	8b 44 24 0c          	mov    0xc(%esp),%eax
 804cb1d:	8b 4c 24 08          	mov    0x8(%esp),%ecx
 804cb21:	8b 54 24 04          	mov    0x4(%esp),%edx
 804cb25:	8b 3c 24             	mov    (%esp),%edi
 804cb28:	8d 64 24 10          	lea    0x10(%esp),%esp
 804cb2c:	39 c3                	cmp    %eax,%ebx
 804cb2e:	0f 84 34 01 00 00    	je     804cc68 <lava_get+0x708>
 804cb34:	8d 64 24 f0          	lea    -0x10(%esp),%esp
 804cb38:	89 3c 24             	mov    %edi,(%esp)
 804cb3b:	89 54 24 04          	mov    %edx,0x4(%esp)
 804cb3f:	89 4c 24 08          	mov    %ecx,0x8(%esp)
 804cb43:	89 44 24 0c          	mov    %eax,0xc(%esp)
 804cb47:	b9 b9 6d 00 00       	mov    $0x6db9,%ecx
 804cb4c:	e8 af 29 00 00       	call   804f500 <__afl_maybe_log>
 804cb51:	8b 44 24 0c          	mov    0xc(%esp),%eax
 804cb55:	8b 4c 24 08          	mov    0x8(%esp),%ecx
 804cb59:	8b 54 24 04          	mov    0x4(%esp),%edx
 804cb5d:	8b 3c 24             	mov    (%esp),%edi
 804cb60:	8d 64 24 10          	lea    0x10(%esp),%esp
 804cb64:	39 f8                	cmp    %edi,%eax
 804cb66:	0f 84 fc 00 00 00    	je     804cc68 <lava_get+0x708>
 804cb6c:	8d 64 24 f0          	lea    -0x10(%esp),%esp
 804cb70:	89 3c 24             	mov    %edi,(%esp)
 804cb73:	89 54 24 04          	mov    %edx,0x4(%esp)
 804cb77:	89 4c 24 08          	mov    %ecx,0x8(%esp)
 804cb7b:	89 44 24 0c          	mov    %eax,0xc(%esp)
 804cb7f:	b9 93 b7 00 00       	mov    $0xb793,%ecx
 804cb84:	e8 77 29 00 00       	call   804f500 <__afl_maybe_log>
 804cb89:	8b 44 24 0c          	mov    0xc(%esp),%eax
 804cb8d:	8b 4c 24 08          	mov    0x8(%esp),%ecx
 804cb91:	8b 54 24 04          	mov    0x4(%esp),%edx
 804cb95:	8b 3c 24             	mov    (%esp),%edi
 804cb98:	8d 64 24 10          	lea    0x10(%esp),%esp
if(lava_val[bug_num] < 0)  {
asm volatile (""::: "memory");
	report_label_coverage("ABS", 21);
}
return lava_val[bug_num];
}
 804cb9c:	5b                   	pop    %ebx
 804cb9d:	5e                   	pop    %esi
 804cb9e:	5f                   	pop    %edi
 804cb9f:	c3                   	ret    
asm volatile (""::: "memory");
	report_label_coverage("AOR", 11);
}

// COR Label 12
if((1818326625 - bug_num == lava_val[bug_num] && (((1818326625 - bug_num) >> 24) | (((1818326625 - bug_num) & 16711680) >> 8) | (((1818326625 - bug_num) & 65280) << 8) | ((1818326625 - bug_num) << 24)) == lava_val[bug_num]) != (1818326625 - bug_num == lava_val[bug_num] || (((1818326625 - bug_num) >> 24) | (((1818326625 - bug_num) & 16711680) >> 8) | (((1818326625 - bug_num) & 65280) << 8) | ((1818326625 - bug_num) << 24)) == lava_val[bug_num]))  {
 804cba0:	39 fb                	cmp    %edi,%ebx
 804cba2:	0f 84 e4 fb ff ff    	je     804c78c <lava_get+0x22c>
 804cba8:	8d 64 24 f0          	lea    -0x10(%esp),%esp
 804cbac:	89 3c 24             	mov    %edi,(%esp)
 804cbaf:	89 54 24 04          	mov    %edx,0x4(%esp)
 804cbb3:	89 4c 24 08          	mov    %ecx,0x8(%esp)
 804cbb7:	89 44 24 0c          	mov    %eax,0xc(%esp)
 804cbbb:	b9 fe 16 00 00       	mov    $0x16fe,%ecx
 804cbc0:	e8 3b 29 00 00       	call   804f500 <__afl_maybe_log>
 804cbc5:	8b 44 24 0c          	mov    0xc(%esp),%eax
 804cbc9:	8b 4c 24 08          	mov    0x8(%esp),%ecx
 804cbcd:	8b 54 24 04          	mov    0x4(%esp),%edx
 804cbd1:	8b 3c 24             	mov    (%esp),%edi
 804cbd4:	8d 64 24 10          	lea    0x10(%esp),%esp
asm volatile (""::: "memory");
	report_label_coverage("COR", 12);
 804cbd8:	8d 64 24 f0          	lea    -0x10(%esp),%esp
 804cbdc:	89 3c 24             	mov    %edi,(%esp)
 804cbdf:	89 54 24 04          	mov    %edx,0x4(%esp)
 804cbe3:	89 4c 24 08          	mov    %ecx,0x8(%esp)
 804cbe7:	89 44 24 0c          	mov    %eax,0xc(%esp)
 804cbeb:	b9 79 fd 00 00       	mov    $0xfd79,%ecx
 804cbf0:	e8 0b 29 00 00       	call   804f500 <__afl_maybe_log>
 804cbf5:	8b 44 24 0c          	mov    0xc(%esp),%eax
 804cbf9:	8b 4c 24 08          	mov    0x8(%esp),%ecx
 804cbfd:	8b 54 24 04          	mov    0x4(%esp),%edx
 804cc01:	8b 3c 24             	mov    (%esp),%edi
 804cc04:	8d 64 24 10          	lea    0x10(%esp),%esp
 804cc08:	6a 0c                	push   $0xc
 804cc0a:	68 60 30 06 08       	push   $0x8063060
 804cc0f:	e8 9c dd ff ff       	call   804a9b0 <report_label_coverage>
 804cc14:	8b 04 b5 00 73 06 08 	mov    0x8067300(,%esi,4),%eax
}

// ROR Label 13
if((1818326625 - bug_num != lava_val[bug_num]) != (1818326625 - bug_num == lava_val[bug_num]))  {
 804cc1b:	5a                   	pop    %edx
 804cc1c:	59                   	pop    %ecx
 804cc1d:	39 c3                	cmp    %eax,%ebx
 804cc1f:	0f 95 c1             	setne  %cl
 804cc22:	0f 94 c2             	sete   %dl
 804cc25:	38 d1                	cmp    %dl,%cl
 804cc27:	0f 84 a4 fb ff ff    	je     804c7d1 <lava_get+0x271>
 804cc2d:	8d 76 00             	lea    0x0(%esi),%esi
 804cc30:	8d 64 24 f0          	lea    -0x10(%esp),%esp
 804cc34:	89 3c 24             	mov    %edi,(%esp)
 804cc37:	89 54 24 04          	mov    %edx,0x4(%esp)
 804cc3b:	89 4c 24 08          	mov    %ecx,0x8(%esp)
 804cc3f:	89 44 24 0c          	mov    %eax,0xc(%esp)
 804cc43:	b9 de 2a 00 00       	mov    $0x2ade,%ecx
 804cc48:	e8 b3 28 00 00       	call   804f500 <__afl_maybe_log>
 804cc4d:	8b 44 24 0c          	mov    0xc(%esp),%eax
 804cc51:	8b 4c 24 08          	mov    0x8(%esp),%ecx
 804cc55:	8b 54 24 04          	mov    0x4(%esp),%edx
 804cc59:	8b 3c 24             	mov    (%esp),%edi
 804cc5c:	8d 64 24 10          	lea    0x10(%esp),%esp
 804cc60:	e9 27 fb ff ff       	jmp    804c78c <lava_get+0x22c>
 804cc65:	8d 76 00             	lea    0x0(%esi),%esi
// ABS Label 19
if(bug_num < 0)  {
asm volatile (""::: "memory");
	report_label_coverage("ABS", 19);
}
dprintf(1, "Successfully triggered bug %d, crashing now!\n", bug_num);
 804cc68:	83 ec 04             	sub    $0x4,%esp
 804cc6b:	56                   	push   %esi
 804cc6c:	68 a8 31 06 08       	push   $0x80631a8
 804cc71:	6a 01                	push   $0x1
 804cc73:	e8 58 c5 ff ff       	call   80491d0 <dprintf@plt>
 804cc78:	83 c4 10             	add    $0x10,%esp
 804cc7b:	8b 04 b5 00 73 06 08 	mov    0x8067300(,%esi,4),%eax
if(lava_val[bug_num] < 0)  {
asm volatile (""::: "memory");
	report_label_coverage("ABS", 21);
}
return lava_val[bug_num];
}
 804cc82:	5b                   	pop    %ebx
 804cc83:	5e                   	pop    %esi
 804cc84:	5f                   	pop    %edi
 804cc85:	c3                   	ret    
 804cc86:	8d 76 00             	lea    0x0(%esi),%esi
 804cc89:	8d bc 27 00 00 00 00 	lea    0x0(%edi,%eiz,1),%edi
	report_label_coverage("MCC", 16);
}
// MCC Label 17
if(!(1818326625 - bug_num == lava_val[bug_num]) && (((1818326625 - bug_num) >> 24) | (((1818326625 - bug_num) & 16711680) >> 8) | (((1818326625 - bug_num) & 65280) << 8) | ((1818326625 - bug_num) << 24)) == lava_val[bug_num] ) {
asm volatile (""::: "memory");
	report_label_coverage("MCC", 17);
 804cc90:	6a 11                	push   $0x11
 804cc92:	68 64 30 06 08       	push   $0x8063064
 804cc97:	e8 14 dd ff ff       	call   804a9b0 <report_label_coverage>
 804cc9c:	8b 04 b5 00 73 06 08 	mov    0x8067300(,%esi,4),%eax
 804cca3:	5a                   	pop    %edx
 804cca4:	59                   	pop    %ecx
 804cca5:	39 c3                	cmp    %eax,%ebx
 804cca7:	0f 95 c2             	setne  %dl
 804ccaa:	e9 9d fd ff ff       	jmp    804ca4c <lava_get+0x4ec>
 804ccaf:	90                   	nop
}

// MCC Label 15
if(1818326625 - bug_num == lava_val[bug_num] && (((1818326625 - bug_num) >> 24) | (((1818326625 - bug_num) & 16711680) >> 8) | (((1818326625 - bug_num) & 65280) << 8) | ((1818326625 - bug_num) << 24)) == lava_val[bug_num] ) {
asm volatile (""::: "memory");
	report_label_coverage("MCC", 15);
 804ccb0:	6a 0f                	push   $0xf
 804ccb2:	68 64 30 06 08       	push   $0x8063064
 804ccb7:	e8 f4 dc ff ff       	call   804a9b0 <report_label_coverage>
 804ccbc:	8b 04 b5 00 73 06 08 	mov    0x8067300(,%esi,4),%eax
 804ccc3:	5a                   	pop    %edx
 804ccc4:	59                   	pop    %ecx
 804ccc5:	39 c3                	cmp    %eax,%ebx
 804ccc7:	0f 94 c1             	sete   %cl
 804ccca:	e9 2d fc ff ff       	jmp    804c8fc <lava_get+0x39c>
 804cccf:	90                   	nop

0804ccd0 <do_decode>:
;
}

static void
do_decode (FILE *in, FILE *out, bool ignore_garbage)
{
 804ccd0:	8d 64 24 f0          	lea    -0x10(%esp),%esp
 804ccd4:	89 3c 24             	mov    %edi,(%esp)
 804ccd7:	89 54 24 04          	mov    %edx,0x4(%esp)
 804ccdb:	89 4c 24 08          	mov    %ecx,0x8(%esp)
 804ccdf:	89 44 24 0c          	mov    %eax,0xc(%esp)
 804cce3:	b9 3f 85 00 00       	mov    $0x853f,%ecx
 804cce8:	e8 13 28 00 00       	call   804f500 <__afl_maybe_log>
 804cced:	8b 44 24 0c          	mov    0xc(%esp),%eax
 804ccf1:	8b 4c 24 08          	mov    0x8(%esp),%ecx
 804ccf5:	8b 54 24 04          	mov    0x4(%esp),%edx
 804ccf9:	8b 3c 24             	mov    (%esp),%edi
 804ccfc:	8d 64 24 10          	lea    0x10(%esp),%esp
 804cd00:	55                   	push   %ebp
 804cd01:	57                   	push   %edi
 804cd02:	56                   	push   %esi
 804cd03:	53                   	push   %ebx
 804cd04:	81 ec 48 1c 00 00    	sub    $0x1c48,%esp
 804cd0a:	89 44 24 1c          	mov    %eax,0x1c(%esp)
  char inbuf[DEC_B64BLOCKSIZE];
  char outbuf[DEC_BLOCKSIZE];
  size_t sum;
  struct base64_decode_context ctx;

  base64_decode_ctx_init (&ctx);
 804cd0e:	8d 44 24 34          	lea    0x34(%esp),%eax
;
}

static void
do_decode (FILE *in, FILE *out, bool ignore_garbage)
{
 804cd12:	89 54 24 28          	mov    %edx,0x28(%esp)
 804cd16:	88 4c 24 27          	mov    %cl,0x27(%esp)
  char inbuf[DEC_B64BLOCKSIZE];
  char outbuf[DEC_BLOCKSIZE];
  size_t sum;
  struct base64_decode_context ctx;

  base64_decode_ctx_init (&ctx);
 804cd1a:	50                   	push   %eax
 804cd1b:	e8 f0 3e 00 00       	call   8050c10 <base64_decode_ctx_init>
 804cd20:	83 c4 10             	add    $0x10,%esp
 804cd23:	90                   	nop
  do {
    {
        _Bool ok;
        size_t n;
        unsigned int k;
        sum = 0;
 804cd24:	8d 64 24 f0          	lea    -0x10(%esp),%esp
 804cd28:	89 3c 24             	mov    %edi,(%esp)
 804cd2b:	89 54 24 04          	mov    %edx,0x4(%esp)
 804cd2f:	89 4c 24 08          	mov    %ecx,0x8(%esp)
 804cd33:	89 44 24 0c          	mov    %eax,0xc(%esp)
 804cd37:	b9 e5 88 00 00       	mov    $0x88e5,%ecx
 804cd3c:	e8 bf 27 00 00       	call   804f500 <__afl_maybe_log>
 804cd41:	8b 44 24 0c          	mov    0xc(%esp),%eax
 804cd45:	8b 4c 24 08          	mov    0x8(%esp),%ecx
 804cd49:	8b 54 24 04          	mov    0x4(%esp),%edx
 804cd4d:	8b 3c 24             	mov    (%esp),%edi
 804cd50:	8d 64 24 10          	lea    0x10(%esp),%esp
 804cd54:	31 ed                	xor    %ebp,%ebp
 804cd56:	8d 76 00             	lea    0x0(%esi),%esi
 804cd59:	8d bc 27 00 00 00 00 	lea    0x0(%edi,%eiz,1),%edi
        do {
            {
                n = fread_unlocked(inbuf + sum, 1, (((((1024 * 3)) + 2) / 3) * 4) - sum, in);
 804cd60:	8d 94 24 30 0c 00 00 	lea    0xc30(%esp),%edx
 804cd67:	b9 00 10 00 00       	mov    $0x1000,%ecx
 804cd6c:	29 e9                	sub    %ebp,%ecx
 804cd6e:	01 ea                	add    %ebp,%edx
 804cd70:	89 54 24 14          	mov    %edx,0x14(%esp)
 804cd74:	ff 74 24 10          	pushl  0x10(%esp)
 804cd78:	51                   	push   %ecx
 804cd79:	6a 01                	push   $0x1
 804cd7b:	52                   	push   %edx
 804cd7c:	e8 1f c5 ff ff       	call   80492a0 <fread_unlocked@plt>
 804cd81:	89 44 24 34          	mov    %eax,0x34(%esp)
// ABS Label 236
if(ignore_garbage < 0)  {
asm volatile (""::: "memory");
	report_label_coverage("ABS", 236);
}
if (ignore_garbage) {
 804cd85:	83 c4 10             	add    $0x10,%esp
 804cd88:	80 7c 24 1b 00       	cmpb   $0x0,0x1b(%esp)
 804cd8d:	0f 84 b5 0e 00 00    	je     804dc48 <do_decode+0xf78>
 804cd93:	90                   	nop
 804cd94:	8d 64 24 f0          	lea    -0x10(%esp),%esp
 804cd98:	89 3c 24             	mov    %edi,(%esp)
 804cd9b:	89 54 24 04          	mov    %edx,0x4(%esp)
 804cd9f:	89 4c 24 08          	mov    %ecx,0x8(%esp)
 804cda3:	89 44 24 0c          	mov    %eax,0xc(%esp)
 804cda7:	b9 9c c6 00 00       	mov    $0xc69c,%ecx
 804cdac:	e8 4f 27 00 00       	call   804f500 <__afl_maybe_log>
 804cdb1:	8b 44 24 0c          	mov    0xc(%esp),%eax
 804cdb5:	8b 4c 24 08          	mov    0x8(%esp),%ecx
 804cdb9:	8b 54 24 04          	mov    0x4(%esp),%edx
 804cdbd:	8b 3c 24             	mov    (%esp),%edi
 804cdc0:	8d 64 24 10          	lea    0x10(%esp),%esp
asm volatile (""::: "memory");
	report_label_coverage("COR", 239);
}

// ROR Label 240
if((n <= 0) != (n > 0))  {
 804cdc4:	85 c0                	test   %eax,%eax
 804cdc6:	0f 94 c3             	sete   %bl
 804cdc9:	0f 95 c2             	setne  %dl
 804cdcc:	38 d3                	cmp    %dl,%bl
 804cdce:	74 49                	je     804ce19 <do_decode+0x149>
 804cdd0:	8d 64 24 f0          	lea    -0x10(%esp),%esp
 804cdd4:	89 3c 24             	mov    %edi,(%esp)
 804cdd7:	89 54 24 04          	mov    %edx,0x4(%esp)
 804cddb:	89 4c 24 08          	mov    %ecx,0x8(%esp)
 804cddf:	89 44 24 0c          	mov    %eax,0xc(%esp)
 804cde3:	b9 96 77 00 00       	mov    $0x7796,%ecx
 804cde8:	e8 13 27 00 00       	call   804f500 <__afl_maybe_log>
 804cded:	8b 44 24 0c          	mov    0xc(%esp),%eax
 804cdf1:	8b 4c 24 08          	mov    0x8(%esp),%ecx
 804cdf5:	8b 54 24 04          	mov    0x4(%esp),%edx
 804cdf9:	8b 3c 24             	mov    (%esp),%edi
 804cdfc:	8d 64 24 10          	lea    0x10(%esp),%esp
asm volatile (""::: "memory");
	report_label_coverage("ROR", 240);
 804ce00:	83 ec 08             	sub    $0x8,%esp
 804ce03:	68 f0 00 00 00       	push   $0xf0
 804ce08:	68 48 30 06 08       	push   $0x8063048
 804ce0d:	e8 9e db ff ff       	call   804a9b0 <report_label_coverage>
 804ce12:	8b 44 24 34          	mov    0x34(%esp),%eax
 804ce16:	83 c4 10             	add    $0x10,%esp
 804ce19:	8d 76 00             	lea    0x0(%esi),%esi
}
// ROR Label 241
if((n < 0) != (n > 0))  {
 804ce1c:	8d 64 24 f0          	lea    -0x10(%esp),%esp
