
src/md5sum:     file format elf32-i386


Disassembly of section .init:

080490b4 <_init>:
 80490b4:	53                   	push   %ebx
 80490b5:	83 ec 08             	sub    $0x8,%esp
 80490b8:	e8 33 cf 00 00       	call   8055ff0 <__x86.get_pc_thunk.bx>
 80490bd:	81 c3 4f 20 02 00    	add    $0x2204f,%ebx
 80490c3:	8b 83 f8 ff ff ff    	mov    -0x8(%ebx),%eax
 80490c9:	85 c0                	test   %eax,%eax
 80490cb:	74 05                	je     80490d2 <_init+0x1e>
 80490cd:	e8 1e 02 00 00       	call   80492f0 <__gmon_start__@plt>
 80490d2:	83 c4 08             	add    $0x8,%esp
 80490d5:	5b                   	pop    %ebx
 80490d6:	c3                   	ret    

Disassembly of section .plt:

080490e0 <strcmp@plt-0x10>:
 80490e0:	ff 35 10 b1 06 08    	pushl  0x806b110
 80490e6:	ff 25 14 b1 06 08    	jmp    *0x806b114
 80490ec:	00 00                	add    %al,(%eax)
	...

080490f0 <strcmp@plt>:
 80490f0:	ff 25 18 b1 06 08    	jmp    *0x806b118
 80490f6:	68 00 00 00 00       	push   $0x0
 80490fb:	e9 e0 ff ff ff       	jmp    80490e0 <_init+0x2c>

08049100 <open64@plt>:
 8049100:	ff 25 1c b1 06 08    	jmp    *0x806b11c
 8049106:	68 08 00 00 00       	push   $0x8
 804910b:	e9 d0 ff ff ff       	jmp    80490e0 <_init+0x2c>

08049110 <getline@plt>:
 8049110:	ff 25 20 b1 06 08    	jmp    *0x806b120
 8049116:	68 10 00 00 00       	push   $0x10
 804911b:	e9 c0 ff ff ff       	jmp    80490e0 <_init+0x2c>

08049120 <read@plt>:
 8049120:	ff 25 24 b1 06 08    	jmp    *0x806b124
 8049126:	68 18 00 00 00       	push   $0x18
 804912b:	e9 b0 ff ff ff       	jmp    80490e0 <_init+0x2c>

08049130 <printf@plt>:
 8049130:	ff 25 28 b1 06 08    	jmp    *0x806b128
 8049136:	68 20 00 00 00       	push   $0x20
 804913b:	e9 a0 ff ff ff       	jmp    80490e0 <_init+0x2c>

08049140 <fflush@plt>:
 8049140:	ff 25 2c b1 06 08    	jmp    *0x806b12c
 8049146:	68 28 00 00 00       	push   $0x28
 804914b:	e9 90 ff ff ff       	jmp    80490e0 <_init+0x2c>

08049150 <_exit@plt>:
 8049150:	ff 25 30 b1 06 08    	jmp    *0x806b130
 8049156:	68 30 00 00 00       	push   $0x30
 804915b:	e9 80 ff ff ff       	jmp    80490e0 <_init+0x2c>

08049160 <free@plt>:
 8049160:	ff 25 34 b1 06 08    	jmp    *0x806b134
 8049166:	68 38 00 00 00       	push   $0x38
 804916b:	e9 70 ff ff ff       	jmp    80490e0 <_init+0x2c>

08049170 <memcpy@plt>:
 8049170:	ff 25 38 b1 06 08    	jmp    *0x806b138
 8049176:	68 40 00 00 00       	push   $0x40
 804917b:	e9 60 ff ff ff       	jmp    80490e0 <_init+0x2c>

08049180 <mbsinit@plt>:
 8049180:	ff 25 3c b1 06 08    	jmp    *0x806b13c
 8049186:	68 48 00 00 00       	push   $0x48
 804918b:	e9 50 ff ff ff       	jmp    80490e0 <_init+0x2c>

08049190 <fclose@plt>:
 8049190:	ff 25 40 b1 06 08    	jmp    *0x806b140
 8049196:	68 50 00 00 00       	push   $0x50
 804919b:	e9 40 ff ff ff       	jmp    80490e0 <_init+0x2c>

080491a0 <fseeko64@plt>:
 80491a0:	ff 25 44 b1 06 08    	jmp    *0x806b144
 80491a6:	68 58 00 00 00       	push   $0x58
 80491ab:	e9 30 ff ff ff       	jmp    80490e0 <_init+0x2c>

080491b0 <memcmp@plt>:
 80491b0:	ff 25 48 b1 06 08    	jmp    *0x806b148
 80491b6:	68 60 00 00 00       	push   $0x60
 80491bb:	e9 20 ff ff ff       	jmp    80490e0 <_init+0x2c>

080491c0 <dprintf@plt>:
 80491c0:	ff 25 4c b1 06 08    	jmp    *0x806b14c
 80491c6:	68 68 00 00 00       	push   $0x68
 80491cb:	e9 10 ff ff ff       	jmp    80490e0 <_init+0x2c>

080491d0 <dcgettext@plt>:
 80491d0:	ff 25 50 b1 06 08    	jmp    *0x806b150
 80491d6:	68 70 00 00 00       	push   $0x70
 80491db:	e9 00 ff ff ff       	jmp    80490e0 <_init+0x2c>

080491e0 <shmat@plt>:
 80491e0:	ff 25 54 b1 06 08    	jmp    *0x806b154
 80491e6:	68 78 00 00 00       	push   $0x78
 80491eb:	e9 f0 fe ff ff       	jmp    80490e0 <_init+0x2c>

080491f0 <textdomain@plt>:
 80491f0:	ff 25 58 b1 06 08    	jmp    *0x806b158
 80491f6:	68 80 00 00 00       	push   $0x80
 80491fb:	e9 e0 fe ff ff       	jmp    80490e0 <_init+0x2c>

08049200 <iswprint@plt>:
 8049200:	ff 25 5c b1 06 08    	jmp    *0x806b15c
 8049206:	68 88 00 00 00       	push   $0x88
 804920b:	e9 d0 fe ff ff       	jmp    80490e0 <_init+0x2c>

08049210 <fopen64@plt>:
 8049210:	ff 25 60 b1 06 08    	jmp    *0x806b160
 8049216:	68 90 00 00 00       	push   $0x90
 804921b:	e9 c0 fe ff ff       	jmp    80490e0 <_init+0x2c>

08049220 <fwrite@plt>:
 8049220:	ff 25 64 b1 06 08    	jmp    *0x806b164
 8049226:	68 98 00 00 00       	push   $0x98
 804922b:	e9 b0 fe ff ff       	jmp    80490e0 <_init+0x2c>

08049230 <__ctype_get_mb_cur_max@plt>:
 8049230:	ff 25 68 b1 06 08    	jmp    *0x806b168
 8049236:	68 a0 00 00 00       	push   $0xa0
 804923b:	e9 a0 fe ff ff       	jmp    80490e0 <_init+0x2c>

08049240 <waitpid@plt>:
 8049240:	ff 25 6c b1 06 08    	jmp    *0x806b16c
 8049246:	68 a8 00 00 00       	push   $0xa8
 804924b:	e9 90 fe ff ff       	jmp    80490e0 <_init+0x2c>

08049250 <strcpy@plt>:
 8049250:	ff 25 70 b1 06 08    	jmp    *0x806b170
 8049256:	68 b0 00 00 00       	push   $0xb0
 804925b:	e9 80 fe ff ff       	jmp    80490e0 <_init+0x2c>

08049260 <__fpending@plt>:
 8049260:	ff 25 74 b1 06 08    	jmp    *0x806b174
 8049266:	68 b8 00 00 00       	push   $0xb8
 804926b:	e9 70 fe ff ff       	jmp    80490e0 <_init+0x2c>

08049270 <mbrtowc@plt>:
 8049270:	ff 25 78 b1 06 08    	jmp    *0x806b178
 8049276:	68 c0 00 00 00       	push   $0xc0
 804927b:	e9 60 fe ff ff       	jmp    80490e0 <_init+0x2c>

08049280 <__cxa_atexit@plt>:
 8049280:	ff 25 7c b1 06 08    	jmp    *0x806b17c
 8049286:	68 c8 00 00 00       	push   $0xc8
 804928b:	e9 50 fe ff ff       	jmp    80490e0 <_init+0x2c>

08049290 <error@plt>:
 8049290:	ff 25 80 b1 06 08    	jmp    *0x806b180
 8049296:	68 d0 00 00 00       	push   $0xd0
 804929b:	e9 40 fe ff ff       	jmp    80490e0 <_init+0x2c>

080492a0 <fread_unlocked@plt>:
 80492a0:	ff 25 84 b1 06 08    	jmp    *0x806b184
 80492a6:	68 d8 00 00 00       	push   $0xd8
 80492ab:	e9 30 fe ff ff       	jmp    80490e0 <_init+0x2c>

080492b0 <getenv@plt>:
 80492b0:	ff 25 88 b1 06 08    	jmp    *0x806b188
 80492b6:	68 e0 00 00 00       	push   $0xe0
 80492bb:	e9 20 fe ff ff       	jmp    80490e0 <_init+0x2c>

080492c0 <realloc@plt>:
 80492c0:	ff 25 8c b1 06 08    	jmp    *0x806b18c
 80492c6:	68 e8 00 00 00       	push   $0xe8
 80492cb:	e9 10 fe ff ff       	jmp    80490e0 <_init+0x2c>

080492d0 <malloc@plt>:
 80492d0:	ff 25 90 b1 06 08    	jmp    *0x806b190
 80492d6:	68 f0 00 00 00       	push   $0xf0
 80492db:	e9 00 fe ff ff       	jmp    80490e0 <_init+0x2c>

080492e0 <__freading@plt>:
 80492e0:	ff 25 94 b1 06 08    	jmp    *0x806b194
 80492e6:	68 f8 00 00 00       	push   $0xf8
 80492eb:	e9 f0 fd ff ff       	jmp    80490e0 <_init+0x2c>

080492f0 <__gmon_start__@plt>:
 80492f0:	ff 25 98 b1 06 08    	jmp    *0x806b198
 80492f6:	68 00 01 00 00       	push   $0x100
 80492fb:	e9 e0 fd ff ff       	jmp    80490e0 <_init+0x2c>

08049300 <exit@plt>:
 8049300:	ff 25 9c b1 06 08    	jmp    *0x806b19c
 8049306:	68 08 01 00 00       	push   $0x108
 804930b:	e9 d0 fd ff ff       	jmp    80490e0 <_init+0x2c>

08049310 <fdopen@plt>:
 8049310:	ff 25 a0 b1 06 08    	jmp    *0x806b1a0
 8049316:	68 10 01 00 00       	push   $0x110
 804931b:	e9 c0 fd ff ff       	jmp    80490e0 <_init+0x2c>

08049320 <fputs_unlocked@plt>:
 8049320:	ff 25 a4 b1 06 08    	jmp    *0x806b1a4
 8049326:	68 18 01 00 00       	push   $0x118
 804932b:	e9 b0 fd ff ff       	jmp    80490e0 <_init+0x2c>

08049330 <getopt_long@plt>:
 8049330:	ff 25 a8 b1 06 08    	jmp    *0x806b1a8
 8049336:	68 20 01 00 00       	push   $0x120
 804933b:	e9 a0 fd ff ff       	jmp    80490e0 <_init+0x2c>

08049340 <strchr@plt>:
 8049340:	ff 25 ac b1 06 08    	jmp    *0x806b1ac
 8049346:	68 28 01 00 00       	push   $0x128
 804934b:	e9 90 fd ff ff       	jmp    80490e0 <_init+0x2c>

08049350 <fscanf@plt>:
 8049350:	ff 25 b0 b1 06 08    	jmp    *0x806b1b0
 8049356:	68 30 01 00 00       	push   $0x130
 804935b:	e9 80 fd ff ff       	jmp    80490e0 <_init+0x2c>

08049360 <strlen@plt>:
 8049360:	ff 25 b4 b1 06 08    	jmp    *0x806b1b4
 8049366:	68 38 01 00 00       	push   $0x138
 804936b:	e9 70 fd ff ff       	jmp    80490e0 <_init+0x2c>

08049370 <__libc_start_main@plt>:
 8049370:	ff 25 b8 b1 06 08    	jmp    *0x806b1b8
 8049376:	68 40 01 00 00       	push   $0x140
 804937b:	e9 60 fd ff ff       	jmp    80490e0 <_init+0x2c>

08049380 <fprintf@plt>:
 8049380:	ff 25 bc b1 06 08    	jmp    *0x806b1bc
 8049386:	68 48 01 00 00       	push   $0x148
 804938b:	e9 50 fd ff ff       	jmp    80490e0 <_init+0x2c>

08049390 <write@plt>:
 8049390:	ff 25 c0 b1 06 08    	jmp    *0x806b1c0
 8049396:	68 50 01 00 00       	push   $0x150
 804939b:	e9 40 fd ff ff       	jmp    80490e0 <_init+0x2c>

080493a0 <fcntl@plt>:
 80493a0:	ff 25 c4 b1 06 08    	jmp    *0x806b1c4
 80493a6:	68 58 01 00 00       	push   $0x158
 80493ab:	e9 30 fd ff ff       	jmp    80490e0 <_init+0x2c>

080493b0 <setvbuf@plt>:
 80493b0:	ff 25 c8 b1 06 08    	jmp    *0x806b1c8
 80493b6:	68 60 01 00 00       	push   $0x160
 80493bb:	e9 20 fd ff ff       	jmp    80490e0 <_init+0x2c>

080493c0 <memset@plt>:
 80493c0:	ff 25 cc b1 06 08    	jmp    *0x806b1cc
 80493c6:	68 68 01 00 00       	push   $0x168
 80493cb:	e9 10 fd ff ff       	jmp    80490e0 <_init+0x2c>

080493d0 <ungetc@plt>:
 80493d0:	ff 25 d0 b1 06 08    	jmp    *0x806b1d0
 80493d6:	68 70 01 00 00       	push   $0x170
 80493db:	e9 00 fd ff ff       	jmp    80490e0 <_init+0x2c>

080493e0 <__errno_location@plt>:
 80493e0:	ff 25 d4 b1 06 08    	jmp    *0x806b1d4
 80493e6:	68 78 01 00 00       	push   $0x178
 80493eb:	e9 f0 fc ff ff       	jmp    80490e0 <_init+0x2c>

080493f0 <fileno@plt>:
 80493f0:	ff 25 d8 b1 06 08    	jmp    *0x806b1d8
 80493f6:	68 80 01 00 00       	push   $0x180
 80493fb:	e9 e0 fc ff ff       	jmp    80490e0 <_init+0x2c>

08049400 <fwrite_unlocked@plt>:
 8049400:	ff 25 dc b1 06 08    	jmp    *0x806b1dc
 8049406:	68 88 01 00 00       	push   $0x188
 804940b:	e9 d0 fc ff ff       	jmp    80490e0 <_init+0x2c>

08049410 <__printf_chk@plt>:
 8049410:	ff 25 e0 b1 06 08    	jmp    *0x806b1e0
 8049416:	68 90 01 00 00       	push   $0x190
 804941b:	e9 c0 fc ff ff       	jmp    80490e0 <_init+0x2c>

08049420 <fork@plt>:
 8049420:	ff 25 e4 b1 06 08    	jmp    *0x806b1e4
 8049426:	68 98 01 00 00       	push   $0x198
 804942b:	e9 b0 fc ff ff       	jmp    80490e0 <_init+0x2c>

08049430 <__uflow@plt>:
 8049430:	ff 25 e8 b1 06 08    	jmp    *0x806b1e8
 8049436:	68 a0 01 00 00       	push   $0x1a0
 804943b:	e9 a0 fc ff ff       	jmp    80490e0 <_init+0x2c>

08049440 <nl_langinfo@plt>:
 8049440:	ff 25 ec b1 06 08    	jmp    *0x806b1ec
 8049446:	68 a8 01 00 00       	push   $0x1a8
 804944b:	e9 90 fc ff ff       	jmp    80490e0 <_init+0x2c>

08049450 <setlocale@plt>:
 8049450:	ff 25 f0 b1 06 08    	jmp    *0x806b1f0
 8049456:	68 b0 01 00 00       	push   $0x1b0
 804945b:	e9 80 fc ff ff       	jmp    80490e0 <_init+0x2c>

08049460 <strrchr@plt>:
 8049460:	ff 25 f4 b1 06 08    	jmp    *0x806b1f4
 8049466:	68 b8 01 00 00       	push   $0x1b8
 804946b:	e9 70 fc ff ff       	jmp    80490e0 <_init+0x2c>

08049470 <__overflow@plt>:
 8049470:	ff 25 f8 b1 06 08    	jmp    *0x806b1f8
 8049476:	68 c0 01 00 00       	push   $0x1c0
 804947b:	e9 60 fc ff ff       	jmp    80490e0 <_init+0x2c>

08049480 <atoi@plt>:
 8049480:	ff 25 fc b1 06 08    	jmp    *0x806b1fc
 8049486:	68 c8 01 00 00       	push   $0x1c8
 804948b:	e9 50 fc ff ff       	jmp    80490e0 <_init+0x2c>

08049490 <lseek64@plt>:
 8049490:	ff 25 00 b2 06 08    	jmp    *0x806b200
 8049496:	68 d0 01 00 00       	push   $0x1d0
 804949b:	e9 40 fc ff ff       	jmp    80490e0 <_init+0x2c>

080494a0 <__fprintf_chk@plt>:
 80494a0:	ff 25 04 b2 06 08    	jmp    *0x806b204
 80494a6:	68 d8 01 00 00       	push   $0x1d8
 80494ab:	e9 30 fc ff ff       	jmp    80490e0 <_init+0x2c>

080494b0 <bindtextdomain@plt>:
 80494b0:	ff 25 08 b2 06 08    	jmp    *0x806b208
 80494b6:	68 e0 01 00 00       	push   $0x1e0
 80494bb:	e9 20 fc ff ff       	jmp    80490e0 <_init+0x2c>

080494c0 <posix_fadvise64@plt>:
 80494c0:	ff 25 0c b2 06 08    	jmp    *0x806b20c
 80494c6:	68 e8 01 00 00       	push   $0x1e8
 80494cb:	e9 10 fc ff ff       	jmp    80490e0 <_init+0x2c>

080494d0 <strncmp@plt>:
 80494d0:	ff 25 10 b2 06 08    	jmp    *0x806b210
 80494d6:	68 f0 01 00 00       	push   $0x1f0
 80494db:	e9 00 fc ff ff       	jmp    80490e0 <_init+0x2c>

080494e0 <abort@plt>:
 80494e0:	ff 25 14 b2 06 08    	jmp    *0x806b214
 80494e6:	68 f8 01 00 00       	push   $0x1f8
 80494eb:	e9 f0 fb ff ff       	jmp    80490e0 <_init+0x2c>

080494f0 <dcngettext@plt>:
 80494f0:	ff 25 18 b2 06 08    	jmp    *0x806b218
 80494f6:	68 00 02 00 00       	push   $0x200
 80494fb:	e9 e0 fb ff ff       	jmp    80490e0 <_init+0x2c>

08049500 <close@plt>:
 8049500:	ff 25 1c b2 06 08    	jmp    *0x806b21c
 8049506:	68 08 02 00 00       	push   $0x208
 804950b:	e9 d0 fb ff ff       	jmp    80490e0 <_init+0x2c>

08049510 <__ctype_tolower_loc@plt>:
 8049510:	ff 25 20 b2 06 08    	jmp    *0x806b220
 8049516:	68 10 02 00 00       	push   $0x210
 804951b:	e9 c0 fb ff ff       	jmp    80490e0 <_init+0x2c>

08049520 <__ctype_b_loc@plt>:
 8049520:	ff 25 24 b2 06 08    	jmp    *0x806b224
 8049526:	68 18 02 00 00       	push   $0x218
 804952b:	e9 b0 fb ff ff       	jmp    80490e0 <_init+0x2c>

08049530 <calloc@plt>:
 8049530:	ff 25 28 b2 06 08    	jmp    *0x806b228
 8049536:	68 20 02 00 00       	push   $0x220
 804953b:	e9 a0 fb ff ff       	jmp    80490e0 <_init+0x2c>

Disassembly of section .text:

08049540 <main>:

}

int
main (int argc, char **argv)
{
 8049540:	8d 64 24 f0          	lea    -0x10(%esp),%esp
 8049544:	89 3c 24             	mov    %edi,(%esp)
 8049547:	89 54 24 04          	mov    %edx,0x4(%esp)
 804954b:	89 4c 24 08          	mov    %ecx,0x8(%esp)
 804954f:	89 44 24 0c          	mov    %eax,0xc(%esp)
 8049553:	b9 be 02 00 00       	mov    $0x2be,%ecx
 8049558:	e8 fb f1 00 00       	call   8058758 <__afl_maybe_log>
 804955d:	8b 44 24 0c          	mov    0xc(%esp),%eax
 8049561:	8b 4c 24 08          	mov    0x8(%esp),%ecx
 8049565:	8b 54 24 04          	mov    0x4(%esp),%edx
 8049569:	8b 3c 24             	mov    (%esp),%edi
 804956c:	8d 64 24 10          	lea    0x10(%esp),%esp
 8049570:	8d 4c 24 04          	lea    0x4(%esp),%ecx
 8049574:	83 e4 f0             	and    $0xfffffff0,%esp
 8049577:	ff 71 fc             	pushl  -0x4(%ecx)
 804957a:	55                   	push   %ebp
 804957b:	89 e5                	mov    %esp,%ebp
 804957d:	57                   	push   %edi
 804957e:	56                   	push   %esi
 804957f:	53                   	push   %ebx
 8049580:	51                   	push   %ecx
 8049581:	81 ec c4 00 00 00    	sub    $0xc4,%esp
 8049587:	8b 51 04             	mov    0x4(%ecx),%edx
 804958a:	8b 01                	mov    (%ecx),%eax
  int binary = -1;
  bool prefix_tag = false;

  /* Setting values of global variables.  */
  initialize_main (&argc, &argv);
  set_program_name (argv[0]);
 804958c:	ff 32                	pushl  (%edx)

}

int
main (int argc, char **argv)
{
 804958e:	89 45 94             	mov    %eax,-0x6c(%ebp)
 8049591:	89 55 90             	mov    %edx,-0x70(%ebp)
  int binary = -1;
  bool prefix_tag = false;

  /* Setting values of global variables.  */
  initialize_main (&argc, &argv);
  set_program_name (argv[0]);
 8049594:	e8 a7 25 01 00       	call   805bb40 <set_program_name>
  setlocale (LC_ALL, "");
 8049599:	58                   	pop    %eax
 804959a:	5a                   	pop    %edx
 804959b:	68 bd 80 06 08       	push   $0x80680bd
 80495a0:	6a 06                	push   $0x6
 80495a2:	e8 a9 fe ff ff       	call   8049450 <setlocale@plt>
  bindtextdomain (PACKAGE, LOCALEDIR);
 80495a7:	59                   	pop    %ecx
 80495a8:	5b                   	pop    %ebx
 80495a9:	68 7e 71 06 08       	push   $0x806717e
 80495ae:	68 70 71 06 08       	push   $0x8067170
 80495b3:	e8 f8 fe ff ff       	call   80494b0 <bindtextdomain@plt>
  textdomain (PACKAGE);
 80495b8:	c7 04 24 70 71 06 08 	movl   $0x8067170,(%esp)
 80495bf:	e8 2c fc ff ff       	call   80491f0 <textdomain@plt>

  atexit (close_stdout);
 80495c4:	c7 04 24 20 89 05 08 	movl   $0x8058920,(%esp)
 80495cb:	e8 80 da 01 00       	call   8067050 <atexit>
  
// ABS Label 437
if(stdout < 0)  {asm volatile (""::: "memory");
	report_label_coverage("ABS", 437);
}
setvbuf (stdout, NULL, _IOLBF, 0);
 80495d0:	6a 00                	push   $0x0
 80495d2:	6a 01                	push   $0x1
 80495d4:	6a 00                	push   $0x0
 80495d6:	ff 35 d8 b2 06 08    	pushl  0x806b2d8
 80495dc:	e8 cf fd ff ff       	call   80493b0 <setvbuf@plt>
 80495e1:	83 c4 20             	add    $0x20,%esp
  unsigned char *bin_buffer = ptr_align (bin_buffer_unaligned, DIGEST_ALIGN);
  bool do_check = false;
  int opt;
  bool ok = true;
  int binary = -1;
  bool prefix_tag = false;
 80495e4:	c6 85 7e ff ff ff 00 	movb   $0x0,-0x82(%ebp)
  /* Make sure bin_buffer is properly aligned. */
  unsigned char *bin_buffer = ptr_align (bin_buffer_unaligned, DIGEST_ALIGN);
  bool do_check = false;
  int opt;
  bool ok = true;
  int binary = -1;
 80495eb:	c7 85 74 ff ff ff ff 	movl   $0xffffffff,-0x8c(%ebp)
 80495f2:	ff ff ff 
main (int argc, char **argv)
{
  unsigned char bin_buffer_unaligned[DIGEST_BIN_BYTES + DIGEST_ALIGN];
  /* Make sure bin_buffer is properly aligned. */
  unsigned char *bin_buffer = ptr_align (bin_buffer_unaligned, DIGEST_ALIGN);
  bool do_check = false;
 80495f5:	c6 85 7f ff ff ff 00 	movb   $0x0,-0x81(%ebp)
setvbuf (stdout, NULL, _IOLBF, 0);

  while (1)
    {
        {
            int temp_1 = !((opt = getopt_long(argc, argv, "bctw", long_options, ((void *)0))) != -1);
 80495fc:	8d 64 24 f0          	lea    -0x10(%esp),%esp
 8049600:	89 3c 24             	mov    %edi,(%esp)
 8049603:	89 54 24 04          	mov    %edx,0x4(%esp)
 8049607:	89 4c 24 08          	mov    %ecx,0x8(%esp)
 804960b:	89 44 24 0c          	mov    %eax,0xc(%esp)
 804960f:	b9 dd 69 00 00       	mov    $0x69dd,%ecx
 8049614:	e8 3f f1 00 00       	call   8058758 <__afl_maybe_log>
 8049619:	8b 44 24 0c          	mov    0xc(%esp),%eax
 804961d:	8b 4c 24 08          	mov    0x8(%esp),%ecx
 8049621:	8b 54 24 04          	mov    0x4(%esp),%edx
 8049625:	8b 3c 24             	mov    (%esp),%edi
 8049628:	8d 64 24 10          	lea    0x10(%esp),%esp
 804962c:	83 ec 0c             	sub    $0xc,%esp
 804962f:	6a 00                	push   $0x0
 8049631:	68 80 7b 06 08       	push   $0x8067b80
 8049636:	68 96 71 06 08       	push   $0x8067196
 804963b:	ff 75 90             	pushl  -0x70(%ebp)
 804963e:	ff 75 94             	pushl  -0x6c(%ebp)
 8049641:	e8 ea fc ff ff       	call   8049330 <getopt_long@plt>
            
// ABS Label 438
if(temp_1 < 0)  {asm volatile (""::: "memory");
	report_label_coverage("ABS", 438);
}
if (temp_1)
 8049646:	83 c4 20             	add    $0x20,%esp
 8049649:	83 f8 ff             	cmp    $0xffffffff,%eax
 804964c:	0f 84 ad 05 00 00    	je     8049bff <main+0x6bf>
 8049652:	66 90                	xchg   %ax,%ax
 8049654:	8d 64 24 f0          	lea    -0x10(%esp),%esp
 8049658:	89 3c 24             	mov    %edi,(%esp)
 804965b:	89 54 24 04          	mov    %edx,0x4(%esp)
 804965f:	89 4c 24 08          	mov    %ecx,0x8(%esp)
 8049663:	89 44 24 0c          	mov    %eax,0xc(%esp)
 8049667:	b9 1e 79 00 00       	mov    $0x791e,%ecx
 804966c:	e8 e7 f0 00 00       	call   8058758 <__afl_maybe_log>
 8049671:	8b 44 24 0c          	mov    0xc(%esp),%eax
 8049675:	8b 4c 24 08          	mov    0x8(%esp),%ecx
 8049679:	8b 54 24 04          	mov    0x4(%esp),%edx
 804967d:	8b 3c 24             	mov    (%esp),%edi
 8049680:	8d 64 24 10          	lea    0x10(%esp),%esp
                break;
        }
        switch (opt) {
 8049684:	83 f8 74             	cmp    $0x74,%eax
 8049687:	0f 84 31 05 00 00    	je     8049bbe <main+0x67e>
 804968d:	8d 76 00             	lea    0x0(%esi),%esi
 8049690:	8d 64 24 f0          	lea    -0x10(%esp),%esp
 8049694:	89 3c 24             	mov    %edi,(%esp)
 8049697:	89 54 24 04          	mov    %edx,0x4(%esp)
 804969b:	89 4c 24 08          	mov    %ecx,0x8(%esp)
 804969f:	89 44 24 0c          	mov    %eax,0xc(%esp)
 80496a3:	b9 fd b2 00 00       	mov    $0xb2fd,%ecx
 80496a8:	e8 ab f0 00 00       	call   8058758 <__afl_maybe_log>
 80496ad:	8b 44 24 0c          	mov    0xc(%esp),%eax
 80496b1:	8b 4c 24 08          	mov    0x8(%esp),%ecx
 80496b5:	8b 54 24 04          	mov    0x4(%esp),%edx
 80496b9:	8b 3c 24             	mov    (%esp),%edi
 80496bc:	8d 64 24 10          	lea    0x10(%esp),%esp
 80496c0:	0f 8e 3a 01 00 00    	jle    8049800 <main+0x2c0>
 80496c6:	66 90                	xchg   %ax,%ax
 80496c8:	8d 64 24 f0          	lea    -0x10(%esp),%esp
 80496cc:	89 3c 24             	mov    %edi,(%esp)
 80496cf:	89 54 24 04          	mov    %edx,0x4(%esp)
 80496d3:	89 4c 24 08          	mov    %ecx,0x8(%esp)
 80496d7:	89 44 24 0c          	mov    %eax,0xc(%esp)
 80496db:	b9 02 ea 00 00       	mov    $0xea02,%ecx
 80496e0:	e8 73 f0 00 00       	call   8058758 <__afl_maybe_log>
 80496e5:	8b 44 24 0c          	mov    0xc(%esp),%eax
 80496e9:	8b 4c 24 08          	mov    0x8(%esp),%ecx
 80496ed:	8b 54 24 04          	mov    0x4(%esp),%edx
 80496f1:	8b 3c 24             	mov    (%esp),%edi
 80496f4:	8d 64 24 10          	lea    0x10(%esp),%esp
 80496f8:	3d 81 00 00 00       	cmp    $0x81,%eax
 80496fd:	0f 84 f7 03 00 00    	je     8049afa <main+0x5ba>
 8049703:	90                   	nop
 8049704:	8d 64 24 f0          	lea    -0x10(%esp),%esp
 8049708:	89 3c 24             	mov    %edi,(%esp)
 804970b:	89 54 24 04          	mov    %edx,0x4(%esp)
 804970f:	89 4c 24 08          	mov    %ecx,0x8(%esp)
 8049713:	89 44 24 0c          	mov    %eax,0xc(%esp)
 8049717:	b9 8e e0 00 00       	mov    $0xe08e,%ecx
 804971c:	e8 37 f0 00 00       	call   8058758 <__afl_maybe_log>
 8049721:	8b 44 24 0c          	mov    0xc(%esp),%eax
 8049725:	8b 4c 24 08          	mov    0x8(%esp),%ecx
 8049729:	8b 54 24 04          	mov    0x4(%esp),%edx
 804972d:	8b 3c 24             	mov    (%esp),%edi
 8049730:	8d 64 24 10          	lea    0x10(%esp),%esp
 8049734:	0f 8f c6 01 00 00    	jg     8049900 <main+0x3c0>
 804973a:	66 90                	xchg   %ax,%ax
 804973c:	8d 64 24 f0          	lea    -0x10(%esp),%esp
 8049740:	89 3c 24             	mov    %edi,(%esp)
 8049743:	89 54 24 04          	mov    %edx,0x4(%esp)
 8049747:	89 4c 24 08          	mov    %ecx,0x8(%esp)
 804974b:	89 44 24 0c          	mov    %eax,0xc(%esp)
 804974f:	b9 70 dd 00 00       	mov    $0xdd70,%ecx
 8049754:	e8 ff ef 00 00       	call   8058758 <__afl_maybe_log>
 8049759:	8b 44 24 0c          	mov    0xc(%esp),%eax
 804975d:	8b 4c 24 08          	mov    0x8(%esp),%ecx
 8049761:	8b 54 24 04          	mov    0x4(%esp),%edx
 8049765:	8b 3c 24             	mov    (%esp),%edi
 8049768:	8d 64 24 10          	lea    0x10(%esp),%esp
 804976c:	83 f8 77             	cmp    $0x77,%eax
 804976f:	0f 84 96 02 00 00    	je     8049a0b <main+0x4cb>
 8049775:	8d 76 00             	lea    0x0(%esi),%esi
 8049778:	8d 64 24 f0          	lea    -0x10(%esp),%esp
 804977c:	89 3c 24             	mov    %edi,(%esp)
 804977f:	89 54 24 04          	mov    %edx,0x4(%esp)
 8049783:	89 4c 24 08          	mov    %ecx,0x8(%esp)
 8049787:	89 44 24 0c          	mov    %eax,0xc(%esp)
 804978b:	b9 9b 59 00 00       	mov    $0x599b,%ecx
 8049790:	e8 c3 ef 00 00       	call   8058758 <__afl_maybe_log>
 8049795:	8b 44 24 0c          	mov    0xc(%esp),%eax
 8049799:	8b 4c 24 08          	mov    0x8(%esp),%ecx
 804979d:	8b 54 24 04          	mov    0x4(%esp),%edx
 80497a1:	8b 3c 24             	mov    (%esp),%edi
 80497a4:	8d 64 24 10          	lea    0x10(%esp),%esp
 80497a8:	83 c0 80             	add    $0xffffff80,%eax
 80497ab:	0f 85 d1 03 00 00    	jne    8049b82 <main+0x642>
 80497b1:	8d 76 00             	lea    0x0(%esi),%esi
 80497b4:	8d 64 24 f0          	lea    -0x10(%esp),%esp
 80497b8:	89 3c 24             	mov    %edi,(%esp)
 80497bb:	89 54 24 04          	mov    %edx,0x4(%esp)
 80497bf:	89 4c 24 08          	mov    %ecx,0x8(%esp)
 80497c3:	89 44 24 0c          	mov    %eax,0xc(%esp)
 80497c7:	b9 d7 a8 00 00       	mov    $0xa8d7,%ecx
 80497cc:	e8 87 ef 00 00       	call   8058758 <__afl_maybe_log>
 80497d1:	8b 44 24 0c          	mov    0xc(%esp),%eax
 80497d5:	8b 4c 24 08          	mov    0x8(%esp),%ecx
 80497d9:	8b 54 24 04          	mov    0x4(%esp),%edx
 80497dd:	8b 3c 24             	mov    (%esp),%edi
 80497e0:	8d 64 24 10          	lea    0x10(%esp),%esp
            break;
          case 'c':
            do_check = 1;
            break;
          case STATUS_OPTION:
            status_only = 1;
 80497e4:	c6 05 03 b3 06 08 01 	movb   $0x1,0x806b303
            warn = 0;
 80497eb:	c6 05 02 b3 06 08 00 	movb   $0x0,0x806b302
            quiet = 0;
 80497f2:	c6 05 01 b3 06 08 00 	movb   $0x0,0x806b301
            break;
 80497f9:	e9 fe fd ff ff       	jmp    80495fc <main+0xbc>
 80497fe:	66 90                	xchg   %ax,%ax
	report_label_coverage("ABS", 438);
}
if (temp_1)
                break;
        }
        switch (opt) {
 8049800:	3d 7e ff ff ff       	cmp    $0xffffff7e,%eax
 8049805:	0f 84 3b 03 00 00    	je     8049b46 <main+0x606>
 804980b:	90                   	nop
 804980c:	8d 64 24 f0          	lea    -0x10(%esp),%esp
 8049810:	89 3c 24             	mov    %edi,(%esp)
 8049813:	89 54 24 04          	mov    %edx,0x4(%esp)
 8049817:	89 4c 24 08          	mov    %ecx,0x8(%esp)
 804981b:	89 44 24 0c          	mov    %eax,0xc(%esp)
 804981f:	b9 18 a4 00 00       	mov    $0xa418,%ecx
 8049824:	e8 2f ef 00 00       	call   8058758 <__afl_maybe_log>
 8049829:	8b 44 24 0c          	mov    0xc(%esp),%eax
 804982d:	8b 4c 24 08          	mov    0x8(%esp),%ecx
 8049831:	8b 54 24 04          	mov    0x4(%esp),%edx
 8049835:	8b 3c 24             	mov    (%esp),%edi
 8049838:	8d 64 24 10          	lea    0x10(%esp),%esp
 804983c:	0f 8e 14 02 00 00    	jle    8049a56 <main+0x516>
 8049842:	66 90                	xchg   %ax,%ax
 8049844:	8d 64 24 f0          	lea    -0x10(%esp),%esp
 8049848:	89 3c 24             	mov    %edi,(%esp)
 804984b:	89 54 24 04          	mov    %edx,0x4(%esp)
 804984f:	89 4c 24 08          	mov    %ecx,0x8(%esp)
 8049853:	89 44 24 0c          	mov    %eax,0xc(%esp)
 8049857:	b9 67 e2 00 00       	mov    $0xe267,%ecx
 804985c:	e8 f7 ee 00 00       	call   8058758 <__afl_maybe_log>
 8049861:	8b 44 24 0c          	mov    0xc(%esp),%eax
 8049865:	8b 4c 24 08          	mov    0x8(%esp),%ecx
 8049869:	8b 54 24 04          	mov    0x4(%esp),%edx
 804986d:	8b 3c 24             	mov    (%esp),%edi
 8049870:	8d 64 24 10          	lea    0x10(%esp),%esp
 8049874:	83 f8 62             	cmp    $0x62,%eax
 8049877:	0f 84 4f 01 00 00    	je     80499cc <main+0x48c>
 804987d:	8d 76 00             	lea    0x0(%esi),%esi
 8049880:	8d 64 24 f0          	lea    -0x10(%esp),%esp
 8049884:	89 3c 24             	mov    %edi,(%esp)
 8049887:	89 54 24 04          	mov    %edx,0x4(%esp)
 804988b:	89 4c 24 08          	mov    %ecx,0x8(%esp)
 804988f:	89 44 24 0c          	mov    %eax,0xc(%esp)
 8049893:	b9 78 1a 00 00       	mov    $0x1a78,%ecx
 8049898:	e8 bb ee 00 00       	call   8058758 <__afl_maybe_log>
 804989d:	8b 44 24 0c          	mov    0xc(%esp),%eax
 80498a1:	8b 4c 24 08          	mov    0x8(%esp),%ecx
 80498a5:	8b 54 24 04          	mov    0x4(%esp),%edx
 80498a9:	8b 3c 24             	mov    (%esp),%edi
 80498ac:	8d 64 24 10          	lea    0x10(%esp),%esp
 80498b0:	83 f8 63             	cmp    $0x63,%eax
 80498b3:	0f 85 c9 02 00 00    	jne    8049b82 <main+0x642>
 80498b9:	8d 76 00             	lea    0x0(%esi),%esi
 80498bc:	8d 64 24 f0          	lea    -0x10(%esp),%esp
 80498c0:	89 3c 24             	mov    %edi,(%esp)
 80498c3:	89 54 24 04          	mov    %edx,0x4(%esp)
 80498c7:	89 4c 24 08          	mov    %ecx,0x8(%esp)
 80498cb:	89 44 24 0c          	mov    %eax,0xc(%esp)
 80498cf:	b9 0c 67 00 00       	mov    $0x670c,%ecx
 80498d4:	e8 7f ee 00 00       	call   8058758 <__afl_maybe_log>
 80498d9:	8b 44 24 0c          	mov    0xc(%esp),%eax
 80498dd:	8b 4c 24 08          	mov    0x8(%esp),%ecx
 80498e1:	8b 54 24 04          	mov    0x4(%esp),%edx
 80498e5:	8b 3c 24             	mov    (%esp),%edi
 80498e8:	8d 64 24 10          	lea    0x10(%esp),%esp
          case 'b':
            binary = 1;
            break;
          case 'c':
            do_check = 1;
 80498ec:	c6 85 7f ff ff ff 01 	movb   $0x1,-0x81(%ebp)
 80498f3:	e9 04 fd ff ff       	jmp    80495fc <main+0xbc>
 80498f8:	90                   	nop
 80498f9:	8d b4 26 00 00 00 00 	lea    0x0(%esi,%eiz,1),%esi
	report_label_coverage("ABS", 438);
}
if (temp_1)
                break;
        }
        switch (opt) {
 8049900:	3d 82 00 00 00       	cmp    $0x82,%eax
 8049905:	0f 84 83 00 00 00    	je     804998e <main+0x44e>
 804990b:	90                   	nop
 804990c:	8d 64 24 f0          	lea    -0x10(%esp),%esp
 8049910:	89 3c 24             	mov    %edi,(%esp)
 8049913:	89 54 24 04          	mov    %edx,0x4(%esp)
 8049917:	89 4c 24 08          	mov    %ecx,0x8(%esp)
 804991b:	89 44 24 0c          	mov    %eax,0xc(%esp)
 804991f:	b9 8b 91 00 00       	mov    $0x918b,%ecx
 8049924:	e8 2f ee 00 00       	call   8058758 <__afl_maybe_log>
 8049929:	8b 44 24 0c          	mov    0xc(%esp),%eax
 804992d:	8b 4c 24 08          	mov    0x8(%esp),%ecx
 8049931:	8b 54 24 04          	mov    0x4(%esp),%edx
 8049935:	8b 3c 24             	mov    (%esp),%edi
 8049938:	8d 64 24 10          	lea    0x10(%esp),%esp
 804993c:	3d 83 00 00 00       	cmp    $0x83,%eax
 8049941:	0f 85 3b 02 00 00    	jne    8049b82 <main+0x642>
 8049947:	90                   	nop
 8049948:	8d 64 24 f0          	lea    -0x10(%esp),%esp
 804994c:	89 3c 24             	mov    %edi,(%esp)
 804994f:	89 54 24 04          	mov    %edx,0x4(%esp)
 8049953:	89 4c 24 08          	mov    %ecx,0x8(%esp)
 8049957:	89 44 24 0c          	mov    %eax,0xc(%esp)
 804995b:	b9 f5 0c 00 00       	mov    $0xcf5,%ecx
 8049960:	e8 f3 ed 00 00       	call   8058758 <__afl_maybe_log>
 8049965:	8b 44 24 0c          	mov    0xc(%esp),%eax
 8049969:	8b 4c 24 08          	mov    0x8(%esp),%ecx
 804996d:	8b 54 24 04          	mov    0x4(%esp),%edx
 8049971:	8b 3c 24             	mov    (%esp),%edi
 8049974:	8d 64 24 10          	lea    0x10(%esp),%esp
            break;
          case STRICT_OPTION:
            strict = 1;
            break;
          case TAG_OPTION:
            prefix_tag = 1;
 8049978:	c6 85 7e ff ff ff 01 	movb   $0x1,-0x82(%ebp)
            binary = 1;
 804997f:	c7 85 74 ff ff ff 01 	movl   $0x1,-0x8c(%ebp)
 8049986:	00 00 00 
            break;
 8049989:	e9 6e fc ff ff       	jmp    80495fc <main+0xbc>
 804998e:	66 90                	xchg   %ax,%ax
            status_only = 0;
            warn = 0;
            quiet = 1;
            break;
          case STRICT_OPTION:
            strict = 1;
 8049990:	8d 64 24 f0          	lea    -0x10(%esp),%esp
 8049994:	89 3c 24             	mov    %edi,(%esp)
 8049997:	89 54 24 04          	mov    %edx,0x4(%esp)
 804999b:	89 4c 24 08          	mov    %ecx,0x8(%esp)
 804999f:	89 44 24 0c          	mov    %eax,0xc(%esp)
 80499a3:	b9 b8 0a 00 00       	mov    $0xab8,%ecx
 80499a8:	e8 ab ed 00 00       	call   8058758 <__afl_maybe_log>
 80499ad:	8b 44 24 0c          	mov    0xc(%esp),%eax
 80499b1:	8b 4c 24 08          	mov    0x8(%esp),%ecx
 80499b5:	8b 54 24 04          	mov    0x4(%esp),%edx
 80499b9:	8b 3c 24             	mov    (%esp),%edi
 80499bc:	8d 64 24 10          	lea    0x10(%esp),%esp
 80499c0:	c6 05 00 b3 06 08 01 	movb   $0x1,0x806b300
            break;
 80499c7:	e9 30 fc ff ff       	jmp    80495fc <main+0xbc>
if (temp_1)
                break;
        }
        switch (opt) {
          case 'b':
            binary = 1;
 80499cc:	8d 64 24 f0          	lea    -0x10(%esp),%esp
 80499d0:	89 3c 24             	mov    %edi,(%esp)
 80499d3:	89 54 24 04          	mov    %edx,0x4(%esp)
 80499d7:	89 4c 24 08          	mov    %ecx,0x8(%esp)
 80499db:	89 44 24 0c          	mov    %eax,0xc(%esp)
 80499df:	b9 8e 21 00 00       	mov    $0x218e,%ecx
 80499e4:	e8 6f ed 00 00       	call   8058758 <__afl_maybe_log>
 80499e9:	8b 44 24 0c          	mov    0xc(%esp),%eax
 80499ed:	8b 4c 24 08          	mov    0x8(%esp),%ecx
 80499f1:	8b 54 24 04          	mov    0x4(%esp),%edx
 80499f5:	8b 3c 24             	mov    (%esp),%edi
 80499f8:	8d 64 24 10          	lea    0x10(%esp),%esp
 80499fc:	c7 85 74 ff ff ff 01 	movl   $0x1,-0x8c(%ebp)
 8049a03:	00 00 00 
 8049a06:	e9 f1 fb ff ff       	jmp    80495fc <main+0xbc>
 8049a0b:	90                   	nop
            break;
          case 't':
            binary = 0;
            break;
          case 'w':
            status_only = 0;
 8049a0c:	8d 64 24 f0          	lea    -0x10(%esp),%esp
 8049a10:	89 3c 24             	mov    %edi,(%esp)
 8049a13:	89 54 24 04          	mov    %edx,0x4(%esp)
 8049a17:	89 4c 24 08          	mov    %ecx,0x8(%esp)
 8049a1b:	89 44 24 0c          	mov    %eax,0xc(%esp)
 8049a1f:	b9 b2 e1 00 00       	mov    $0xe1b2,%ecx
 8049a24:	e8 2f ed 00 00       	call   8058758 <__afl_maybe_log>
 8049a29:	8b 44 24 0c          	mov    0xc(%esp),%eax
 8049a2d:	8b 4c 24 08          	mov    0x8(%esp),%ecx
 8049a31:	8b 54 24 04          	mov    0x4(%esp),%edx
 8049a35:	8b 3c 24             	mov    (%esp),%edi
 8049a38:	8d 64 24 10          	lea    0x10(%esp),%esp
 8049a3c:	c6 05 03 b3 06 08 00 	movb   $0x0,0x806b303
            warn = 1;
 8049a43:	c6 05 02 b3 06 08 01 	movb   $0x1,0x806b302
            quiet = 0;
 8049a4a:	c6 05 01 b3 06 08 00 	movb   $0x0,0x806b301
            break;
 8049a51:	e9 a6 fb ff ff       	jmp    80495fc <main+0xbc>
 8049a56:	66 90                	xchg   %ax,%ax
	report_label_coverage("ABS", 438);
}
if (temp_1)
                break;
        }
        switch (opt) {
 8049a58:	8d 64 24 f0          	lea    -0x10(%esp),%esp
 8049a5c:	89 3c 24             	mov    %edi,(%esp)
 8049a5f:	89 54 24 04          	mov    %edx,0x4(%esp)
 8049a63:	89 4c 24 08          	mov    %ecx,0x8(%esp)
 8049a67:	89 44 24 0c          	mov    %eax,0xc(%esp)
 8049a6b:	b9 f3 ff 00 00       	mov    $0xfff3,%ecx
 8049a70:	e8 e3 ec 00 00       	call   8058758 <__afl_maybe_log>
 8049a75:	8b 44 24 0c          	mov    0xc(%esp),%eax
 8049a79:	8b 4c 24 08          	mov    0x8(%esp),%ecx
 8049a7d:	8b 54 24 04          	mov    0x4(%esp),%edx
 8049a81:	8b 3c 24             	mov    (%esp),%edi
 8049a84:	8d 64 24 10          	lea    0x10(%esp),%esp
 8049a88:	3d 7d ff ff ff       	cmp    $0xffffff7d,%eax
 8049a8d:	0f 85 ef 00 00 00    	jne    8049b82 <main+0x642>
 8049a93:	90                   	nop
 8049a94:	8d 64 24 f0          	lea    -0x10(%esp),%esp
 8049a98:	89 3c 24             	mov    %edi,(%esp)
 8049a9b:	89 54 24 04          	mov    %edx,0x4(%esp)
 8049a9f:	89 4c 24 08          	mov    %ecx,0x8(%esp)
 8049aa3:	89 44 24 0c          	mov    %eax,0xc(%esp)
 8049aa7:	b9 62 37 00 00       	mov    $0x3762,%ecx
 8049aac:	e8 a7 ec 00 00       	call   8058758 <__afl_maybe_log>
 8049ab1:	8b 44 24 0c          	mov    0xc(%esp),%eax
 8049ab5:	8b 4c 24 08          	mov    0x8(%esp),%ecx
 8049ab9:	8b 54 24 04          	mov    0x4(%esp),%edx
 8049abd:	8b 3c 24             	mov    (%esp),%edi
 8049ac0:	8d 64 24 10          	lea    0x10(%esp),%esp
          case TAG_OPTION:
            prefix_tag = 1;
            binary = 1;
            break;
          case_GETOPT_HELP_CHAR;
      	  case_GETOPT_VERSION_CHAR (PROGRAM_NAME, AUTHORS);
 8049ac4:	6a 00                	push   $0x0
 8049ac6:	68 9b 71 06 08       	push   $0x806719b
 8049acb:	68 a8 71 06 08       	push   $0x80671a8
 8049ad0:	68 b5 71 06 08       	push   $0x80671b5
 8049ad5:	ff 35 4c b2 06 08    	pushl  0x806b24c
 8049adb:	68 6c 71 06 08       	push   $0x806716c
 8049ae0:	68 e4 70 06 08       	push   $0x80670e4
 8049ae5:	ff 35 d8 b2 06 08    	pushl  0x806b2d8
 8049aeb:	e8 90 95 01 00       	call   8063080 <version_etc>
 8049af0:	83 c4 14             	add    $0x14,%esp
 8049af3:	6a 00                	push   $0x0
 8049af5:	e8 06 f8 ff ff       	call   8049300 <exit@plt>
 8049afa:	66 90                	xchg   %ax,%ax
            status_only = 0;
            warn = 1;
            quiet = 0;
            break;
          case QUIET_OPTION:
            status_only = 0;
 8049afc:	8d 64 24 f0          	lea    -0x10(%esp),%esp
 8049b00:	89 3c 24             	mov    %edi,(%esp)
 8049b03:	89 54 24 04          	mov    %edx,0x4(%esp)
 8049b07:	89 4c 24 08          	mov    %ecx,0x8(%esp)
 8049b0b:	89 44 24 0c          	mov    %eax,0xc(%esp)
 8049b0f:	b9 73 c1 00 00       	mov    $0xc173,%ecx
 8049b14:	e8 3f ec 00 00       	call   8058758 <__afl_maybe_log>
 8049b19:	8b 44 24 0c          	mov    0xc(%esp),%eax
 8049b1d:	8b 4c 24 08          	mov    0x8(%esp),%ecx
 8049b21:	8b 54 24 04          	mov    0x4(%esp),%edx
 8049b25:	8b 3c 24             	mov    (%esp),%edi
 8049b28:	8d 64 24 10          	lea    0x10(%esp),%esp
 8049b2c:	c6 05 03 b3 06 08 00 	movb   $0x0,0x806b303
            warn = 0;
 8049b33:	c6 05 02 b3 06 08 00 	movb   $0x0,0x806b302
            quiet = 1;
 8049b3a:	c6 05 01 b3 06 08 01 	movb   $0x1,0x806b301
            break;
 8049b41:	e9 b6 fa ff ff       	jmp    80495fc <main+0xbc>
 8049b46:	66 90                	xchg   %ax,%ax
            break;
          case TAG_OPTION:
            prefix_tag = 1;
            binary = 1;
            break;
          case_GETOPT_HELP_CHAR;
 8049b48:	8d 64 24 f0          	lea    -0x10(%esp),%esp
 8049b4c:	89 3c 24             	mov    %edi,(%esp)
 8049b4f:	89 54 24 04          	mov    %edx,0x4(%esp)
 8049b53:	89 4c 24 08          	mov    %ecx,0x8(%esp)
 8049b57:	89 44 24 0c          	mov    %eax,0xc(%esp)
 8049b5b:	b9 32 c4 00 00       	mov    $0xc432,%ecx
 8049b60:	e8 f3 eb 00 00       	call   8058758 <__afl_maybe_log>
 8049b65:	8b 44 24 0c          	mov    0xc(%esp),%eax
 8049b69:	8b 4c 24 08          	mov    0x8(%esp),%ecx
 8049b6d:	8b 54 24 04          	mov    0x4(%esp),%edx
 8049b71:	8b 3c 24             	mov    (%esp),%edi
 8049b74:	8d 64 24 10          	lea    0x10(%esp),%esp
 8049b78:	83 ec 0c             	sub    $0xc,%esp
 8049b7b:	6a 00                	push   $0x0
 8049b7d:	e8 4e e2 00 00       	call   8057dd0 <usage>
 8049b82:	66 90                	xchg   %ax,%ax
      	  case_GETOPT_VERSION_CHAR (PROGRAM_NAME, AUTHORS);
          default:
            usage(1);
 8049b84:	8d 64 24 f0          	lea    -0x10(%esp),%esp
 8049b88:	89 3c 24             	mov    %edi,(%esp)
 8049b8b:	89 54 24 04          	mov    %edx,0x4(%esp)
 8049b8f:	89 4c 24 08          	mov    %ecx,0x8(%esp)
 8049b93:	89 44 24 0c          	mov    %eax,0xc(%esp)
 8049b97:	b9 e5 fa 00 00       	mov    $0xfae5,%ecx
 8049b9c:	e8 b7 eb 00 00       	call   8058758 <__afl_maybe_log>
 8049ba1:	8b 44 24 0c          	mov    0xc(%esp),%eax
 8049ba5:	8b 4c 24 08          	mov    0x8(%esp),%ecx
 8049ba9:	8b 54 24 04          	mov    0x4(%esp),%edx
 8049bad:	8b 3c 24             	mov    (%esp),%edi
 8049bb0:	8d 64 24 10          	lea    0x10(%esp),%esp
 8049bb4:	83 ec 0c             	sub    $0xc,%esp
 8049bb7:	6a 01                	push   $0x1
 8049bb9:	e8 12 e2 00 00       	call   8057dd0 <usage>
 8049bbe:	66 90                	xchg   %ax,%ax
            status_only = 1;
            warn = 0;
            quiet = 0;
            break;
          case 't':
            binary = 0;
 8049bc0:	8d 64 24 f0          	lea    -0x10(%esp),%esp
 8049bc4:	89 3c 24             	mov    %edi,(%esp)
 8049bc7:	89 54 24 04          	mov    %edx,0x4(%esp)
 8049bcb:	89 4c 24 08          	mov    %ecx,0x8(%esp)
 8049bcf:	89 44 24 0c          	mov    %eax,0xc(%esp)
 8049bd3:	b9 ae b4 00 00       	mov    $0xb4ae,%ecx
 8049bd8:	e8 7b eb 00 00       	call   8058758 <__afl_maybe_log>
 8049bdd:	8b 44 24 0c          	mov    0xc(%esp),%eax
 8049be1:	8b 4c 24 08          	mov    0x8(%esp),%ecx
 8049be5:	8b 54 24 04          	mov    0x4(%esp),%edx
 8049be9:	8b 3c 24             	mov    (%esp),%edi
 8049bec:	8d 64 24 10          	lea    0x10(%esp),%esp
 8049bf0:	c7 85 74 ff ff ff 00 	movl   $0x0,-0x8c(%ebp)
 8049bf7:	00 00 00 
            break;
 8049bfa:	e9 fd f9 ff ff       	jmp    80495fc <main+0xbc>
 8049bff:	90                   	nop
  min_digest_line_length = MIN_DIGEST_LINE_LENGTH;
  digest_hex_bytes = DIGEST_HEX_BYTES;

  
// COR Label 439
if((prefix_tag || !binary) != (prefix_tag && !binary))  {asm volatile (""::: "memory");
 8049c00:	8d 64 24 f0          	lea    -0x10(%esp),%esp
 8049c04:	89 3c 24             	mov    %edi,(%esp)
 8049c07:	89 54 24 04          	mov    %edx,0x4(%esp)
 8049c0b:	89 4c 24 08          	mov    %ecx,0x8(%esp)
 8049c0f:	89 44 24 0c          	mov    %eax,0xc(%esp)
 8049c13:	b9 22 11 00 00       	mov    $0x1122,%ecx
 8049c18:	e8 3b eb 00 00       	call   8058758 <__afl_maybe_log>
 8049c1d:	8b 44 24 0c          	mov    0xc(%esp),%eax
 8049c21:	8b 4c 24 08          	mov    0x8(%esp),%ecx
 8049c25:	8b 54 24 04          	mov    0x4(%esp),%edx
 8049c29:	8b 3c 24             	mov    (%esp),%edi
 8049c2c:	8d 64 24 10          	lea    0x10(%esp),%esp
 8049c30:	83 bd 74 ff ff ff 00 	cmpl   $0x0,-0x8c(%ebp)
 8049c37:	0f b6 8d 7e ff ff ff 	movzbl -0x82(%ebp),%ecx
            usage(1);
        }
    };


  min_digest_line_length = MIN_DIGEST_LINE_LENGTH;
 8049c3e:	c7 05 08 b3 06 08 22 	movl   $0x22,0x806b308
 8049c45:	00 00 00 
  digest_hex_bytes = DIGEST_HEX_BYTES;
 8049c48:	c7 05 04 b3 06 08 20 	movl   $0x20,0x806b304
 8049c4f:	00 00 00 

  
// COR Label 439
if((prefix_tag || !binary) != (prefix_tag && !binary))  {asm volatile (""::: "memory");
 8049c52:	0f 94 c3             	sete   %bl
 8049c55:	89 de                	mov    %ebx,%esi
 8049c57:	89 cb                	mov    %ecx,%ebx
 8049c59:	21 f3                	and    %esi,%ebx
 8049c5b:	09 f1                	or     %esi,%ecx
 8049c5d:	38 d9                	cmp    %bl,%cl
 8049c5f:	74 47                	je     8049ca8 <main+0x768>
 8049c61:	8d 76 00             	lea    0x0(%esi),%esi
 8049c64:	8d 64 24 f0          	lea    -0x10(%esp),%esp
 8049c68:	89 3c 24             	mov    %edi,(%esp)
 8049c6b:	89 54 24 04          	mov    %edx,0x4(%esp)
 8049c6f:	89 4c 24 08          	mov    %ecx,0x8(%esp)
 8049c73:	89 44 24 0c          	mov    %eax,0xc(%esp)
 8049c77:	b9 91 2c 00 00       	mov    $0x2c91,%ecx
 8049c7c:	e8 d7 ea 00 00       	call   8058758 <__afl_maybe_log>
 8049c81:	8b 44 24 0c          	mov    0xc(%esp),%eax
 8049c85:	8b 4c 24 08          	mov    0x8(%esp),%ecx
 8049c89:	8b 54 24 04          	mov    0x4(%esp),%edx
 8049c8d:	8b 3c 24             	mov    (%esp),%edi
 8049c90:	8d 64 24 10          	lea    0x10(%esp),%esp
	report_label_coverage("COR", 439);
 8049c94:	50                   	push   %eax
 8049c95:	50                   	push   %eax
 8049c96:	68 b7 01 00 00       	push   $0x1b7
 8049c9b:	68 da 70 06 08       	push   $0x80670da
 8049ca0:	e8 1b c4 00 00       	call   80560c0 <report_label_coverage>
 8049ca5:	83 c4 10             	add    $0x10,%esp
}

// MCC Label 440
if(prefix_tag && !binary ) {asm volatile (""::: "memory");
 8049ca8:	8d 64 24 f0          	lea    -0x10(%esp),%esp
 8049cac:	89 3c 24             	mov    %edi,(%esp)
 8049caf:	89 54 24 04          	mov    %edx,0x4(%esp)
 8049cb3:	89 4c 24 08          	mov    %ecx,0x8(%esp)
 8049cb7:	89 44 24 0c          	mov    %eax,0xc(%esp)
 8049cbb:	b9 4b 46 00 00       	mov    $0x464b,%ecx
 8049cc0:	e8 93 ea 00 00       	call   8058758 <__afl_maybe_log>
 8049cc5:	8b 44 24 0c          	mov    0xc(%esp),%eax
 8049cc9:	8b 4c 24 08          	mov    0x8(%esp),%ecx
 8049ccd:	8b 54 24 04          	mov    0x4(%esp),%edx
 8049cd1:	8b 3c 24             	mov    (%esp),%edi
 8049cd4:	8d 64 24 10          	lea    0x10(%esp),%esp
 8049cd8:	84 db                	test   %bl,%bl
 8049cda:	0f 85 15 b0 00 00    	jne    8054cf5 <main+0xb7b5>
 8049ce0:	8d 64 24 f0          	lea    -0x10(%esp),%esp
 8049ce4:	89 3c 24             	mov    %edi,(%esp)
 8049ce7:	89 54 24 04          	mov    %edx,0x4(%esp)
 8049ceb:	89 4c 24 08          	mov    %ecx,0x8(%esp)
 8049cef:	89 44 24 0c          	mov    %eax,0xc(%esp)
 8049cf3:	b9 ec e0 00 00       	mov    $0xe0ec,%ecx
 8049cf8:	e8 5b ea 00 00       	call   8058758 <__afl_maybe_log>
 8049cfd:	8b 44 24 0c          	mov    0xc(%esp),%eax
 8049d01:	8b 4c 24 08          	mov    0x8(%esp),%ecx
 8049d05:	8b 54 24 04          	mov    0x4(%esp),%edx
 8049d09:	8b 3c 24             	mov    (%esp),%edi
 8049d0c:	8d 64 24 10          	lea    0x10(%esp),%esp
	report_label_coverage("MCC", 440);
}
// MCC Label 441
if(prefix_tag && !(!binary) ) {asm volatile (""::: "memory");
 8049d10:	8d 64 24 f0          	lea    -0x10(%esp),%esp
 8049d14:	89 3c 24             	mov    %edi,(%esp)
 8049d17:	89 54 24 04          	mov    %edx,0x4(%esp)
 8049d1b:	89 4c 24 08          	mov    %ecx,0x8(%esp)
 8049d1f:	89 44 24 0c          	mov    %eax,0xc(%esp)
 8049d23:	b9 c5 8c 00 00       	mov    $0x8cc5,%ecx
 8049d28:	e8 2b ea 00 00       	call   8058758 <__afl_maybe_log>
 8049d2d:	8b 44 24 0c          	mov    0xc(%esp),%eax
 8049d31:	8b 4c 24 08          	mov    0x8(%esp),%ecx
 8049d35:	8b 54 24 04          	mov    0x4(%esp),%edx
 8049d39:	8b 3c 24             	mov    (%esp),%edi
 8049d3c:	8d 64 24 10          	lea    0x10(%esp),%esp
 8049d40:	83 bd 74 ff ff ff 00 	cmpl   $0x0,-0x8c(%ebp)
 8049d47:	0f 95 c0             	setne  %al
 8049d4a:	74 70                	je     8049dbc <main+0x87c>
 8049d4c:	8d 64 24 f0          	lea    -0x10(%esp),%esp
 8049d50:	89 3c 24             	mov    %edi,(%esp)
 8049d53:	89 54 24 04          	mov    %edx,0x4(%esp)
 8049d57:	89 4c 24 08          	mov    %ecx,0x8(%esp)
 8049d5b:	89 44 24 0c          	mov    %eax,0xc(%esp)
 8049d5f:	b9 4a 69 00 00       	mov    $0x694a,%ecx
 8049d64:	e8 ef e9 00 00       	call   8058758 <__afl_maybe_log>
 8049d69:	8b 44 24 0c          	mov    0xc(%esp),%eax
 8049d6d:	8b 4c 24 08          	mov    0x8(%esp),%ecx
 8049d71:	8b 54 24 04          	mov    0x4(%esp),%edx
 8049d75:	8b 3c 24             	mov    (%esp),%edi
 8049d78:	8d 64 24 10          	lea    0x10(%esp),%esp
 8049d7c:	80 bd 7e ff ff ff 00 	cmpb   $0x0,-0x82(%ebp)
 8049d83:	0f 85 08 27 00 00    	jne    804c491 <main+0x2f51>
 8049d89:	8d 76 00             	lea    0x0(%esi),%esi
 8049d8c:	8d 64 24 f0          	lea    -0x10(%esp),%esp
 8049d90:	89 3c 24             	mov    %edi,(%esp)
 8049d93:	89 54 24 04          	mov    %edx,0x4(%esp)
 8049d97:	89 4c 24 08          	mov    %ecx,0x8(%esp)
 8049d9b:	89 44 24 0c          	mov    %eax,0xc(%esp)
 8049d9f:	b9 c0 06 00 00       	mov    $0x6c0,%ecx
 8049da4:	e8 af e9 00 00       	call   8058758 <__afl_maybe_log>
 8049da9:	8b 44 24 0c          	mov    0xc(%esp),%eax
 8049dad:	8b 4c 24 08          	mov    0x8(%esp),%ecx
 8049db1:	8b 54 24 04          	mov    0x4(%esp),%edx
 8049db5:	8b 3c 24             	mov    (%esp),%edi
 8049db8:	8d 64 24 10          	lea    0x10(%esp),%esp
	report_label_coverage("MCC", 441);
}
// MCC Label 442
if(!(prefix_tag) && !binary ) {asm volatile (""::: "memory");
 8049dbc:	8d 64 24 f0          	lea    -0x10(%esp),%esp
 8049dc0:	89 3c 24             	mov    %edi,(%esp)
 8049dc3:	89 54 24 04          	mov    %edx,0x4(%esp)
 8049dc7:	89 4c 24 08          	mov    %ecx,0x8(%esp)
 8049dcb:	89 44 24 0c          	mov    %eax,0xc(%esp)
 8049dcf:	b9 8d 10 00 00       	mov    $0x108d,%ecx
 8049dd4:	e8 7f e9 00 00       	call   8058758 <__afl_maybe_log>
 8049dd9:	8b 44 24 0c          	mov    0xc(%esp),%eax
 8049ddd:	8b 4c 24 08          	mov    0x8(%esp),%ecx
 8049de1:	8b 54 24 04          	mov    0x4(%esp),%edx
 8049de5:	8b 3c 24             	mov    (%esp),%edi
 8049de8:	8d 64 24 10          	lea    0x10(%esp),%esp
 8049dec:	89 f2                	mov    %esi,%edx
 8049dee:	3a 95 7e ff ff ff    	cmp    -0x82(%ebp),%dl
 8049df4:	0f 87 2f 27 00 00    	ja     804c529 <main+0x2fe9>
 8049dfa:	66 90                	xchg   %ax,%ax
 8049dfc:	8d 64 24 f0          	lea    -0x10(%esp),%esp
 8049e00:	89 3c 24             	mov    %edi,(%esp)
 8049e03:	89 54 24 04          	mov    %edx,0x4(%esp)
 8049e07:	89 4c 24 08          	mov    %ecx,0x8(%esp)
 8049e0b:	89 44 24 0c          	mov    %eax,0xc(%esp)
 8049e0f:	b9 da f7 00 00       	mov    $0xf7da,%ecx
 8049e14:	e8 3f e9 00 00       	call   8058758 <__afl_maybe_log>
 8049e19:	8b 44 24 0c          	mov    0xc(%esp),%eax
 8049e1d:	8b 4c 24 08          	mov    0x8(%esp),%ecx
 8049e21:	8b 54 24 04          	mov    0x4(%esp),%edx
 8049e25:	8b 3c 24             	mov    (%esp),%edi
 8049e28:	8d 64 24 10          	lea    0x10(%esp),%esp
	report_label_coverage("MCC", 442);
}
// MCC Label 443
if(!(prefix_tag) && !(!binary) ) {asm volatile (""::: "memory");
 8049e2c:	8d 64 24 f0          	lea    -0x10(%esp),%esp
 8049e30:	89 3c 24             	mov    %edi,(%esp)
 8049e33:	89 54 24 04          	mov    %edx,0x4(%esp)
 8049e37:	89 4c 24 08          	mov    %ecx,0x8(%esp)
 8049e3b:	89 44 24 0c          	mov    %eax,0xc(%esp)
 8049e3f:	b9 da fc 00 00       	mov    $0xfcda,%ecx
 8049e44:	e8 0f e9 00 00       	call   8058758 <__afl_maybe_log>
 8049e49:	8b 44 24 0c          	mov    0xc(%esp),%eax
 8049e4d:	8b 4c 24 08          	mov    0x8(%esp),%ecx
 8049e51:	8b 54 24 04          	mov    0x4(%esp),%edx
 8049e55:	8b 3c 24             	mov    (%esp),%edi
 8049e58:	8d 64 24 10          	lea    0x10(%esp),%esp
 8049e5c:	3a 85 7e ff ff ff    	cmp    -0x82(%ebp),%al
 8049e62:	0f 87 75 26 00 00    	ja     804c4dd <main+0x2f9d>
 8049e68:	8d 64 24 f0          	lea    -0x10(%esp),%esp
 8049e6c:	89 3c 24             	mov    %edi,(%esp)
 8049e6f:	89 54 24 04          	mov    %edx,0x4(%esp)
 8049e73:	89 4c 24 08          	mov    %ecx,0x8(%esp)
 8049e77:	89 44 24 0c          	mov    %eax,0xc(%esp)
 8049e7b:	b9 f3 bd 00 00       	mov    $0xbdf3,%ecx
 8049e80:	e8 d3 e8 00 00       	call   8058758 <__afl_maybe_log>
 8049e85:	8b 44 24 0c          	mov    0xc(%esp),%eax
 8049e89:	8b 4c 24 08          	mov    0x8(%esp),%ecx
 8049e8d:	8b 54 24 04          	mov    0x4(%esp),%edx
 8049e91:	8b 3c 24             	mov    (%esp),%edi
 8049e94:	8d 64 24 10          	lea    0x10(%esp),%esp
	report_label_coverage("MCC", 443);
}
if (prefix_tag && !binary)
 8049e98:	8d 64 24 f0          	lea    -0x10(%esp),%esp
 8049e9c:	89 3c 24             	mov    %edi,(%esp)
 8049e9f:	89 54 24 04          	mov    %edx,0x4(%esp)
 8049ea3:	89 4c 24 08          	mov    %ecx,0x8(%esp)
 8049ea7:	89 44 24 0c          	mov    %eax,0xc(%esp)
 8049eab:	b9 4f d8 00 00       	mov    $0xd84f,%ecx
 8049eb0:	e8 a3 e8 00 00       	call   8058758 <__afl_maybe_log>
 8049eb5:	8b 44 24 0c          	mov    0xc(%esp),%eax
 8049eb9:	8b 4c 24 08          	mov    0x8(%esp),%ecx
 8049ebd:	8b 54 24 04          	mov    0x4(%esp),%edx
 8049ec1:	8b 3c 24             	mov    (%esp),%edi
 8049ec4:	8d 64 24 10          	lea    0x10(%esp),%esp
 8049ec8:	84 db                	test   %bl,%bl
 8049eca:	0f 85 75 c0 00 00    	jne    8055f45 <main+0xca05>
 8049ed0:	8d 64 24 f0          	lea    -0x10(%esp),%esp
 8049ed4:	89 3c 24             	mov    %edi,(%esp)
 8049ed7:	89 54 24 04          	mov    %edx,0x4(%esp)
 8049edb:	89 4c 24 08          	mov    %ecx,0x8(%esp)
 8049edf:	89 44 24 0c          	mov    %eax,0xc(%esp)
 8049ee3:	b9 0f 49 00 00       	mov    $0x490f,%ecx
 8049ee8:	e8 6b e8 00 00       	call   8058758 <__afl_maybe_log>
 8049eed:	8b 44 24 0c          	mov    0xc(%esp),%eax
 8049ef1:	8b 4c 24 08          	mov    0x8(%esp),%ecx
 8049ef5:	8b 54 24 04          	mov    0x4(%esp),%edx
 8049ef9:	8b 3c 24             	mov    (%esp),%edi
 8049efc:	8d 64 24 10          	lea    0x10(%esp),%esp
     usage (EXIT_FAILURE);
   }

  
// COR Label 444
if((prefix_tag || do_check) != (prefix_tag && do_check))  {asm volatile (""::: "memory");
 8049f00:	0f b6 95 7f ff ff ff 	movzbl -0x81(%ebp),%edx
 8049f07:	0f b6 8d 7e ff ff ff 	movzbl -0x82(%ebp),%ecx
 8049f0e:	89 d3                	mov    %edx,%ebx
 8049f10:	09 ca                	or     %ecx,%edx
 8049f12:	21 cb                	and    %ecx,%ebx
 8049f14:	38 da                	cmp    %bl,%dl
 8049f16:	74 44                	je     8049f5c <main+0xa1c>
 8049f18:	8d 64 24 f0          	lea    -0x10(%esp),%esp
 8049f1c:	89 3c 24             	mov    %edi,(%esp)
 8049f1f:	89 54 24 04          	mov    %edx,0x4(%esp)
 8049f23:	89 4c 24 08          	mov    %ecx,0x8(%esp)
 8049f27:	89 44 24 0c          	mov    %eax,0xc(%esp)
 8049f2b:	b9 76 9a 00 00       	mov    $0x9a76,%ecx
 8049f30:	e8 23 e8 00 00       	call   8058758 <__afl_maybe_log>
 8049f35:	8b 44 24 0c          	mov    0xc(%esp),%eax
 8049f39:	8b 4c 24 08          	mov    0x8(%esp),%ecx
 8049f3d:	8b 54 24 04          	mov    0x4(%esp),%edx
 8049f41:	8b 3c 24             	mov    (%esp),%edi
 8049f44:	8d 64 24 10          	lea    0x10(%esp),%esp
	report_label_coverage("COR", 444);
 8049f48:	51                   	push   %ecx
 8049f49:	51                   	push   %ecx
 8049f4a:	68 bc 01 00 00       	push   $0x1bc
 8049f4f:	68 da 70 06 08       	push   $0x80670da
 8049f54:	e8 67 c1 00 00       	call   80560c0 <report_label_coverage>
 8049f59:	83 c4 10             	add    $0x10,%esp
}

// MCC Label 445
if(prefix_tag && do_check ) {asm volatile (""::: "memory");
 8049f5c:	8d 64 24 f0          	lea    -0x10(%esp),%esp
 8049f60:	89 3c 24             	mov    %edi,(%esp)
 8049f63:	89 54 24 04          	mov    %edx,0x4(%esp)
 8049f67:	89 4c 24 08          	mov    %ecx,0x8(%esp)
 8049f6b:	89 44 24 0c          	mov    %eax,0xc(%esp)
 8049f6f:	b9 8b 09 00 00       	mov    $0x98b,%ecx
 8049f74:	e8 df e7 00 00       	call   8058758 <__afl_maybe_log>
 8049f79:	8b 44 24 0c          	mov    0xc(%esp),%eax
 8049f7d:	8b 4c 24 08          	mov    0x8(%esp),%ecx
 8049f81:	8b 54 24 04          	mov    0x4(%esp),%edx
 8049f85:	8b 3c 24             	mov    (%esp),%edi
 8049f88:	8d 64 24 10          	lea    0x10(%esp),%esp
 8049f8c:	84 db                	test   %bl,%bl
 8049f8e:	0f 85 15 ad 00 00    	jne    8054ca9 <main+0xb769>
 8049f94:	8d 64 24 f0          	lea    -0x10(%esp),%esp
 8049f98:	89 3c 24             	mov    %edi,(%esp)
 8049f9b:	89 54 24 04          	mov    %edx,0x4(%esp)
 8049f9f:	89 4c 24 08          	mov    %ecx,0x8(%esp)
 8049fa3:	89 44 24 0c          	mov    %eax,0xc(%esp)
 8049fa7:	b9 1e 8e 00 00       	mov    $0x8e1e,%ecx
 8049fac:	e8 a7 e7 00 00       	call   8058758 <__afl_maybe_log>
 8049fb1:	8b 44 24 0c          	mov    0xc(%esp),%eax
 8049fb5:	8b 4c 24 08          	mov    0x8(%esp),%ecx
 8049fb9:	8b 54 24 04          	mov    0x4(%esp),%edx
 8049fbd:	8b 3c 24             	mov    (%esp),%edi
 8049fc0:	8d 64 24 10          	lea    0x10(%esp),%esp
	report_label_coverage("MCC", 445);
}
// MCC Label 446
if(prefix_tag && !(do_check) ) {asm volatile (""::: "memory");
 8049fc4:	0f b6 85 7f ff ff ff 	movzbl -0x81(%ebp),%eax
 8049fcb:	38 85 7e ff ff ff    	cmp    %al,-0x82(%ebp)
 8049fd1:	0f 87 6e 24 00 00    	ja     804c445 <main+0x2f05>
 8049fd7:	90                   	nop
 8049fd8:	8d 64 24 f0          	lea    -0x10(%esp),%esp
 8049fdc:	89 3c 24             	mov    %edi,(%esp)
 8049fdf:	89 54 24 04          	mov    %edx,0x4(%esp)
 8049fe3:	89 4c 24 08          	mov    %ecx,0x8(%esp)
 8049fe7:	89 44 24 0c          	mov    %eax,0xc(%esp)
 8049feb:	b9 f7 7a 00 00       	mov    $0x7af7,%ecx
 8049ff0:	e8 63 e7 00 00       	call   8058758 <__afl_maybe_log>
 8049ff5:	8b 44 24 0c          	mov    0xc(%esp),%eax
 8049ff9:	8b 4c 24 08          	mov    0x8(%esp),%ecx
 8049ffd:	8b 54 24 04          	mov    0x4(%esp),%edx
 804a001:	8b 3c 24             	mov    (%esp),%edi
 804a004:	8d 64 24 10          	lea    0x10(%esp),%esp
	report_label_coverage("MCC", 446);
}
// MCC Label 447
if(!(prefix_tag) && do_check ) {asm volatile (""::: "memory");
 804a008:	8d 64 24 f0          	lea    -0x10(%esp),%esp
 804a00c:	89 3c 24             	mov    %edi,(%esp)
 804a00f:	89 54 24 04          	mov    %edx,0x4(%esp)
 804a013:	89 4c 24 08          	mov    %ecx,0x8(%esp)
 804a017:	89 44 24 0c          	mov    %eax,0xc(%esp)
 804a01b:	b9 8c 94 00 00       	mov    $0x948c,%ecx
 804a020:	e8 33 e7 00 00       	call   8058758 <__afl_maybe_log>
 804a025:	8b 44 24 0c          	mov    0xc(%esp),%eax
 804a029:	8b 4c 24 08          	mov    0x8(%esp),%ecx
 804a02d:	8b 54 24 04          	mov    0x4(%esp),%edx
 804a031:	8b 3c 24             	mov    (%esp),%edi
 804a034:	8d 64 24 10          	lea    0x10(%esp),%esp
 804a038:	0f b6 95 7f ff ff ff 	movzbl -0x81(%ebp),%edx
 804a03f:	38 95 7e ff ff ff    	cmp    %dl,-0x82(%ebp)
 804a045:	0f 82 ae 23 00 00    	jb     804c3f9 <main+0x2eb9>
 804a04b:	90                   	nop
 804a04c:	8d 64 24 f0          	lea    -0x10(%esp),%esp
 804a050:	89 3c 24             	mov    %edi,(%esp)
 804a053:	89 54 24 04          	mov    %edx,0x4(%esp)
 804a057:	89 4c 24 08          	mov    %ecx,0x8(%esp)
 804a05b:	89 44 24 0c          	mov    %eax,0xc(%esp)
 804a05f:	b9 bf 65 00 00       	mov    $0x65bf,%ecx
 804a064:	e8 ef e6 00 00       	call   8058758 <__afl_maybe_log>
 804a069:	8b 44 24 0c          	mov    0xc(%esp),%eax
 804a06d:	8b 4c 24 08          	mov    0x8(%esp),%ecx
 804a071:	8b 54 24 04          	mov    0x4(%esp),%edx
 804a075:	8b 3c 24             	mov    (%esp),%edi
 804a078:	8d 64 24 10          	lea    0x10(%esp),%esp
	report_label_coverage("MCC", 447);
}
// MCC Label 448
if(!(prefix_tag) && !(do_check) ) {asm volatile (""::: "memory");
 804a07c:	8d 64 24 f0          	lea    -0x10(%esp),%esp
 804a080:	89 3c 24             	mov    %edi,(%esp)
 804a083:	89 54 24 04          	mov    %edx,0x4(%esp)
 804a087:	89 4c 24 08          	mov    %ecx,0x8(%esp)
 804a08b:	89 44 24 0c          	mov    %eax,0xc(%esp)
 804a08f:	b9 52 bd 00 00       	mov    $0xbd52,%ecx
 804a094:	e8 bf e6 00 00       	call   8058758 <__afl_maybe_log>
 804a099:	8b 44 24 0c          	mov    0xc(%esp),%eax
 804a09d:	8b 4c 24 08          	mov    0x8(%esp),%ecx
 804a0a1:	8b 54 24 04          	mov    0x4(%esp),%edx
 804a0a5:	8b 3c 24             	mov    (%esp),%edi
 804a0a8:	8d 64 24 10          	lea    0x10(%esp),%esp
 804a0ac:	0f b6 b5 7f ff ff ff 	movzbl -0x81(%ebp),%esi
 804a0b3:	83 f6 01             	xor    $0x1,%esi
 804a0b6:	89 f1                	mov    %esi,%ecx
 804a0b8:	3a 8d 7e ff ff ff    	cmp    -0x82(%ebp),%cl
 804a0be:	0f 87 7d ac 00 00    	ja     8054d41 <main+0xb801>
 804a0c4:	8d 64 24 f0          	lea    -0x10(%esp),%esp
 804a0c8:	89 3c 24             	mov    %edi,(%esp)
 804a0cb:	89 54 24 04          	mov    %edx,0x4(%esp)
 804a0cf:	89 4c 24 08          	mov    %ecx,0x8(%esp)
 804a0d3:	89 44 24 0c          	mov    %eax,0xc(%esp)
 804a0d7:	b9 ef e7 00 00       	mov    $0xe7ef,%ecx
 804a0dc:	e8 77 e6 00 00       	call   8058758 <__afl_maybe_log>
 804a0e1:	8b 44 24 0c          	mov    0xc(%esp),%eax
 804a0e5:	8b 4c 24 08          	mov    0x8(%esp),%ecx
 804a0e9:	8b 54 24 04          	mov    0x4(%esp),%edx
 804a0ed:	8b 3c 24             	mov    (%esp),%edi
 804a0f0:	8d 64 24 10          	lea    0x10(%esp),%esp
	report_label_coverage("MCC", 448);
}
if (prefix_tag && do_check)
 804a0f4:	8d 64 24 f0          	lea    -0x10(%esp),%esp
 804a0f8:	89 3c 24             	mov    %edi,(%esp)
 804a0fb:	89 54 24 04          	mov    %edx,0x4(%esp)
 804a0ff:	89 4c 24 08          	mov    %ecx,0x8(%esp)
 804a103:	89 44 24 0c          	mov    %eax,0xc(%esp)
 804a107:	b9 3f 8c 00 00       	mov    $0x8c3f,%ecx
 804a10c:	e8 47 e6 00 00       	call   8058758 <__afl_maybe_log>
 804a111:	8b 44 24 0c          	mov    0xc(%esp),%eax
 804a115:	8b 4c 24 08          	mov    0x8(%esp),%ecx
 804a119:	8b 54 24 04          	mov    0x4(%esp),%edx
 804a11d:	8b 3c 24             	mov    (%esp),%edi
 804a120:	8d 64 24 10          	lea    0x10(%esp),%esp
 804a124:	84 db                	test   %bl,%bl
 804a126:	0f 85 41 bd 00 00    	jne    8055e6d <main+0xc92d>
 804a12c:	8d 64 24 f0          	lea    -0x10(%esp),%esp
 804a130:	89 3c 24             	mov    %edi,(%esp)
 804a133:	89 54 24 04          	mov    %edx,0x4(%esp)
 804a137:	89 4c 24 08          	mov    %ecx,0x8(%esp)
 804a13b:	89 44 24 0c          	mov    %eax,0xc(%esp)
 804a13f:	b9 9f 9a 00 00       	mov    $0x9a9f,%ecx
 804a144:	e8 0f e6 00 00       	call   8058758 <__afl_maybe_log>
 804a149:	8b 44 24 0c          	mov    0xc(%esp),%eax
 804a14d:	8b 4c 24 08          	mov    0x8(%esp),%ecx
 804a151:	8b 54 24 04          	mov    0x4(%esp),%edx
 804a155:	8b 3c 24             	mov    (%esp),%edi
 804a158:	8d 64 24 10          	lea    0x10(%esp),%esp
      usage (EXIT_FAILURE);
    }

  
// ABS Label 449
if(binary < 0)  {asm volatile (""::: "memory");
 804a15c:	83 bd 74 ff ff ff ff 	cmpl   $0xffffffff,-0x8c(%ebp)
 804a163:	0f 84 50 b8 00 00    	je     80559b9 <main+0xc479>
 804a169:	8d 76 00             	lea    0x0(%esi),%esi
 804a16c:	8d 64 24 f0          	lea    -0x10(%esp),%esp
 804a170:	89 3c 24             	mov    %edi,(%esp)
 804a173:	89 54 24 04          	mov    %edx,0x4(%esp)
 804a177:	89 4c 24 08          	mov    %ecx,0x8(%esp)
 804a17b:	89 44 24 0c          	mov    %eax,0xc(%esp)
 804a17f:	b9 fe 16 00 00       	mov    $0x16fe,%ecx
 804a184:	e8 cf e5 00 00       	call   8058758 <__afl_maybe_log>
 804a189:	8b 44 24 0c          	mov    0xc(%esp),%eax
 804a18d:	8b 4c 24 08          	mov    0x8(%esp),%ecx
 804a191:	8b 54 24 04          	mov    0x4(%esp),%edx
 804a195:	8b 3c 24             	mov    (%esp),%edi
 804a198:	8d 64 24 10          	lea    0x10(%esp),%esp
	report_label_coverage("ABS", 449);
}

// COR Label 450
if((0 <= binary || do_check) != (0 <= binary && do_check))  {asm volatile (""::: "memory");
 804a19c:	80 bd 7f ff ff ff 01 	cmpb   $0x1,-0x81(%ebp)
 804a1a3:	0f 84 10 22 00 00    	je     804c3b9 <main+0x2e79>
 804a1a9:	8d 76 00             	lea    0x0(%esi),%esi
 804a1ac:	8d 64 24 f0          	lea    -0x10(%esp),%esp
 804a1b0:	89 3c 24             	mov    %edi,(%esp)
 804a1b3:	89 54 24 04          	mov    %edx,0x4(%esp)
 804a1b7:	89 4c 24 08          	mov    %ecx,0x8(%esp)
 804a1bb:	89 44 24 0c          	mov    %eax,0xc(%esp)
 804a1bf:	b9 0b 8f 00 00       	mov    $0x8f0b,%ecx
 804a1c4:	e8 8f e5 00 00       	call   8058758 <__afl_maybe_log>
 804a1c9:	8b 44 24 0c          	mov    0xc(%esp),%eax
 804a1cd:	8b 4c 24 08          	mov    0x8(%esp),%ecx
 804a1d1:	8b 54 24 04          	mov    0x4(%esp),%edx
 804a1d5:	8b 3c 24             	mov    (%esp),%edi
 804a1d8:	8d 64 24 10          	lea    0x10(%esp),%esp
 804a1dc:	c6 45 a4 01          	movb   $0x1,-0x5c(%ebp)
	report_label_coverage("COR", 450);
 804a1e0:	8d 64 24 f0          	lea    -0x10(%esp),%esp
 804a1e4:	89 3c 24             	mov    %edi,(%esp)
 804a1e7:	89 54 24 04          	mov    %edx,0x4(%esp)
 804a1eb:	89 4c 24 08          	mov    %ecx,0x8(%esp)
 804a1ef:	89 44 24 0c          	mov    %eax,0xc(%esp)
 804a1f3:	b9 47 8a 00 00       	mov    $0x8a47,%ecx
 804a1f8:	e8 5b e5 00 00       	call   8058758 <__afl_maybe_log>
 804a1fd:	8b 44 24 0c          	mov    0xc(%esp),%eax
 804a201:	8b 4c 24 08          	mov    0x8(%esp),%ecx
 804a205:	8b 54 24 04          	mov    0x4(%esp),%edx
 804a209:	8b 3c 24             	mov    (%esp),%edi
 804a20c:	8d 64 24 10          	lea    0x10(%esp),%esp
 804a210:	50                   	push   %eax
 804a211:	50                   	push   %eax
 804a212:	68 c2 01 00 00       	push   $0x1c2
 804a217:	68 da 70 06 08       	push   $0x80670da
 804a21c:	e8 9f be 00 00       	call   80560c0 <report_label_coverage>
 804a221:	83 c4 10             	add    $0x10,%esp
 804a224:	c6 45 9c 00          	movb   $0x0,-0x64(%ebp)
}

// ROR Label 451
if((0 < binary) != (0 <= binary))  {asm volatile (""::: "memory");
 804a228:	8d 64 24 f0          	lea    -0x10(%esp),%esp
 804a22c:	89 3c 24             	mov    %edi,(%esp)
 804a22f:	89 54 24 04          	mov    %edx,0x4(%esp)
 804a233:	89 4c 24 08          	mov    %ecx,0x8(%esp)
 804a237:	89 44 24 0c          	mov    %eax,0xc(%esp)
 804a23b:	b9 15 48 00 00       	mov    $0x4815,%ecx
 804a240:	e8 13 e5 00 00       	call   8058758 <__afl_maybe_log>
 804a245:	8b 44 24 0c          	mov    0xc(%esp),%eax
 804a249:	8b 4c 24 08          	mov    0x8(%esp),%ecx
 804a24d:	8b 54 24 04          	mov    0x4(%esp),%edx
 804a251:	8b 3c 24             	mov    (%esp),%edi
 804a254:	8d 64 24 10          	lea    0x10(%esp),%esp
 804a258:	83 bd 74 ff ff ff 00 	cmpl   $0x0,-0x8c(%ebp)
 804a25f:	0f 9f c3             	setg   %bl
 804a262:	38 5d a4             	cmp    %bl,-0x5c(%ebp)
 804a265:	74 45                	je     804a2ac <main+0xd6c>
 804a267:	90                   	nop
 804a268:	8d 64 24 f0          	lea    -0x10(%esp),%esp
 804a26c:	89 3c 24             	mov    %edi,(%esp)
 804a26f:	89 54 24 04          	mov    %edx,0x4(%esp)
 804a273:	89 4c 24 08          	mov    %ecx,0x8(%esp)
 804a277:	89 44 24 0c          	mov    %eax,0xc(%esp)
 804a27b:	b9 65 cc 00 00       	mov    $0xcc65,%ecx
 804a280:	e8 d3 e4 00 00       	call   8058758 <__afl_maybe_log>
 804a285:	8b 44 24 0c          	mov    0xc(%esp),%eax
 804a289:	8b 4c 24 08          	mov    0x8(%esp),%ecx
 804a28d:	8b 54 24 04          	mov    0x4(%esp),%edx
 804a291:	8b 3c 24             	mov    (%esp),%edi
 804a294:	8d 64 24 10          	lea    0x10(%esp),%esp
	report_label_coverage("ROR", 451);
 804a298:	57                   	push   %edi
 804a299:	57                   	push   %edi
 804a29a:	68 c3 01 00 00       	push   $0x1c3
 804a29f:	68 c8 70 06 08       	push   $0x80670c8
 804a2a4:	e8 17 be 00 00       	call   80560c0 <report_label_coverage>
 804a2a9:	83 c4 10             	add    $0x10,%esp
}
// ROR Label 452
if((0 > binary) != (0 <= binary))  {asm volatile (""::: "memory");
 804a2ac:	8d 64 24 f0          	lea    -0x10(%esp),%esp
 804a2b0:	89 3c 24             	mov    %edi,(%esp)
 804a2b3:	89 54 24 04          	mov    %edx,0x4(%esp)
 804a2b7:	89 4c 24 08          	mov    %ecx,0x8(%esp)
 804a2bb:	89 44 24 0c          	mov    %eax,0xc(%esp)
 804a2bf:	b9 18 ff 00 00       	mov    $0xff18,%ecx
 804a2c4:	e8 8f e4 00 00       	call   8058758 <__afl_maybe_log>
 804a2c9:	8b 44 24 0c          	mov    0xc(%esp),%eax
 804a2cd:	8b 4c 24 08          	mov    0x8(%esp),%ecx
 804a2d1:	8b 54 24 04          	mov    0x4(%esp),%edx
 804a2d5:	8b 3c 24             	mov    (%esp),%edi
 804a2d8:	8d 64 24 10          	lea    0x10(%esp),%esp
 804a2dc:	8b 95 74 ff ff ff    	mov    -0x8c(%ebp),%edx
 804a2e2:	c1 ea 1f             	shr    $0x1f,%edx
 804a2e5:	38 55 a4             	cmp    %dl,-0x5c(%ebp)
 804a2e8:	89 d7                	mov    %edx,%edi
 804a2ea:	74 74                	je     804a360 <main+0xe20>
 804a2ec:	8d 64 24 f0          	lea    -0x10(%esp),%esp
 804a2f0:	89 3c 24             	mov    %edi,(%esp)
 804a2f3:	89 54 24 04          	mov    %edx,0x4(%esp)
 804a2f7:	89 4c 24 08          	mov    %ecx,0x8(%esp)
 804a2fb:	89 44 24 0c          	mov    %eax,0xc(%esp)
 804a2ff:	b9 19 d5 00 00       	mov    $0xd519,%ecx
 804a304:	e8 4f e4 00 00       	call   8058758 <__afl_maybe_log>
 804a309:	8b 44 24 0c          	mov    0xc(%esp),%eax
 804a30d:	8b 4c 24 08          	mov    0x8(%esp),%ecx
 804a311:	8b 54 24 04          	mov    0x4(%esp),%edx
 804a315:	8b 3c 24             	mov    (%esp),%edi
 804a318:	8d 64 24 10          	lea    0x10(%esp),%esp
	report_label_coverage("ROR", 452);
 804a31c:	8d 64 24 f0          	lea    -0x10(%esp),%esp
 804a320:	89 3c 24             	mov    %edi,(%esp)
 804a323:	89 54 24 04          	mov    %edx,0x4(%esp)
 804a327:	89 4c 24 08          	mov    %ecx,0x8(%esp)
 804a32b:	89 44 24 0c          	mov    %eax,0xc(%esp)
 804a32f:	b9 ff b5 00 00       	mov    $0xb5ff,%ecx
 804a334:	e8 1f e4 00 00       	call   8058758 <__afl_maybe_log>
 804a339:	8b 44 24 0c          	mov    0xc(%esp),%eax
 804a33d:	8b 4c 24 08          	mov    0x8(%esp),%ecx
 804a341:	8b 54 24 04          	mov    0x4(%esp),%edx
 804a345:	8b 3c 24             	mov    (%esp),%edi
 804a348:	8d 64 24 10          	lea    0x10(%esp),%esp
 804a34c:	51                   	push   %ecx
 804a34d:	51                   	push   %ecx
 804a34e:	68 c4 01 00 00       	push   $0x1c4
 804a353:	68 c8 70 06 08       	push   $0x80670c8
 804a358:	e8 63 bd 00 00       	call   80560c0 <report_label_coverage>
 804a35d:	83 c4 10             	add    $0x10,%esp
}
// ROR Label 453
if((0 >= binary) != (0 <= binary))  {asm volatile (""::: "memory");
 804a360:	8d 64 24 f0          	lea    -0x10(%esp),%esp
 804a364:	89 3c 24             	mov    %edi,(%esp)
 804a367:	89 54 24 04          	mov    %edx,0x4(%esp)
 804a36b:	89 4c 24 08          	mov    %ecx,0x8(%esp)
 804a36f:	89 44 24 0c          	mov    %eax,0xc(%esp)
 804a373:	b9 50 23 00 00       	mov    $0x2350,%ecx
 804a378:	e8 db e3 00 00       	call   8058758 <__afl_maybe_log>
 804a37d:	8b 44 24 0c          	mov    0xc(%esp),%eax
 804a381:	8b 4c 24 08          	mov    0x8(%esp),%ecx
 804a385:	8b 54 24 04          	mov    0x4(%esp),%edx
 804a389:	8b 3c 24             	mov    (%esp),%edi
 804a38c:	8d 64 24 10          	lea    0x10(%esp),%esp
 804a390:	83 bd 74 ff ff ff 00 	cmpl   $0x0,-0x8c(%ebp)
 804a397:	0f 9e 45 a0          	setle  -0x60(%ebp)
 804a39b:	0f b6 4d a0          	movzbl -0x60(%ebp),%ecx
 804a39f:	38 4d a4             	cmp    %cl,-0x5c(%ebp)
 804a3a2:	74 44                	je     804a3e8 <main+0xea8>
 804a3a4:	8d 64 24 f0          	lea    -0x10(%esp),%esp
 804a3a8:	89 3c 24             	mov    %edi,(%esp)
 804a3ab:	89 54 24 04          	mov    %edx,0x4(%esp)
 804a3af:	89 4c 24 08          	mov    %ecx,0x8(%esp)
 804a3b3:	89 44 24 0c          	mov    %eax,0xc(%esp)
 804a3b7:	b9 e6 1d 00 00       	mov    $0x1de6,%ecx
 804a3bc:	e8 97 e3 00 00       	call   8058758 <__afl_maybe_log>
 804a3c1:	8b 44 24 0c          	mov    0xc(%esp),%eax
 804a3c5:	8b 4c 24 08          	mov    0x8(%esp),%ecx
 804a3c9:	8b 54 24 04          	mov    0x4(%esp),%edx
 804a3cd:	8b 3c 24             	mov    (%esp),%edi
 804a3d0:	8d 64 24 10          	lea    0x10(%esp),%esp
	report_label_coverage("ROR", 453);
 804a3d4:	52                   	push   %edx
 804a3d5:	52                   	push   %edx
 804a3d6:	68 c5 01 00 00       	push   $0x1c5
 804a3db:	68 c8 70 06 08       	push   $0x80670c8
 804a3e0:	e8 db bc 00 00       	call   80560c0 <report_label_coverage>
 804a3e5:	83 c4 10             	add    $0x10,%esp
}

// MCC Label 454
if(0 <= binary && do_check ) {asm volatile (""::: "memory");
 804a3e8:	8d 64 24 f0          	lea    -0x10(%esp),%esp
 804a3ec:	89 3c 24             	mov    %edi,(%esp)
 804a3ef:	89 54 24 04          	mov    %edx,0x4(%esp)
 804a3f3:	89 4c 24 08          	mov    %ecx,0x8(%esp)
 804a3f7:	89 44 24 0c          	mov    %eax,0xc(%esp)
 804a3fb:	b9 38 f2 00 00       	mov    $0xf238,%ecx
 804a400:	e8 53 e3 00 00       	call   8058758 <__afl_maybe_log>
 804a405:	8b 44 24 0c          	mov    0xc(%esp),%eax
 804a409:	8b 4c 24 08          	mov    0x8(%esp),%ecx
 804a40d:	8b 54 24 04          	mov    0x4(%esp),%edx
 804a411:	8b 3c 24             	mov    (%esp),%edi
 804a414:	8d 64 24 10          	lea    0x10(%esp),%esp
 804a418:	80 7d 9c 00          	cmpb   $0x0,-0x64(%ebp)
 804a41c:	0f 85 83 ac 00 00    	jne    80550a5 <main+0xbb65>
 804a422:	66 90                	xchg   %ax,%ax
 804a424:	8d 64 24 f0          	lea    -0x10(%esp),%esp
 804a428:	89 3c 24             	mov    %edi,(%esp)
 804a42b:	89 54 24 04          	mov    %edx,0x4(%esp)
 804a42f:	89 4c 24 08          	mov    %ecx,0x8(%esp)
 804a433:	89 44 24 0c          	mov    %eax,0xc(%esp)
 804a437:	b9 55 2d 00 00       	mov    $0x2d55,%ecx
 804a43c:	e8 17 e3 00 00       	call   8058758 <__afl_maybe_log>
 804a441:	8b 44 24 0c          	mov    0xc(%esp),%eax
 804a445:	8b 4c 24 08          	mov    0x8(%esp),%ecx
 804a449:	8b 54 24 04          	mov    0x4(%esp),%edx
 804a44d:	8b 3c 24             	mov    (%esp),%edi
 804a450:	8d 64 24 10          	lea    0x10(%esp),%esp
	report_label_coverage("MCC", 454);
}
// MCC Label 455
if(0 <= binary && !(do_check) ) {asm volatile (""::: "memory");
 804a454:	0f b6 85 7f ff ff ff 	movzbl -0x81(%ebp),%eax
 804a45b:	38 45 a4             	cmp    %al,-0x5c(%ebp)
 804a45e:	76 44                	jbe    804a4a4 <main+0xf64>
 804a460:	8d 64 24 f0          	lea    -0x10(%esp),%esp
 804a464:	89 3c 24             	mov    %edi,(%esp)
 804a467:	89 54 24 04          	mov    %edx,0x4(%esp)
 804a46b:	89 4c 24 08          	mov    %ecx,0x8(%esp)
 804a46f:	89 44 24 0c          	mov    %eax,0xc(%esp)
 804a473:	b9 2a 76 00 00       	mov    $0x762a,%ecx
 804a478:	e8 db e2 00 00       	call   8058758 <__afl_maybe_log>
 804a47d:	8b 44 24 0c          	mov    0xc(%esp),%eax
 804a481:	8b 4c 24 08          	mov    0x8(%esp),%ecx
 804a485:	8b 54 24 04          	mov    0x4(%esp),%edx
 804a489:	8b 3c 24             	mov    (%esp),%edi
 804a48c:	8d 64 24 10          	lea    0x10(%esp),%esp
	report_label_coverage("MCC", 455);
 804a490:	50                   	push   %eax
 804a491:	50                   	push   %eax
 804a492:	68 c7 01 00 00       	push   $0x1c7
 804a497:	68 de 70 06 08       	push   $0x80670de
 804a49c:	e8 1f bc 00 00       	call   80560c0 <report_label_coverage>
 804a4a1:	83 c4 10             	add    $0x10,%esp
}
// MCC Label 456
if(!(0 <= binary) && do_check ) {asm volatile (""::: "memory");
 804a4a4:	8d 64 24 f0          	lea    -0x10(%esp),%esp
 804a4a8:	89 3c 24             	mov    %edi,(%esp)
 804a4ab:	89 54 24 04          	mov    %edx,0x4(%esp)
 804a4af:	89 4c 24 08          	mov    %ecx,0x8(%esp)
 804a4b3:	89 44 24 0c          	mov    %eax,0xc(%esp)
 804a4b7:	b9 27 d6 00 00       	mov    $0xd627,%ecx
 804a4bc:	e8 97 e2 00 00       	call   8058758 <__afl_maybe_log>
 804a4c1:	8b 44 24 0c          	mov    0xc(%esp),%eax
 804a4c5:	8b 4c 24 08          	mov    0x8(%esp),%ecx
 804a4c9:	8b 54 24 04          	mov    0x4(%esp),%edx
 804a4cd:	8b 3c 24             	mov    (%esp),%edi
 804a4d0:	8d 64 24 10          	lea    0x10(%esp),%esp
 804a4d4:	89 fa                	mov    %edi,%edx
 804a4d6:	84 d2                	test   %dl,%dl
 804a4d8:	0f 84 be 00 00 00    	je     804a59c <main+0x105c>
 804a4de:	66 90                	xchg   %ax,%ax
 804a4e0:	8d 64 24 f0          	lea    -0x10(%esp),%esp
 804a4e4:	89 3c 24             	mov    %edi,(%esp)
 804a4e7:	89 54 24 04          	mov    %edx,0x4(%esp)
 804a4eb:	89 4c 24 08          	mov    %ecx,0x8(%esp)
 804a4ef:	89 44 24 0c          	mov    %eax,0xc(%esp)
 804a4f3:	b9 f4 03 00 00       	mov    $0x3f4,%ecx
 804a4f8:	e8 5b e2 00 00       	call   8058758 <__afl_maybe_log>
 804a4fd:	8b 44 24 0c          	mov    0xc(%esp),%eax
 804a501:	8b 4c 24 08          	mov    0x8(%esp),%ecx
 804a505:	8b 54 24 04          	mov    0x4(%esp),%edx
 804a509:	8b 3c 24             	mov    (%esp),%edi
 804a50c:	8d 64 24 10          	lea    0x10(%esp),%esp
 804a510:	80 bd 7f ff ff ff 00 	cmpb   $0x0,-0x81(%ebp)
 804a517:	0f 85 3c ab 00 00    	jne    8055059 <main+0xbb19>
 804a51d:	8d 76 00             	lea    0x0(%esi),%esi
 804a520:	8d 64 24 f0          	lea    -0x10(%esp),%esp
 804a524:	89 3c 24             	mov    %edi,(%esp)
 804a527:	89 54 24 04          	mov    %edx,0x4(%esp)
 804a52b:	89 4c 24 08          	mov    %ecx,0x8(%esp)
 804a52f:	89 44 24 0c          	mov    %eax,0xc(%esp)
 804a533:	b9 35 9f 00 00       	mov    $0x9f35,%ecx
 804a538:	e8 1b e2 00 00       	call   8058758 <__afl_maybe_log>
 804a53d:	8b 44 24 0c          	mov    0xc(%esp),%eax
 804a541:	8b 4c 24 08          	mov    0x8(%esp),%ecx
 804a545:	8b 54 24 04          	mov    0x4(%esp),%edx
 804a549:	8b 3c 24             	mov    (%esp),%edi
 804a54c:	8d 64 24 10          	lea    0x10(%esp),%esp
	report_label_coverage("MCC", 456);
}
// MCC Label 457
if(!(0 <= binary) && !(do_check) ) {asm volatile (""::: "memory");
 804a550:	80 fa 00             	cmp    $0x0,%dl
 804a553:	76 47                	jbe    804a59c <main+0x105c>
 804a555:	8d 76 00             	lea    0x0(%esi),%esi
 804a558:	8d 64 24 f0          	lea    -0x10(%esp),%esp
 804a55c:	89 3c 24             	mov    %edi,(%esp)
 804a55f:	89 54 24 04          	mov    %edx,0x4(%esp)
 804a563:	89 4c 24 08          	mov    %ecx,0x8(%esp)
 804a567:	89 44 24 0c          	mov    %eax,0xc(%esp)
 804a56b:	b9 40 03 00 00       	mov    $0x340,%ecx
 804a570:	e8 e3 e1 00 00       	call   8058758 <__afl_maybe_log>
 804a575:	8b 44 24 0c          	mov    0xc(%esp),%eax
 804a579:	8b 4c 24 08          	mov    0x8(%esp),%ecx
 804a57d:	8b 54 24 04          	mov    0x4(%esp),%edx
 804a581:	8b 3c 24             	mov    (%esp),%edi
 804a584:	8d 64 24 10          	lea    0x10(%esp),%esp
	report_label_coverage("MCC", 457);
 804a588:	50                   	push   %eax
 804a589:	50                   	push   %eax
 804a58a:	68 c9 01 00 00       	push   $0x1c9
 804a58f:	68 de 70 06 08       	push   $0x80670de
 804a594:	e8 27 bb 00 00       	call   80560c0 <report_label_coverage>
 804a599:	83 c4 10             	add    $0x10,%esp
}
if (0 <= binary && do_check)
 804a59c:	8d 64 24 f0          	lea    -0x10(%esp),%esp
 804a5a0:	89 3c 24             	mov    %edi,(%esp)
 804a5a3:	89 54 24 04          	mov    %edx,0x4(%esp)
 804a5a7:	89 4c 24 08          	mov    %ecx,0x8(%esp)
 804a5ab:	89 44 24 0c          	mov    %eax,0xc(%esp)
 804a5af:	b9 ca 2e 00 00       	mov    $0x2eca,%ecx
 804a5b4:	e8 9f e1 00 00       	call   8058758 <__afl_maybe_log>
 804a5b9:	8b 44 24 0c          	mov    0xc(%esp),%eax
 804a5bd:	8b 4c 24 08          	mov    0x8(%esp),%ecx
 804a5c1:	8b 54 24 04          	mov    0x4(%esp),%edx
 804a5c5:	8b 3c 24             	mov    (%esp),%edi
 804a5c8:	8d 64 24 10          	lea    0x10(%esp),%esp
 804a5cc:	80 7d 9c 00          	cmpb   $0x0,-0x64(%ebp)
 804a5d0:	0f 85 4f b7 00 00    	jne    8055d25 <main+0xc7e5>
 804a5d6:	66 90                	xchg   %ax,%ax
 804a5d8:	8d 64 24 f0          	lea    -0x10(%esp),%esp
 804a5dc:	89 3c 24             	mov    %edi,(%esp)
 804a5df:	89 54 24 04          	mov    %edx,0x4(%esp)
 804a5e3:	89 4c 24 08          	mov    %ecx,0x8(%esp)
 804a5e7:	89 44 24 0c          	mov    %eax,0xc(%esp)
 804a5eb:	b9 3e 7b 00 00       	mov    $0x7b3e,%ecx
 804a5f0:	e8 63 e1 00 00       	call   8058758 <__afl_maybe_log>
 804a5f5:	8b 44 24 0c          	mov    0xc(%esp),%eax
 804a5f9:	8b 4c 24 08          	mov    0x8(%esp),%ecx
 804a5fd:	8b 54 24 04          	mov    0x4(%esp),%edx
 804a601:	8b 3c 24             	mov    (%esp),%edi
 804a604:	8d 64 24 10          	lea    0x10(%esp),%esp
      usage (EXIT_FAILURE);
    }

  
// COR Label 458
if((status_only || !do_check) != (status_only && !do_check))  {asm volatile (""::: "memory");
 804a608:	80 3d 03 b3 06 08 00 	cmpb   $0x0,0x806b303
 804a60f:	0f 85 64 a0 00 00    	jne    8054679 <main+0xb139>
 804a615:	8d 76 00             	lea    0x0(%esi),%esi
 804a618:	8d 64 24 f0          	lea    -0x10(%esp),%esp
 804a61c:	89 3c 24             	mov    %edi,(%esp)
 804a61f:	89 54 24 04          	mov    %edx,0x4(%esp)
 804a623:	89 4c 24 08          	mov    %ecx,0x8(%esp)
 804a627:	89 44 24 0c          	mov    %eax,0xc(%esp)
 804a62b:	b9 1d f0 00 00       	mov    $0xf01d,%ecx
 804a630:	e8 23 e1 00 00       	call   8058758 <__afl_maybe_log>
 804a635:	8b 44 24 0c          	mov    0xc(%esp),%eax
 804a639:	8b 4c 24 08          	mov    0x8(%esp),%ecx
 804a63d:	8b 54 24 04          	mov    0x4(%esp),%edx
 804a641:	8b 3c 24             	mov    (%esp),%edi
 804a644:	8d 64 24 10          	lea    0x10(%esp),%esp
 804a648:	89 f0                	mov    %esi,%eax
 804a64a:	84 c0                	test   %al,%al
 804a64c:	0f 85 77 a9 00 00    	jne    8054fc9 <main+0xba89>
 804a652:	66 90                	xchg   %ax,%ax
 804a654:	8d 64 24 f0          	lea    -0x10(%esp),%esp
 804a658:	89 3c 24             	mov    %edi,(%esp)
 804a65b:	89 54 24 04          	mov    %edx,0x4(%esp)
 804a65f:	89 4c 24 08          	mov    %ecx,0x8(%esp)
 804a663:	89 44 24 0c          	mov    %eax,0xc(%esp)
 804a667:	b9 05 08 00 00       	mov    $0x805,%ecx
 804a66c:	e8 e7 e0 00 00       	call   8058758 <__afl_maybe_log>
 804a671:	8b 44 24 0c          	mov    0xc(%esp),%eax
 804a675:	8b 4c 24 08          	mov    0x8(%esp),%ecx
 804a679:	8b 54 24 04          	mov    0x4(%esp),%edx
 804a67d:	8b 3c 24             	mov    (%esp),%edi
 804a680:	8d 64 24 10          	lea    0x10(%esp),%esp
// MCC Label 459
if(status_only && !do_check ) {asm volatile (""::: "memory");
	report_label_coverage("MCC", 459);
}
// MCC Label 460
if(status_only && !(!do_check) ) {asm volatile (""::: "memory");
 804a684:	8d 64 24 f0          	lea    -0x10(%esp),%esp
 804a688:	89 3c 24             	mov    %edi,(%esp)
 804a68b:	89 54 24 04          	mov    %edx,0x4(%esp)
 804a68f:	89 4c 24 08          	mov    %ecx,0x8(%esp)
 804a693:	89 44 24 0c          	mov    %eax,0xc(%esp)
 804a697:	b9 7f ae 00 00       	mov    $0xae7f,%ecx
 804a69c:	e8 b7 e0 00 00       	call   8058758 <__afl_maybe_log>
 804a6a1:	8b 44 24 0c          	mov    0xc(%esp),%eax
 804a6a5:	8b 4c 24 08          	mov    0x8(%esp),%ecx
 804a6a9:	8b 54 24 04          	mov    0x4(%esp),%edx
 804a6ad:	8b 3c 24             	mov    (%esp),%edi
 804a6b0:	8d 64 24 10          	lea    0x10(%esp),%esp
 804a6b4:	80 bd 7f ff ff ff 00 	cmpb   $0x0,-0x81(%ebp)
 804a6bb:	0f 84 f8 9b 00 00    	je     80542b9 <main+0xad79>
 804a6c1:	8d 76 00             	lea    0x0(%esi),%esi
 804a6c4:	8d 64 24 f0          	lea    -0x10(%esp),%esp
 804a6c8:	89 3c 24             	mov    %edi,(%esp)
 804a6cb:	89 54 24 04          	mov    %edx,0x4(%esp)
 804a6cf:	89 4c 24 08          	mov    %ecx,0x8(%esp)
 804a6d3:	89 44 24 0c          	mov    %eax,0xc(%esp)
 804a6d7:	b9 d8 f7 00 00       	mov    $0xf7d8,%ecx
 804a6dc:	e8 77 e0 00 00       	call   8058758 <__afl_maybe_log>
 804a6e1:	8b 44 24 0c          	mov    0xc(%esp),%eax
 804a6e5:	8b 4c 24 08          	mov    0x8(%esp),%ecx
 804a6e9:	8b 54 24 04          	mov    0x4(%esp),%edx
 804a6ed:	8b 3c 24             	mov    (%esp),%edi
 804a6f0:	8d 64 24 10          	lea    0x10(%esp),%esp
 804a6f4:	80 3d 03 b3 06 08 00 	cmpb   $0x0,0x806b303
 804a6fb:	0f 85 20 af 00 00    	jne    8055621 <main+0xc0e1>
 804a701:	8d 76 00             	lea    0x0(%esi),%esi
 804a704:	8d 64 24 f0          	lea    -0x10(%esp),%esp
 804a708:	89 3c 24             	mov    %edi,(%esp)
 804a70b:	89 54 24 04          	mov    %edx,0x4(%esp)
 804a70f:	89 4c 24 08          	mov    %ecx,0x8(%esp)
 804a713:	89 44 24 0c          	mov    %eax,0xc(%esp)
 804a717:	b9 56 40 00 00       	mov    $0x4056,%ecx
 804a71c:	e8 37 e0 00 00       	call   8058758 <__afl_maybe_log>
 804a721:	8b 44 24 0c          	mov    0xc(%esp),%eax
 804a725:	8b 4c 24 08          	mov    0x8(%esp),%ecx
 804a729:	8b 54 24 04          	mov    0x4(%esp),%edx
 804a72d:	8b 3c 24             	mov    (%esp),%edi
 804a730:	8d 64 24 10          	lea    0x10(%esp),%esp
	report_label_coverage("MCC", 460);
}
// MCC Label 461
if(!(status_only) && !do_check ) {asm volatile (""::: "memory");
 804a734:	8d 64 24 f0          	lea    -0x10(%esp),%esp
 804a738:	89 3c 24             	mov    %edi,(%esp)
 804a73b:	89 54 24 04          	mov    %edx,0x4(%esp)
 804a73f:	89 4c 24 08          	mov    %ecx,0x8(%esp)
 804a743:	89 44 24 0c          	mov    %eax,0xc(%esp)
 804a747:	b9 75 95 00 00       	mov    $0x9575,%ecx
 804a74c:	e8 07 e0 00 00       	call   8058758 <__afl_maybe_log>
 804a751:	8b 44 24 0c          	mov    0xc(%esp),%eax
 804a755:	8b 4c 24 08          	mov    0x8(%esp),%ecx
 804a759:	8b 54 24 04          	mov    0x4(%esp),%edx
 804a75d:	8b 3c 24             	mov    (%esp),%edi
 804a760:	8d 64 24 10          	lea    0x10(%esp),%esp
 804a764:	80 bd 7f ff ff ff 00 	cmpb   $0x0,-0x81(%ebp)
 804a76b:	0f 84 48 9b 00 00    	je     80542b9 <main+0xad79>
 804a771:	8d 76 00             	lea    0x0(%esi),%esi
 804a774:	8d 64 24 f0          	lea    -0x10(%esp),%esp
 804a778:	89 3c 24             	mov    %edi,(%esp)
 804a77b:	89 54 24 04          	mov    %edx,0x4(%esp)
 804a77f:	89 4c 24 08          	mov    %ecx,0x8(%esp)
 804a783:	89 44 24 0c          	mov    %eax,0xc(%esp)
 804a787:	b9 05 d3 00 00       	mov    $0xd305,%ecx
 804a78c:	e8 c7 df 00 00       	call   8058758 <__afl_maybe_log>
 804a791:	8b 44 24 0c          	mov    0xc(%esp),%eax
 804a795:	8b 4c 24 08          	mov    0x8(%esp),%ecx
 804a799:	8b 54 24 04          	mov    0x4(%esp),%edx
 804a79d:	8b 3c 24             	mov    (%esp),%edi
 804a7a0:	8d 64 24 10          	lea    0x10(%esp),%esp
	report_label_coverage("MCC", 461);
}
// MCC Label 462
if(!(status_only) && !(!do_check) ) {asm volatile (""::: "memory");
 804a7a4:	0f b6 8d 7f ff ff ff 	movzbl -0x81(%ebp),%ecx
 804a7ab:	38 0d 03 b3 06 08    	cmp    %cl,0x806b303
 804a7b1:	0f 82 1e ae 00 00    	jb     80555d5 <main+0xc095>
 804a7b7:	90                   	nop
 804a7b8:	8d 64 24 f0          	lea    -0x10(%esp),%esp
 804a7bc:	89 3c 24             	mov    %edi,(%esp)
 804a7bf:	89 54 24 04          	mov    %edx,0x4(%esp)
 804a7c3:	89 4c 24 08          	mov    %ecx,0x8(%esp)
 804a7c7:	89 44 24 0c          	mov    %eax,0xc(%esp)
 804a7cb:	b9 e2 e1 00 00       	mov    $0xe1e2,%ecx
 804a7d0:	e8 83 df 00 00       	call   8058758 <__afl_maybe_log>
 804a7d5:	8b 44 24 0c          	mov    0xc(%esp),%eax
 804a7d9:	8b 4c 24 08          	mov    0x8(%esp),%ecx
 804a7dd:	8b 54 24 04          	mov    0x4(%esp),%edx
 804a7e1:	8b 3c 24             	mov    (%esp),%edi
 804a7e4:	8d 64 24 10          	lea    0x10(%esp),%esp
	report_label_coverage("MCC", 462);
}
if (status_only && !do_check)
 804a7e8:	8d 64 24 f0          	lea    -0x10(%esp),%esp
 804a7ec:	89 3c 24             	mov    %edi,(%esp)
 804a7ef:	89 54 24 04          	mov    %edx,0x4(%esp)
 804a7f3:	89 4c 24 08          	mov    %ecx,0x8(%esp)
 804a7f7:	89 44 24 0c          	mov    %eax,0xc(%esp)
 804a7fb:	b9 38 37 00 00       	mov    $0x3738,%ecx
 804a800:	e8 53 df 00 00       	call   8058758 <__afl_maybe_log>
 804a805:	8b 44 24 0c          	mov    0xc(%esp),%eax
 804a809:	8b 4c 24 08          	mov    0x8(%esp),%ecx
 804a80d:	8b 54 24 04          	mov    0x4(%esp),%edx
 804a811:	8b 3c 24             	mov    (%esp),%edi
 804a814:	8d 64 24 10          	lea    0x10(%esp),%esp
 804a818:	0f b6 85 7f ff ff ff 	movzbl -0x81(%ebp),%eax
 804a81f:	38 05 03 b3 06 08    	cmp    %al,0x806b303
 804a825:	0f 87 85 b5 00 00    	ja     8055db0 <main+0xc870>
 804a82b:	90                   	nop
 804a82c:	8d 64 24 f0          	lea    -0x10(%esp),%esp
 804a830:	89 3c 24             	mov    %edi,(%esp)
 804a833:	89 54 24 04          	mov    %edx,0x4(%esp)
 804a837:	89 4c 24 08          	mov    %ecx,0x8(%esp)
 804a83b:	89 44 24 0c          	mov    %eax,0xc(%esp)
 804a83f:	b9 9e 15 00 00       	mov    $0x159e,%ecx
 804a844:	e8 0f df 00 00       	call   8058758 <__afl_maybe_log>
 804a849:	8b 44 24 0c          	mov    0xc(%esp),%eax
 804a84d:	8b 4c 24 08          	mov    0x8(%esp),%ecx
 804a851:	8b 54 24 04          	mov    0x4(%esp),%edx
 804a855:	8b 3c 24             	mov    (%esp),%edi
 804a858:	8d 64 24 10          	lea    0x10(%esp),%esp
      usage (EXIT_FAILURE);
    }

  
// COR Label 463
if((warn || !do_check) != (warn && !do_check))  {asm volatile (""::: "memory");
 804a85c:	80 3d 02 b3 06 08 00 	cmpb   $0x0,0x806b302
 804a863:	0f 85 cc 9e 00 00    	jne    8054735 <main+0xb1f5>
 804a869:	8d 76 00             	lea    0x0(%esi),%esi
 804a86c:	8d 64 24 f0          	lea    -0x10(%esp),%esp
 804a870:	89 3c 24             	mov    %edi,(%esp)
 804a873:	89 54 24 04          	mov    %edx,0x4(%esp)
 804a877:	89 4c 24 08          	mov    %ecx,0x8(%esp)
 804a87b:	89 44 24 0c          	mov    %eax,0xc(%esp)
 804a87f:	b9 75 5a 00 00       	mov    $0x5a75,%ecx
 804a884:	e8 cf de 00 00       	call   8058758 <__afl_maybe_log>
 804a889:	8b 44 24 0c          	mov    0xc(%esp),%eax
 804a88d:	8b 4c 24 08          	mov    0x8(%esp),%ecx
 804a891:	8b 54 24 04          	mov    0x4(%esp),%edx
 804a895:	8b 3c 24             	mov    (%esp),%edi
 804a898:	8d 64 24 10          	lea    0x10(%esp),%esp
 804a89c:	89 f2                	mov    %esi,%edx
 804a89e:	84 d2                	test   %dl,%dl
 804a8a0:	0f 85 95 a6 00 00    	jne    8054f3b <main+0xb9fb>
 804a8a6:	66 90                	xchg   %ax,%ax
 804a8a8:	8d 64 24 f0          	lea    -0x10(%esp),%esp
 804a8ac:	89 3c 24             	mov    %edi,(%esp)
 804a8af:	89 54 24 04          	mov    %edx,0x4(%esp)
 804a8b3:	89 4c 24 08          	mov    %ecx,0x8(%esp)
 804a8b7:	89 44 24 0c          	mov    %eax,0xc(%esp)
 804a8bb:	b9 26 7e 00 00       	mov    $0x7e26,%ecx
 804a8c0:	e8 93 de 00 00       	call   8058758 <__afl_maybe_log>
 804a8c5:	8b 44 24 0c          	mov    0xc(%esp),%eax
 804a8c9:	8b 4c 24 08          	mov    0x8(%esp),%ecx
 804a8cd:	8b 54 24 04          	mov    0x4(%esp),%edx
 804a8d1:	8b 3c 24             	mov    (%esp),%edi
 804a8d4:	8d 64 24 10          	lea    0x10(%esp),%esp
// MCC Label 464
if(warn && !do_check ) {asm volatile (""::: "memory");
	report_label_coverage("MCC", 464);
}
// MCC Label 465
if(warn && !(!do_check) ) {asm volatile (""::: "memory");
 804a8d8:	8d 64 24 f0          	lea    -0x10(%esp),%esp
 804a8dc:	89 3c 24             	mov    %edi,(%esp)
 804a8df:	89 54 24 04          	mov    %edx,0x4(%esp)
 804a8e3:	89 4c 24 08          	mov    %ecx,0x8(%esp)
 804a8e7:	89 44 24 0c          	mov    %eax,0xc(%esp)
 804a8eb:	b9 84 34 00 00       	mov    $0x3484,%ecx
 804a8f0:	e8 63 de 00 00       	call   8058758 <__afl_maybe_log>
 804a8f5:	8b 44 24 0c          	mov    0xc(%esp),%eax
 804a8f9:	8b 4c 24 08          	mov    0x8(%esp),%ecx
 804a8fd:	8b 54 24 04          	mov    0x4(%esp),%edx
 804a901:	8b 3c 24             	mov    (%esp),%edi
 804a904:	8d 64 24 10          	lea    0x10(%esp),%esp
 804a908:	80 bd 7f ff ff ff 00 	cmpb   $0x0,-0x81(%ebp)
 804a90f:	0f 84 18 99 00 00    	je     805422d <main+0xaced>
 804a915:	8d 76 00             	lea    0x0(%esi),%esi
 804a918:	8d 64 24 f0          	lea    -0x10(%esp),%esp
 804a91c:	89 3c 24             	mov    %edi,(%esp)
 804a91f:	89 54 24 04          	mov    %edx,0x4(%esp)
 804a923:	89 4c 24 08          	mov    %ecx,0x8(%esp)
 804a927:	89 44 24 0c          	mov    %eax,0xc(%esp)
 804a92b:	b9 ea 27 00 00       	mov    $0x27ea,%ecx
 804a930:	e8 23 de 00 00       	call   8058758 <__afl_maybe_log>
 804a935:	8b 44 24 0c          	mov    0xc(%esp),%eax
 804a939:	8b 4c 24 08          	mov    0x8(%esp),%ecx
 804a93d:	8b 54 24 04          	mov    0x4(%esp),%edx
 804a941:	8b 3c 24             	mov    (%esp),%edi
 804a944:	8d 64 24 10          	lea    0x10(%esp),%esp
 804a948:	80 3d 02 b3 06 08 00 	cmpb   $0x0,0x806b302
 804a94f:	0f 85 48 ae 00 00    	jne    805579d <main+0xc25d>
 804a955:	8d 76 00             	lea    0x0(%esi),%esi
 804a958:	8d 64 24 f0          	lea    -0x10(%esp),%esp
 804a95c:	89 3c 24             	mov    %edi,(%esp)
 804a95f:	89 54 24 04          	mov    %edx,0x4(%esp)
 804a963:	89 4c 24 08          	mov    %ecx,0x8(%esp)
 804a967:	89 44 24 0c          	mov    %eax,0xc(%esp)
 804a96b:	b9 ed 0e 00 00       	mov    $0xeed,%ecx
 804a970:	e8 e3 dd 00 00       	call   8058758 <__afl_maybe_log>
 804a975:	8b 44 24 0c          	mov    0xc(%esp),%eax
 804a979:	8b 4c 24 08          	mov    0x8(%esp),%ecx
 804a97d:	8b 54 24 04          	mov    0x4(%esp),%edx
 804a981:	8b 3c 24             	mov    (%esp),%edi
 804a984:	8d 64 24 10          	lea    0x10(%esp),%esp
	report_label_coverage("MCC", 465);
}
// MCC Label 466
if(!(warn) && !do_check ) {asm volatile (""::: "memory");
 804a988:	8d 64 24 f0          	lea    -0x10(%esp),%esp
 804a98c:	89 3c 24             	mov    %edi,(%esp)
 804a98f:	89 54 24 04          	mov    %edx,0x4(%esp)
 804a993:	89 4c 24 08          	mov    %ecx,0x8(%esp)
 804a997:	89 44 24 0c          	mov    %eax,0xc(%esp)
 804a99b:	b9 2f da 00 00       	mov    $0xda2f,%ecx
 804a9a0:	e8 b3 dd 00 00       	call   8058758 <__afl_maybe_log>
 804a9a5:	8b 44 24 0c          	mov    0xc(%esp),%eax
 804a9a9:	8b 4c 24 08          	mov    0x8(%esp),%ecx
 804a9ad:	8b 54 24 04          	mov    0x4(%esp),%edx
 804a9b1:	8b 3c 24             	mov    (%esp),%edi
 804a9b4:	8d 64 24 10          	lea    0x10(%esp),%esp
 804a9b8:	80 bd 7f ff ff ff 00 	cmpb   $0x0,-0x81(%ebp)
 804a9bf:	0f 84 68 98 00 00    	je     805422d <main+0xaced>
 804a9c5:	8d 76 00             	lea    0x0(%esi),%esi
 804a9c8:	8d 64 24 f0          	lea    -0x10(%esp),%esp
 804a9cc:	89 3c 24             	mov    %edi,(%esp)
 804a9cf:	89 54 24 04          	mov    %edx,0x4(%esp)
 804a9d3:	89 4c 24 08          	mov    %ecx,0x8(%esp)
 804a9d7:	89 44 24 0c          	mov    %eax,0xc(%esp)
 804a9db:	b9 cc ea 00 00       	mov    $0xeacc,%ecx
 804a9e0:	e8 73 dd 00 00       	call   8058758 <__afl_maybe_log>
 804a9e5:	8b 44 24 0c          	mov    0xc(%esp),%eax
 804a9e9:	8b 4c 24 08          	mov    0x8(%esp),%ecx
 804a9ed:	8b 54 24 04          	mov    0x4(%esp),%edx
 804a9f1:	8b 3c 24             	mov    (%esp),%edi
 804a9f4:	8d 64 24 10          	lea    0x10(%esp),%esp
	report_label_coverage("MCC", 466);
}
// MCC Label 467
if(!(warn) && !(!do_check) ) {asm volatile (""::: "memory");
 804a9f8:	0f b6 85 7f ff ff ff 	movzbl -0x81(%ebp),%eax
 804a9ff:	38 05 02 b3 06 08    	cmp    %al,0x806b302
 804aa05:	0f 82 46 ad 00 00    	jb     8055751 <main+0xc211>
 804aa0b:	90                   	nop
 804aa0c:	8d 64 24 f0          	lea    -0x10(%esp),%esp
 804aa10:	89 3c 24             	mov    %edi,(%esp)
 804aa13:	89 54 24 04          	mov    %edx,0x4(%esp)
 804aa17:	89 4c 24 08          	mov    %ecx,0x8(%esp)
 804aa1b:	89 44 24 0c          	mov    %eax,0xc(%esp)
 804aa1f:	b9 40 ee 00 00       	mov    $0xee40,%ecx
 804aa24:	e8 2f dd 00 00       	call   8058758 <__afl_maybe_log>
 804aa29:	8b 44 24 0c          	mov    0xc(%esp),%eax
 804aa2d:	8b 4c 24 08          	mov    0x8(%esp),%ecx
 804aa31:	8b 54 24 04          	mov    0x4(%esp),%edx
 804aa35:	8b 3c 24             	mov    (%esp),%edi
 804aa38:	8d 64 24 10          	lea    0x10(%esp),%esp
	report_label_coverage("MCC", 467);
}
if (warn && !do_check)
 804aa3c:	8d 64 24 f0          	lea    -0x10(%esp),%esp
 804aa40:	89 3c 24             	mov    %edi,(%esp)
 804aa43:	89 54 24 04          	mov    %edx,0x4(%esp)
 804aa47:	89 4c 24 08          	mov    %ecx,0x8(%esp)
 804aa4b:	89 44 24 0c          	mov    %eax,0xc(%esp)
 804aa4f:	b9 52 bf 00 00       	mov    $0xbf52,%ecx
 804aa54:	e8 ff dc 00 00       	call   8058758 <__afl_maybe_log>
 804aa59:	8b 44 24 0c          	mov    0xc(%esp),%eax
 804aa5d:	8b 4c 24 08          	mov    0x8(%esp),%ecx
 804aa61:	8b 54 24 04          	mov    0x4(%esp),%edx
 804aa65:	8b 3c 24             	mov    (%esp),%edi
 804aa68:	8d 64 24 10          	lea    0x10(%esp),%esp
 804aa6c:	0f b6 95 7f ff ff ff 	movzbl -0x81(%ebp),%edx
 804aa73:	38 15 02 b3 06 08    	cmp    %dl,0x806b302
 804aa79:	0f 87 6e b3 00 00    	ja     8055ded <main+0xc8ad>
 804aa7f:	90                   	nop
 804aa80:	8d 64 24 f0          	lea    -0x10(%esp),%esp
 804aa84:	89 3c 24             	mov    %edi,(%esp)
 804aa87:	89 54 24 04          	mov    %edx,0x4(%esp)
 804aa8b:	89 4c 24 08          	mov    %ecx,0x8(%esp)
 804aa8f:	89 44 24 0c          	mov    %eax,0xc(%esp)
 804aa93:	b9 cb fd 00 00       	mov    $0xfdcb,%ecx
 804aa98:	e8 bb dc 00 00       	call   8058758 <__afl_maybe_log>
 804aa9d:	8b 44 24 0c          	mov    0xc(%esp),%eax
 804aaa1:	8b 4c 24 08          	mov    0x8(%esp),%ecx
 804aaa5:	8b 54 24 04          	mov    0x4(%esp),%edx
 804aaa9:	8b 3c 24             	mov    (%esp),%edi
 804aaac:	8d 64 24 10          	lea    0x10(%esp),%esp
      usage (EXIT_FAILURE);
    }

  
// COR Label 468
if((quiet || !do_check) != (quiet && !do_check))  {asm volatile (""::: "memory");
 804aab0:	80 3d 01 b3 06 08 00 	cmpb   $0x0,0x806b301
 804aab7:	0f 85 34 9d 00 00    	jne    80547f1 <main+0xb2b1>
 804aabd:	8d 76 00             	lea    0x0(%esi),%esi
 804aac0:	8d 64 24 f0          	lea    -0x10(%esp),%esp
 804aac4:	89 3c 24             	mov    %edi,(%esp)
 804aac7:	89 54 24 04          	mov    %edx,0x4(%esp)
 804aacb:	89 4c 24 08          	mov    %ecx,0x8(%esp)
 804aacf:	89 44 24 0c          	mov    %eax,0xc(%esp)
 804aad3:	b9 41 01 00 00       	mov    $0x141,%ecx
 804aad8:	e8 7b dc 00 00       	call   8058758 <__afl_maybe_log>
 804aadd:	8b 44 24 0c          	mov    0xc(%esp),%eax
 804aae1:	8b 4c 24 08          	mov    0x8(%esp),%ecx
 804aae5:	8b 54 24 04          	mov    0x4(%esp),%edx
 804aae9:	8b 3c 24             	mov    (%esp),%edi
 804aaec:	8d 64 24 10          	lea    0x10(%esp),%esp
 804aaf0:	89 f1                	mov    %esi,%ecx
 804aaf2:	84 c9                	test   %cl,%cl
 804aaf4:	0f 85 f7 a5 00 00    	jne    80550f1 <main+0xbbb1>
 804aafa:	66 90                	xchg   %ax,%ax
 804aafc:	8d 64 24 f0          	lea    -0x10(%esp),%esp
 804ab00:	89 3c 24             	mov    %edi,(%esp)
 804ab03:	89 54 24 04          	mov    %edx,0x4(%esp)
 804ab07:	89 4c 24 08          	mov    %ecx,0x8(%esp)
 804ab0b:	89 44 24 0c          	mov    %eax,0xc(%esp)
 804ab0f:	b9 e5 5d 00 00       	mov    $0x5de5,%ecx
 804ab14:	e8 3f dc 00 00       	call   8058758 <__afl_maybe_log>
 804ab19:	8b 44 24 0c          	mov    0xc(%esp),%eax
 804ab1d:	8b 4c 24 08          	mov    0x8(%esp),%ecx
 804ab21:	8b 54 24 04          	mov    0x4(%esp),%edx
 804ab25:	8b 3c 24             	mov    (%esp),%edi
 804ab28:	8d 64 24 10          	lea    0x10(%esp),%esp
// MCC Label 469
if(quiet && !do_check ) {asm volatile (""::: "memory");
	report_label_coverage("MCC", 469);
}
// MCC Label 470
if(quiet && !(!do_check) ) {asm volatile (""::: "memory");
 804ab2c:	8d 64 24 f0          	lea    -0x10(%esp),%esp
 804ab30:	89 3c 24             	mov    %edi,(%esp)
 804ab33:	89 54 24 04          	mov    %edx,0x4(%esp)
 804ab37:	89 4c 24 08          	mov    %ecx,0x8(%esp)
 804ab3b:	89 44 24 0c          	mov    %eax,0xc(%esp)
 804ab3f:	b9 ee 1a 00 00       	mov    $0x1aee,%ecx
 804ab44:	e8 0f dc 00 00       	call   8058758 <__afl_maybe_log>
 804ab49:	8b 44 24 0c          	mov    0xc(%esp),%eax
 804ab4d:	8b 4c 24 08          	mov    0x8(%esp),%ecx
 804ab51:	8b 54 24 04          	mov    0x4(%esp),%edx
 804ab55:	8b 3c 24             	mov    (%esp),%edi
 804ab58:	8d 64 24 10          	lea    0x10(%esp),%esp
 804ab5c:	80 bd 7f ff ff ff 00 	cmpb   $0x0,-0x81(%ebp)
 804ab63:	0f 84 38 96 00 00    	je     80541a1 <main+0xac61>
 804ab69:	8d 76 00             	lea    0x0(%esi),%esi
 804ab6c:	8d 64 24 f0          	lea    -0x10(%esp),%esp
 804ab70:	89 3c 24             	mov    %edi,(%esp)
 804ab73:	89 54 24 04          	mov    %edx,0x4(%esp)
 804ab77:	89 4c 24 08          	mov    %ecx,0x8(%esp)
 804ab7b:	89 44 24 0c          	mov    %eax,0xc(%esp)
 804ab7f:	b9 a0 d4 00 00       	mov    $0xd4a0,%ecx
 804ab84:	e8 cf db 00 00       	call   8058758 <__afl_maybe_log>
 804ab89:	8b 44 24 0c          	mov    0xc(%esp),%eax
 804ab8d:	8b 4c 24 08          	mov    0x8(%esp),%ecx
 804ab91:	8b 54 24 04          	mov    0x4(%esp),%edx
 804ab95:	8b 3c 24             	mov    (%esp),%edi
 804ab98:	8d 64 24 10          	lea    0x10(%esp),%esp
 804ab9c:	80 3d 01 b3 06 08 00 	cmpb   $0x0,0x806b301
 804aba3:	0f 85 5c ab 00 00    	jne    8055705 <main+0xc1c5>
 804aba9:	8d 76 00             	lea    0x0(%esi),%esi
 804abac:	8d 64 24 f0          	lea    -0x10(%esp),%esp
 804abb0:	89 3c 24             	mov    %edi,(%esp)
 804abb3:	89 54 24 04          	mov    %edx,0x4(%esp)
 804abb7:	89 4c 24 08          	mov    %ecx,0x8(%esp)
 804abbb:	89 44 24 0c          	mov    %eax,0xc(%esp)
 804abbf:	b9 d3 97 00 00       	mov    $0x97d3,%ecx
 804abc4:	e8 8f db 00 00       	call   8058758 <__afl_maybe_log>
 804abc9:	8b 44 24 0c          	mov    0xc(%esp),%eax
 804abcd:	8b 4c 24 08          	mov    0x8(%esp),%ecx
 804abd1:	8b 54 24 04          	mov    0x4(%esp),%edx
 804abd5:	8b 3c 24             	mov    (%esp),%edi
 804abd8:	8d 64 24 10          	lea    0x10(%esp),%esp
	report_label_coverage("MCC", 470);
}
// MCC Label 471
if(!(quiet) && !do_check ) {asm volatile (""::: "memory");
 804abdc:	8d 64 24 f0          	lea    -0x10(%esp),%esp
 804abe0:	89 3c 24             	mov    %edi,(%esp)
 804abe3:	89 54 24 04          	mov    %edx,0x4(%esp)
 804abe7:	89 4c 24 08          	mov    %ecx,0x8(%esp)
 804abeb:	89 44 24 0c          	mov    %eax,0xc(%esp)
 804abef:	b9 86 5f 00 00       	mov    $0x5f86,%ecx
 804abf4:	e8 5f db 00 00       	call   8058758 <__afl_maybe_log>
 804abf9:	8b 44 24 0c          	mov    0xc(%esp),%eax
 804abfd:	8b 4c 24 08          	mov    0x8(%esp),%ecx
 804ac01:	8b 54 24 04          	mov    0x4(%esp),%edx
 804ac05:	8b 3c 24             	mov    (%esp),%edi
 804ac08:	8d 64 24 10          	lea    0x10(%esp),%esp
 804ac0c:	80 bd 7f ff ff ff 00 	cmpb   $0x0,-0x81(%ebp)
 804ac13:	0f 84 88 95 00 00    	je     80541a1 <main+0xac61>
 804ac19:	8d 76 00             	lea    0x0(%esi),%esi
 804ac1c:	8d 64 24 f0          	lea    -0x10(%esp),%esp
 804ac20:	89 3c 24             	mov    %edi,(%esp)
 804ac23:	89 54 24 04          	mov    %edx,0x4(%esp)
 804ac27:	89 4c 24 08          	mov    %ecx,0x8(%esp)
 804ac2b:	89 44 24 0c          	mov    %eax,0xc(%esp)
 804ac2f:	b9 d1 03 00 00       	mov    $0x3d1,%ecx
 804ac34:	e8 1f db 00 00       	call   8058758 <__afl_maybe_log>
 804ac39:	8b 44 24 0c          	mov    0xc(%esp),%eax
 804ac3d:	8b 4c 24 08          	mov    0x8(%esp),%ecx
 804ac41:	8b 54 24 04          	mov    0x4(%esp),%edx
 804ac45:	8b 3c 24             	mov    (%esp),%edi
 804ac48:	8d 64 24 10          	lea    0x10(%esp),%esp
	report_label_coverage("MCC", 471);
}
// MCC Label 472
if(!(quiet) && !(!do_check) ) {asm volatile (""::: "memory");
 804ac4c:	0f b6 95 7f ff ff ff 	movzbl -0x81(%ebp),%edx
 804ac53:	38 15 01 b3 06 08    	cmp    %dl,0x806b301
 804ac59:	0f 82 5a aa 00 00    	jb     80556b9 <main+0xc179>
 804ac5f:	90                   	nop
 804ac60:	8d 64 24 f0          	lea    -0x10(%esp),%esp
 804ac64:	89 3c 24             	mov    %edi,(%esp)
 804ac67:	89 54 24 04          	mov    %edx,0x4(%esp)
 804ac6b:	89 4c 24 08          	mov    %ecx,0x8(%esp)
 804ac6f:	89 44 24 0c          	mov    %eax,0xc(%esp)
 804ac73:	b9 f2 eb 00 00       	mov    $0xebf2,%ecx
 804ac78:	e8 db da 00 00       	call   8058758 <__afl_maybe_log>
 804ac7d:	8b 44 24 0c          	mov    0xc(%esp),%eax
 804ac81:	8b 4c 24 08          	mov    0x8(%esp),%ecx
 804ac85:	8b 54 24 04          	mov    0x4(%esp),%edx
 804ac89:	8b 3c 24             	mov    (%esp),%edi
 804ac8c:	8d 64 24 10          	lea    0x10(%esp),%esp
	report_label_coverage("MCC", 472);
}
if (quiet && !do_check)
 804ac90:	8d 64 24 f0          	lea    -0x10(%esp),%esp
 804ac94:	89 3c 24             	mov    %edi,(%esp)
 804ac97:	89 54 24 04          	mov    %edx,0x4(%esp)
 804ac9b:	89 4c 24 08          	mov    %ecx,0x8(%esp)
 804ac9f:	89 44 24 0c          	mov    %eax,0xc(%esp)
 804aca3:	b9 12 5f 00 00       	mov    $0x5f12,%ecx
 804aca8:	e8 ab da 00 00       	call   8058758 <__afl_maybe_log>
 804acad:	8b 44 24 0c          	mov    0xc(%esp),%eax
 804acb1:	8b 4c 24 08          	mov    0x8(%esp),%ecx
 804acb5:	8b 54 24 04          	mov    0x4(%esp),%edx
 804acb9:	8b 3c 24             	mov    (%esp),%edi
 804acbc:	8d 64 24 10          	lea    0x10(%esp),%esp
 804acc0:	0f b6 8d 7f ff ff ff 	movzbl -0x81(%ebp),%ecx
 804acc7:	38 0d 01 b3 06 08    	cmp    %cl,0x806b301
 804accd:	0f 87 b2 b2 00 00    	ja     8055f85 <main+0xca45>
 804acd3:	90                   	nop
 804acd4:	8d 64 24 f0          	lea    -0x10(%esp),%esp
 804acd8:	89 3c 24             	mov    %edi,(%esp)
 804acdb:	89 54 24 04          	mov    %edx,0x4(%esp)
 804acdf:	89 4c 24 08          	mov    %ecx,0x8(%esp)
 804ace3:	89 44 24 0c          	mov    %eax,0xc(%esp)
 804ace7:	b9 a4 9b 00 00       	mov    $0x9ba4,%ecx
 804acec:	e8 67 da 00 00       	call   8058758 <__afl_maybe_log>
 804acf1:	8b 44 24 0c          	mov    0xc(%esp),%eax
 804acf5:	8b 4c 24 08          	mov    0x8(%esp),%ecx
 804acf9:	8b 54 24 04          	mov    0x4(%esp),%edx
 804acfd:	8b 3c 24             	mov    (%esp),%edi
 804ad00:	8d 64 24 10          	lea    0x10(%esp),%esp
      usage (EXIT_FAILURE);
    }

  
// AOR Label 473
if(strict | !do_check != strict & !do_check)  {asm volatile (""::: "memory");
 804ad04:	0f b6 05 00 b3 06 08 	movzbl 0x806b300,%eax
 804ad0b:	89 f2                	mov    %esi,%edx
 804ad0d:	89 f1                	mov    %esi,%ecx
 804ad0f:	31 c2                	xor    %eax,%edx
 804ad11:	84 ca                	test   %cl,%dl
 804ad13:	0f 85 68 a4 00 00    	jne    8055181 <main+0xbc41>
 804ad19:	8d 76 00             	lea    0x0(%esi),%esi
 804ad1c:	8d 64 24 f0          	lea    -0x10(%esp),%esp
 804ad20:	89 3c 24             	mov    %edi,(%esp)
 804ad23:	89 54 24 04          	mov    %edx,0x4(%esp)
 804ad27:	89 4c 24 08          	mov    %ecx,0x8(%esp)
 804ad2b:	89 44 24 0c          	mov    %eax,0xc(%esp)
 804ad2f:	b9 04 b7 00 00       	mov    $0xb704,%ecx
 804ad34:	e8 1f da 00 00       	call   8058758 <__afl_maybe_log>
 804ad39:	8b 44 24 0c          	mov    0xc(%esp),%eax
 804ad3d:	8b 4c 24 08          	mov    0x8(%esp),%ecx
 804ad41:	8b 54 24 04          	mov    0x4(%esp),%edx
 804ad45:	8b 3c 24             	mov    (%esp),%edi
 804ad48:	8d 64 24 10          	lea    0x10(%esp),%esp
 804ad4c:	84 c0                	test   %al,%al
 804ad4e:	0f 85 2d a4 00 00    	jne    8055181 <main+0xbc41>
 804ad54:	8d 64 24 f0          	lea    -0x10(%esp),%esp
 804ad58:	89 3c 24             	mov    %edi,(%esp)
 804ad5b:	89 54 24 04          	mov    %edx,0x4(%esp)
 804ad5f:	89 4c 24 08          	mov    %ecx,0x8(%esp)
 804ad63:	89 44 24 0c          	mov    %eax,0xc(%esp)
 804ad67:	b9 0a 6d 00 00       	mov    $0x6d0a,%ecx
 804ad6c:	e8 e7 d9 00 00       	call   8058758 <__afl_maybe_log>
 804ad71:	8b 44 24 0c          	mov    0xc(%esp),%eax
 804ad75:	8b 4c 24 08          	mov    0x8(%esp),%ecx
 804ad79:	8b 54 24 04          	mov    0x4(%esp),%edx
 804ad7d:	8b 3c 24             	mov    (%esp),%edi
 804ad80:	8d 64 24 10          	lea    0x10(%esp),%esp
	report_label_coverage("AOR", 473);
}
// AOR Label 474
if(strict ^ !do_check != strict & !do_check)  {asm volatile (""::: "memory");
 804ad84:	8d 64 24 f0          	lea    -0x10(%esp),%esp
 804ad88:	89 3c 24             	mov    %edi,(%esp)
 804ad8b:	89 54 24 04          	mov    %edx,0x4(%esp)
 804ad8f:	89 4c 24 08          	mov    %ecx,0x8(%esp)
 804ad93:	89 44 24 0c          	mov    %eax,0xc(%esp)
 804ad97:	b9 07 58 00 00       	mov    $0x5807,%ecx
 804ad9c:	e8 b7 d9 00 00       	call   8058758 <__afl_maybe_log>
 804ada1:	8b 44 24 0c          	mov    0xc(%esp),%eax
 804ada5:	8b 4c 24 08          	mov    0x8(%esp),%ecx
 804ada9:	8b 54 24 04          	mov    0x4(%esp),%edx
 804adad:	8b 3c 24             	mov    (%esp),%edi
 804adb0:	8d 64 24 10          	lea    0x10(%esp),%esp
 804adb4:	89 f2                	mov    %esi,%edx
 804adb6:	31 c2                	xor    %eax,%edx
 804adb8:	21 f2                	and    %esi,%edx
 804adba:	38 c2                	cmp    %al,%dl
 804adbc:	74 46                	je     804ae04 <main+0x18c4>
 804adbe:	66 90                	xchg   %ax,%ax
 804adc0:	8d 64 24 f0          	lea    -0x10(%esp),%esp
 804adc4:	89 3c 24             	mov    %edi,(%esp)
 804adc7:	89 54 24 04          	mov    %edx,0x4(%esp)
 804adcb:	89 4c 24 08          	mov    %ecx,0x8(%esp)
 804adcf:	89 44 24 0c          	mov    %eax,0xc(%esp)
 804add3:	b9 1d 3b 00 00       	mov    $0x3b1d,%ecx
 804add8:	e8 7b d9 00 00       	call   8058758 <__afl_maybe_log>
 804addd:	8b 44 24 0c          	mov    0xc(%esp),%eax
 804ade1:	8b 4c 24 08          	mov    0x8(%esp),%ecx
 804ade5:	8b 54 24 04          	mov    0x4(%esp),%edx
 804ade9:	8b 3c 24             	mov    (%esp),%edi
 804adec:	8d 64 24 10          	lea    0x10(%esp),%esp
	report_label_coverage("AOR", 474);
 804adf0:	50                   	push   %eax
 804adf1:	50                   	push   %eax
 804adf2:	68 da 01 00 00       	push   $0x1da
 804adf7:	68 cc 70 06 08       	push   $0x80670cc
 804adfc:	e8 bf b2 00 00       	call   80560c0 <report_label_coverage>
 804ae01:	83 c4 10             	add    $0x10,%esp
}
if (strict & !do_check)
 804ae04:	8d 64 24 f0          	lea    -0x10(%esp),%esp
 804ae08:	89 3c 24             	mov    %edi,(%esp)
 804ae0b:	89 54 24 04          	mov    %edx,0x4(%esp)
 804ae0f:	89 4c 24 08          	mov    %ecx,0x8(%esp)
 804ae13:	89 44 24 0c          	mov    %eax,0xc(%esp)
 804ae17:	b9 62 41 00 00       	mov    $0x4162,%ecx
 804ae1c:	e8 37 d9 00 00       	call   8058758 <__afl_maybe_log>
 804ae21:	8b 44 24 0c          	mov    0xc(%esp),%eax
 804ae25:	8b 4c 24 08          	mov    0x8(%esp),%ecx
 804ae29:	8b 54 24 04          	mov    0x4(%esp),%edx
 804ae2d:	8b 3c 24             	mov    (%esp),%edi
 804ae30:	8d 64 24 10          	lea    0x10(%esp),%esp
 804ae34:	0f b6 8d 7f ff ff ff 	movzbl -0x81(%ebp),%ecx
 804ae3b:	38 0d 00 b3 06 08    	cmp    %cl,0x806b300
 804ae41:	0f 87 e6 af 00 00    	ja     8055e2d <main+0xc8ed>
 804ae47:	90                   	nop
 804ae48:	8d 64 24 f0          	lea    -0x10(%esp),%esp
 804ae4c:	89 3c 24             	mov    %edi,(%esp)
 804ae4f:	89 54 24 04          	mov    %edx,0x4(%esp)
 804ae53:	89 4c 24 08          	mov    %ecx,0x8(%esp)
 804ae57:	89 44 24 0c          	mov    %eax,0xc(%esp)
 804ae5b:	b9 02 17 00 00       	mov    $0x1702,%ecx
 804ae60:	e8 f3 d8 00 00       	call   8058758 <__afl_maybe_log>
 804ae65:	8b 44 24 0c          	mov    0xc(%esp),%eax
 804ae69:	8b 4c 24 08          	mov    0x8(%esp),%ecx
 804ae6d:	8b 54 24 04          	mov    0x4(%esp),%edx
 804ae71:	8b 3c 24             	mov    (%esp),%edi
 804ae74:	8d 64 24 10          	lea    0x10(%esp),%esp
     usage (EXIT_FAILURE);
   }

  
// ABS Label 475
if(binary < 0)  {asm volatile (""::: "memory");
 804ae78:	83 bd 74 ff ff ff ff 	cmpl   $0xffffffff,-0x8c(%ebp)
 804ae7f:	0f 84 ea aa 00 00    	je     805596f <main+0xc42f>
 804ae85:	8d 76 00             	lea    0x0(%esi),%esi
 804ae88:	8d 64 24 f0          	lea    -0x10(%esp),%esp
 804ae8c:	89 3c 24             	mov    %edi,(%esp)
 804ae8f:	89 54 24 04          	mov    %edx,0x4(%esp)
 804ae93:	89 4c 24 08          	mov    %ecx,0x8(%esp)
 804ae97:	89 44 24 0c          	mov    %eax,0xc(%esp)
 804ae9b:	b9 28 cc 00 00       	mov    $0xcc28,%ecx
 804aea0:	e8 b3 d8 00 00       	call   8058758 <__afl_maybe_log>
 804aea5:	8b 44 24 0c          	mov    0xc(%esp),%eax
 804aea9:	8b 4c 24 08          	mov    0x8(%esp),%ecx
 804aead:	8b 54 24 04          	mov    0x4(%esp),%edx
 804aeb1:	8b 3c 24             	mov    (%esp),%edi
 804aeb4:	8d 64 24 10          	lea    0x10(%esp),%esp
	report_label_coverage("ABS", 475);
}

// COR Label 476
if((!0 || binary < 0) != (!0 && binary < 0))  {asm volatile (""::: "memory");
	report_label_coverage("COR", 476);
 804aeb8:	50                   	push   %eax
 804aeb9:	50                   	push   %eax
 804aeba:	68 dc 01 00 00       	push   $0x1dc
 804aebf:	68 da 70 06 08       	push   $0x80670da
 804aec4:	e8 f7 b1 00 00       	call   80560c0 <report_label_coverage>
 804aec9:	83 c4 10             	add    $0x10,%esp
}

// ROR Label 477
if((binary <= 0) != (binary < 0))  {asm volatile (""::: "memory");
 804aecc:	8d 64 24 f0          	lea    -0x10(%esp),%esp
 804aed0:	89 3c 24             	mov    %edi,(%esp)
 804aed3:	89 54 24 04          	mov    %edx,0x4(%esp)
 804aed7:	89 4c 24 08          	mov    %ecx,0x8(%esp)
 804aedb:	89 44 24 0c          	mov    %eax,0xc(%esp)
 804aedf:	b9 e9 16 00 00       	mov    $0x16e9,%ecx
 804aee4:	e8 6f d8 00 00       	call   8058758 <__afl_maybe_log>
 804aee9:	8b 44 24 0c          	mov    0xc(%esp),%eax
 804aeed:	8b 4c 24 08          	mov    0x8(%esp),%ecx
 804aef1:	8b 54 24 04          	mov    0x4(%esp),%edx
 804aef5:	8b 3c 24             	mov    (%esp),%edi
 804aef8:	8d 64 24 10          	lea    0x10(%esp),%esp
 804aefc:	89 f8                	mov    %edi,%eax
 804aefe:	3a 45 a0             	cmp    -0x60(%ebp),%al
 804af01:	74 45                	je     804af48 <main+0x1a08>
 804af03:	90                   	nop
 804af04:	8d 64 24 f0          	lea    -0x10(%esp),%esp
 804af08:	89 3c 24             	mov    %edi,(%esp)
 804af0b:	89 54 24 04          	mov    %edx,0x4(%esp)
 804af0f:	89 4c 24 08          	mov    %ecx,0x8(%esp)
 804af13:	89 44 24 0c          	mov    %eax,0xc(%esp)
 804af17:	b9 ae b4 00 00       	mov    $0xb4ae,%ecx
 804af1c:	e8 37 d8 00 00       	call   8058758 <__afl_maybe_log>
 804af21:	8b 44 24 0c          	mov    0xc(%esp),%eax
 804af25:	8b 4c 24 08          	mov    0x8(%esp),%ecx
 804af29:	8b 54 24 04          	mov    0x4(%esp),%edx
 804af2d:	8b 3c 24             	mov    (%esp),%edi
 804af30:	8d 64 24 10          	lea    0x10(%esp),%esp
	report_label_coverage("ROR", 477);
 804af34:	50                   	push   %eax
 804af35:	50                   	push   %eax
 804af36:	68 dd 01 00 00       	push   $0x1dd
 804af3b:	68 c8 70 06 08       	push   $0x80670c8
 804af40:	e8 7b b1 00 00       	call   80560c0 <report_label_coverage>
 804af45:	83 c4 10             	add    $0x10,%esp
}
// ROR Label 478
if((binary > 0) != (binary < 0))  {asm volatile (""::: "memory");
 804af48:	8d 64 24 f0          	lea    -0x10(%esp),%esp
 804af4c:	89 3c 24             	mov    %edi,(%esp)
 804af4f:	89 54 24 04          	mov    %edx,0x4(%esp)
 804af53:	89 4c 24 08          	mov    %ecx,0x8(%esp)
 804af57:	89 44 24 0c          	mov    %eax,0xc(%esp)
 804af5b:	b9 3e 39 00 00       	mov    $0x393e,%ecx
 804af60:	e8 f3 d7 00 00       	call   8058758 <__afl_maybe_log>
 804af65:	8b 44 24 0c          	mov    0xc(%esp),%eax
 804af69:	8b 4c 24 08          	mov    0x8(%esp),%ecx
 804af6d:	8b 54 24 04          	mov    0x4(%esp),%edx
 804af71:	8b 3c 24             	mov    (%esp),%edi
 804af74:	8d 64 24 10          	lea    0x10(%esp),%esp
 804af78:	89 fa                	mov    %edi,%edx
 804af7a:	38 d3                	cmp    %dl,%bl
 804af7c:	74 46                	je     804afc4 <main+0x1a84>
 804af7e:	66 90                	xchg   %ax,%ax
 804af80:	8d 64 24 f0          	lea    -0x10(%esp),%esp
 804af84:	89 3c 24             	mov    %edi,(%esp)
 804af87:	89 54 24 04          	mov    %edx,0x4(%esp)
 804af8b:	89 4c 24 08          	mov    %ecx,0x8(%esp)
 804af8f:	89 44 24 0c          	mov    %eax,0xc(%esp)
 804af93:	b9 c8 d5 00 00       	mov    $0xd5c8,%ecx
 804af98:	e8 bb d7 00 00       	call   8058758 <__afl_maybe_log>
 804af9d:	8b 44 24 0c          	mov    0xc(%esp),%eax
 804afa1:	8b 4c 24 08          	mov    0x8(%esp),%ecx
 804afa5:	8b 54 24 04          	mov    0x4(%esp),%edx
 804afa9:	8b 3c 24             	mov    (%esp),%edi
 804afac:	8d 64 24 10          	lea    0x10(%esp),%esp
	report_label_coverage("ROR", 478);
 804afb0:	50                   	push   %eax
 804afb1:	50                   	push   %eax
 804afb2:	68 de 01 00 00       	push   $0x1de
 804afb7:	68 c8 70 06 08       	push   $0x80670c8
 804afbc:	e8 ff b0 00 00       	call   80560c0 <report_label_coverage>
 804afc1:	83 c4 10             	add    $0x10,%esp
}
// ROR Label 479
if((binary >= 0) != (binary < 0))  {asm volatile (""::: "memory");
 804afc4:	8d 64 24 f0          	lea    -0x10(%esp),%esp
 804afc8:	89 3c 24             	mov    %edi,(%esp)
 804afcb:	89 54 24 04          	mov    %edx,0x4(%esp)
 804afcf:	89 4c 24 08          	mov    %ecx,0x8(%esp)
 804afd3:	89 44 24 0c          	mov    %eax,0xc(%esp)
 804afd7:	b9 c9 3e 00 00       	mov    $0x3ec9,%ecx
 804afdc:	e8 77 d7 00 00       	call   8058758 <__afl_maybe_log>
 804afe1:	8b 44 24 0c          	mov    0xc(%esp),%eax
 804afe5:	8b 4c 24 08          	mov    0x8(%esp),%ecx
 804afe9:	8b 54 24 04          	mov    0x4(%esp),%edx
 804afed:	8b 3c 24             	mov    (%esp),%edi
 804aff0:	8d 64 24 10          	lea    0x10(%esp),%esp
 804aff4:	89 fb                	mov    %edi,%ebx
 804aff6:	38 5d a4             	cmp    %bl,-0x5c(%ebp)
 804aff9:	74 45                	je     804b040 <main+0x1b00>
 804affb:	90                   	nop
 804affc:	8d 64 24 f0          	lea    -0x10(%esp),%esp
 804b000:	89 3c 24             	mov    %edi,(%esp)
 804b003:	89 54 24 04          	mov    %edx,0x4(%esp)
 804b007:	89 4c 24 08          	mov    %ecx,0x8(%esp)
 804b00b:	89 44 24 0c          	mov    %eax,0xc(%esp)
 804b00f:	b9 71 76 00 00       	mov    $0x7671,%ecx
 804b014:	e8 3f d7 00 00       	call   8058758 <__afl_maybe_log>
 804b019:	8b 44 24 0c          	mov    0xc(%esp),%eax
 804b01d:	8b 4c 24 08          	mov    0x8(%esp),%ecx
 804b021:	8b 54 24 04          	mov    0x4(%esp),%edx
 804b025:	8b 3c 24             	mov    (%esp),%edi
 804b028:	8d 64 24 10          	lea    0x10(%esp),%esp
	report_label_coverage("ROR", 479);
 804b02c:	50                   	push   %eax
 804b02d:	50                   	push   %eax
 804b02e:	68 df 01 00 00       	push   $0x1df
 804b033:	68 c8 70 06 08       	push   $0x80670c8
 804b038:	e8 83 b0 00 00       	call   80560c0 <report_label_coverage>
 804b03d:	83 c4 10             	add    $0x10,%esp
}

// MCC Label 480
if(!0 && binary < 0 ) {asm volatile (""::: "memory");
 804b040:	8d 64 24 f0          	lea    -0x10(%esp),%esp
 804b044:	89 3c 24             	mov    %edi,(%esp)
 804b047:	89 54 24 04          	mov    %edx,0x4(%esp)
 804b04b:	89 4c 24 08          	mov    %ecx,0x8(%esp)
 804b04f:	89 44 24 0c          	mov    %eax,0xc(%esp)
 804b053:	b9 ee 11 00 00       	mov    $0x11ee,%ecx
 804b058:	e8 fb d6 00 00       	call   8058758 <__afl_maybe_log>
 804b05d:	8b 44 24 0c          	mov    0xc(%esp),%eax
 804b061:	8b 4c 24 08          	mov    0x8(%esp),%ecx
 804b065:	8b 54 24 04          	mov    0x4(%esp),%edx
 804b069:	8b 3c 24             	mov    (%esp),%edi
 804b06c:	8d 64 24 10          	lea    0x10(%esp),%esp
 804b070:	83 bd 74 ff ff ff ff 	cmpl   $0xffffffff,-0x8c(%ebp)
 804b077:	0f 84 9c a8 00 00    	je     8055919 <main+0xc3d9>
 804b07d:	8d 76 00             	lea    0x0(%esi),%esi
 804b080:	8d 64 24 f0          	lea    -0x10(%esp),%esp
 804b084:	89 3c 24             	mov    %edi,(%esp)
 804b087:	89 54 24 04          	mov    %edx,0x4(%esp)
 804b08b:	89 4c 24 08          	mov    %ecx,0x8(%esp)
 804b08f:	89 44 24 0c          	mov    %eax,0xc(%esp)
 804b093:	b9 97 3e 00 00       	mov    $0x3e97,%ecx
 804b098:	e8 bb d6 00 00       	call   8058758 <__afl_maybe_log>
 804b09d:	8b 44 24 0c          	mov    0xc(%esp),%eax
 804b0a1:	8b 4c 24 08          	mov    0x8(%esp),%ecx
 804b0a5:	8b 54 24 04          	mov    0x4(%esp),%edx
 804b0a9:	8b 3c 24             	mov    (%esp),%edi
 804b0ac:	8d 64 24 10          	lea    0x10(%esp),%esp
	report_label_coverage("MCC", 480);
}
// MCC Label 481
if(!0 && !(binary < 0) ) {asm volatile (""::: "memory");
	report_label_coverage("MCC", 481);
 804b0b0:	57                   	push   %edi
 804b0b1:	57                   	push   %edi
 804b0b2:	68 e1 01 00 00       	push   $0x1e1
 804b0b7:	68 de 70 06 08       	push   $0x80670de
 804b0bc:	e8 ff af 00 00       	call   80560c0 <report_label_coverage>
 804b0c1:	83 c4 10             	add    $0x10,%esp
if (!O_BINARY && binary < 0)
    binary = 0;

  
// ABS Label 484
if(argc < 0)  {asm volatile (""::: "memory");
 804b0c4:	8d 64 24 f0          	lea    -0x10(%esp),%esp
 804b0c8:	89 3c 24             	mov    %edi,(%esp)
 804b0cb:	89 54 24 04          	mov    %edx,0x4(%esp)
 804b0cf:	89 4c 24 08          	mov    %ecx,0x8(%esp)
 804b0d3:	89 44 24 0c          	mov    %eax,0xc(%esp)
 804b0d7:	b9 83 43 00 00       	mov    $0x4383,%ecx
 804b0dc:	e8 77 d6 00 00       	call   8058758 <__afl_maybe_log>
 804b0e1:	8b 44 24 0c          	mov    0xc(%esp),%eax
 804b0e5:	8b 4c 24 08          	mov    0x8(%esp),%ecx
 804b0e9:	8b 54 24 04          	mov    0x4(%esp),%edx
 804b0ed:	8b 3c 24             	mov    (%esp),%edi
 804b0f0:	8d 64 24 10          	lea    0x10(%esp),%esp
 804b0f4:	83 7d 94 00          	cmpl   $0x0,-0x6c(%ebp)
 804b0f8:	0f 88 cf a7 00 00    	js     80558cd <main+0xc38d>
 804b0fe:	66 90                	xchg   %ax,%ax
 804b100:	8d 64 24 f0          	lea    -0x10(%esp),%esp
 804b104:	89 3c 24             	mov    %edi,(%esp)
 804b107:	89 54 24 04          	mov    %edx,0x4(%esp)
 804b10b:	89 4c 24 08          	mov    %ecx,0x8(%esp)
 804b10f:	89 44 24 0c          	mov    %eax,0xc(%esp)
 804b113:	b9 66 23 00 00       	mov    $0x2366,%ecx
 804b118:	e8 3b d6 00 00       	call   8058758 <__afl_maybe_log>
 804b11d:	8b 44 24 0c          	mov    0xc(%esp),%eax
 804b121:	8b 4c 24 08          	mov    0x8(%esp),%ecx
 804b125:	8b 54 24 04          	mov    0x4(%esp),%edx
 804b129:	8b 3c 24             	mov    (%esp),%edi
 804b12c:	8d 64 24 10          	lea    0x10(%esp),%esp
	report_label_coverage("ABS", 484);
}
// ABS Label 485
if(optind < 0)  {asm volatile (""::: "memory");
 804b130:	8d 64 24 f0          	lea    -0x10(%esp),%esp
 804b134:	89 3c 24             	mov    %edi,(%esp)
 804b137:	89 54 24 04          	mov    %edx,0x4(%esp)
 804b13b:	89 4c 24 08          	mov    %ecx,0x8(%esp)
 804b13f:	89 44 24 0c          	mov    %eax,0xc(%esp)
 804b143:	b9 6d 97 00 00       	mov    $0x976d,%ecx
 804b148:	e8 0b d6 00 00       	call   8058758 <__afl_maybe_log>
 804b14d:	8b 44 24 0c          	mov    0xc(%esp),%eax
 804b151:	8b 4c 24 08          	mov    0x8(%esp),%ecx
 804b155:	8b 54 24 04          	mov    0x4(%esp),%edx
 804b159:	8b 3c 24             	mov    (%esp),%edi
 804b15c:	8d 64 24 10          	lea    0x10(%esp),%esp
 804b160:	83 3d cc b2 06 08 00 	cmpl   $0x0,0x806b2cc
 804b167:	0f 88 7c a6 00 00    	js     80557e9 <main+0xc2a9>
 804b16d:	8d 76 00             	lea    0x0(%esi),%esi
 804b170:	8d 64 24 f0          	lea    -0x10(%esp),%esp
 804b174:	89 3c 24             	mov    %edi,(%esp)
 804b177:	89 54 24 04          	mov    %edx,0x4(%esp)
 804b17b:	89 4c 24 08          	mov    %ecx,0x8(%esp)
 804b17f:	89 44 24 0c          	mov    %eax,0xc(%esp)
 804b183:	b9 d7 0b 00 00       	mov    $0xbd7,%ecx
 804b188:	e8 cb d5 00 00       	call   8058758 <__afl_maybe_log>
 804b18d:	8b 44 24 0c          	mov    0xc(%esp),%eax
 804b191:	8b 4c 24 08          	mov    0x8(%esp),%ecx
 804b195:	8b 54 24 04          	mov    0x4(%esp),%edx
 804b199:	8b 3c 24             	mov    (%esp),%edi
 804b19c:	8d 64 24 10          	lea    0x10(%esp),%esp
	report_label_coverage("ABS", 485);
}

// ROR Label 486
if((optind != argc) != (optind == argc))  {asm volatile (""::: "memory");
 804b1a0:	8d 64 24 f0          	lea    -0x10(%esp),%esp
 804b1a4:	89 3c 24             	mov    %edi,(%esp)
 804b1a7:	89 54 24 04          	mov    %edx,0x4(%esp)
 804b1ab:	89 4c 24 08          	mov    %ecx,0x8(%esp)
 804b1af:	89 44 24 0c          	mov    %eax,0xc(%esp)
 804b1b3:	b9 c8 92 00 00       	mov    $0x92c8,%ecx
 804b1b8:	e8 9b d5 00 00       	call   8058758 <__afl_maybe_log>
 804b1bd:	8b 44 24 0c          	mov    0xc(%esp),%eax
 804b1c1:	8b 4c 24 08          	mov    0x8(%esp),%ecx
 804b1c5:	8b 54 24 04          	mov    0x4(%esp),%edx
 804b1c9:	8b 3c 24             	mov    (%esp),%edi
 804b1cc:	8d 64 24 10          	lea    0x10(%esp),%esp
 804b1d0:	a1 cc b2 06 08       	mov    0x806b2cc,%eax
 804b1d5:	8b 75 94             	mov    -0x6c(%ebp),%esi
 804b1d8:	39 f0                	cmp    %esi,%eax
 804b1da:	0f 95 c1             	setne  %cl
 804b1dd:	39 c6                	cmp    %eax,%esi
 804b1df:	0f 94 c2             	sete   %dl
 804b1e2:	38 d1                	cmp    %dl,%cl
 804b1e4:	74 4b                	je     804b231 <main+0x1cf1>
 804b1e6:	66 90                	xchg   %ax,%ax
 804b1e8:	8d 64 24 f0          	lea    -0x10(%esp),%esp
 804b1ec:	89 3c 24             	mov    %edi,(%esp)
 804b1ef:	89 54 24 04          	mov    %edx,0x4(%esp)
 804b1f3:	89 4c 24 08          	mov    %ecx,0x8(%esp)
 804b1f7:	89 44 24 0c          	mov    %eax,0xc(%esp)
 804b1fb:	b9 72 0b 00 00       	mov    $0xb72,%ecx
 804b200:	e8 53 d5 00 00       	call   8058758 <__afl_maybe_log>
 804b205:	8b 44 24 0c          	mov    0xc(%esp),%eax
 804b209:	8b 4c 24 08          	mov    0x8(%esp),%ecx
 804b20d:	8b 54 24 04          	mov    0x4(%esp),%edx
 804b211:	8b 3c 24             	mov    (%esp),%edi
 804b214:	8d 64 24 10          	lea    0x10(%esp),%esp
	report_label_coverage("ROR", 486);
 804b218:	51                   	push   %ecx
 804b219:	51                   	push   %ecx
 804b21a:	68 e6 01 00 00       	push   $0x1e6
 804b21f:	68 c8 70 06 08       	push   $0x80670c8
 804b224:	e8 97 ae 00 00       	call   80560c0 <report_label_coverage>
 804b229:	a1 cc b2 06 08       	mov    0x806b2cc,%eax
 804b22e:	83 c4 10             	add    $0x10,%esp
 804b231:	8d 76 00             	lea    0x0(%esi),%esi
}
if (optind == argc)
 804b234:	8d 64 24 f0          	lea    -0x10(%esp),%esp
 804b238:	89 3c 24             	mov    %edi,(%esp)
 804b23b:	89 54 24 04          	mov    %edx,0x4(%esp)
 804b23f:	89 4c 24 08          	mov    %ecx,0x8(%esp)
 804b243:	89 44 24 0c          	mov    %eax,0xc(%esp)
 804b247:	b9 dd 8f 00 00       	mov    $0x8fdd,%ecx
 804b24c:	e8 07 d5 00 00       	call   8058758 <__afl_maybe_log>
 804b251:	8b 44 24 0c          	mov    0xc(%esp),%eax
 804b255:	8b 4c 24 08          	mov    0x8(%esp),%ecx
 804b259:	8b 54 24 04          	mov    0x4(%esp),%edx
 804b25d:	8b 3c 24             	mov    (%esp),%edi
 804b260:	8d 64 24 10          	lea    0x10(%esp),%esp
 804b264:	3b 45 94             	cmp    -0x6c(%ebp),%eax
 804b267:	0f 84 67 9f 00 00    	je     80551d4 <main+0xbc94>
 804b26d:	8d 76 00             	lea    0x0(%esi),%esi
 804b270:	8d 64 24 f0          	lea    -0x10(%esp),%esp
 804b274:	89 3c 24             	mov    %edi,(%esp)
 804b277:	89 54 24 04          	mov    %edx,0x4(%esp)
 804b27b:	89 4c 24 08          	mov    %ecx,0x8(%esp)
 804b27f:	89 44 24 0c          	mov    %eax,0xc(%esp)
 804b283:	b9 b2 1e 00 00       	mov    $0x1eb2,%ecx
 804b288:	e8 cb d4 00 00       	call   8058758 <__afl_maybe_log>
 804b28d:	8b 44 24 0c          	mov    0xc(%esp),%eax
 804b291:	8b 4c 24 08          	mov    0x8(%esp),%ecx
 804b295:	8b 54 24 04          	mov    0x4(%esp),%edx
 804b299:	8b 3c 24             	mov    (%esp),%edi
 804b29c:	8d 64 24 10          	lea    0x10(%esp),%esp
    argv[argc++] = bad_cast ("-");

  
// ABS Label 487
if(argc < 0)  {asm volatile (""::: "memory");
 804b2a0:	8d 64 24 f0          	lea    -0x10(%esp),%esp
 804b2a4:	89 3c 24             	mov    %edi,(%esp)
 804b2a7:	89 54 24 04          	mov    %edx,0x4(%esp)
 804b2ab:	89 4c 24 08          	mov    %ecx,0x8(%esp)
 804b2af:	89 44 24 0c          	mov    %eax,0xc(%esp)
 804b2b3:	b9 b1 be 00 00       	mov    $0xbeb1,%ecx
 804b2b8:	e8 9b d4 00 00       	call   8058758 <__afl_maybe_log>
 804b2bd:	8b 44 24 0c          	mov    0xc(%esp),%eax
 804b2c1:	8b 4c 24 08          	mov    0x8(%esp),%ecx
 804b2c5:	8b 54 24 04          	mov    0x4(%esp),%edx
 804b2c9:	8b 3c 24             	mov    (%esp),%edi
 804b2cc:	8d 64 24 10          	lea    0x10(%esp),%esp
 804b2d0:	83 7d 94 00          	cmpl   $0x0,-0x6c(%ebp)
 804b2d4:	0f 88 a7 a5 00 00    	js     8055881 <main+0xc341>
 804b2da:	66 90                	xchg   %ax,%ax
 804b2dc:	8d 64 24 f0          	lea    -0x10(%esp),%esp
 804b2e0:	89 3c 24             	mov    %edi,(%esp)
 804b2e3:	89 54 24 04          	mov    %edx,0x4(%esp)
 804b2e7:	89 4c 24 08          	mov    %ecx,0x8(%esp)
 804b2eb:	89 44 24 0c          	mov    %eax,0xc(%esp)
 804b2ef:	b9 50 92 00 00       	mov    $0x9250,%ecx
 804b2f4:	e8 5f d4 00 00       	call   8058758 <__afl_maybe_log>
 804b2f9:	8b 44 24 0c          	mov    0xc(%esp),%eax
 804b2fd:	8b 4c 24 08          	mov    0x8(%esp),%ecx
 804b301:	8b 54 24 04          	mov    0x4(%esp),%edx
 804b305:	8b 3c 24             	mov    (%esp),%edi
 804b308:	8d 64 24 10          	lea    0x10(%esp),%esp
	report_label_coverage("ABS", 487);
}
// ABS Label 488
if(optind < 0)  {asm volatile (""::: "memory");
 804b30c:	8d 64 24 f0          	lea    -0x10(%esp),%esp
 804b310:	89 3c 24             	mov    %edi,(%esp)
 804b313:	89 54 24 04          	mov    %edx,0x4(%esp)
 804b317:	89 4c 24 08          	mov    %ecx,0x8(%esp)
 804b31b:	89 44 24 0c          	mov    %eax,0xc(%esp)
 804b31f:	b9 e2 1f 00 00       	mov    $0x1fe2,%ecx
 804b324:	e8 2f d4 00 00       	call   8058758 <__afl_maybe_log>
 804b329:	8b 44 24 0c          	mov    0xc(%esp),%eax
 804b32d:	8b 4c 24 08          	mov    0x8(%esp),%ecx
 804b331:	8b 54 24 04          	mov    0x4(%esp),%edx
 804b335:	8b 3c 24             	mov    (%esp),%edi
 804b338:	8d 64 24 10          	lea    0x10(%esp),%esp
 804b33c:	83 3d cc b2 06 08 00 	cmpl   $0x0,0x806b2cc
 804b343:	0f 88 ec a4 00 00    	js     8055835 <main+0xc2f5>
 804b349:	8d 76 00             	lea    0x0(%esi),%esi
 804b34c:	8d 64 24 f0          	lea    -0x10(%esp),%esp
 804b350:	89 3c 24             	mov    %edi,(%esp)
 804b353:	89 54 24 04          	mov    %edx,0x4(%esp)
 804b357:	89 4c 24 08          	mov    %ecx,0x8(%esp)
 804b35b:	89 44 24 0c          	mov    %eax,0xc(%esp)
 804b35f:	b9 b4 90 00 00       	mov    $0x90b4,%ecx
 804b364:	e8 ef d3 00 00       	call   8058758 <__afl_maybe_log>
 804b369:	8b 44 24 0c          	mov    0xc(%esp),%eax
 804b36d:	8b 4c 24 08          	mov    0x8(%esp),%ecx
 804b371:	8b 54 24 04          	mov    0x4(%esp),%edx
 804b375:	8b 3c 24             	mov    (%esp),%edi
 804b378:	8d 64 24 10          	lea    0x10(%esp),%esp
	report_label_coverage("ABS", 488);
}

// ROR Label 489
if((optind <= argc) != (optind < argc))  {asm volatile (""::: "memory");
 804b37c:	8d 64 24 f0          	lea    -0x10(%esp),%esp
 804b380:	89 3c 24             	mov    %edi,(%esp)
 804b383:	89 54 24 04          	mov    %edx,0x4(%esp)
 804b387:	89 4c 24 08          	mov    %ecx,0x8(%esp)
 804b38b:	89 44 24 0c          	mov    %eax,0xc(%esp)
 804b38f:	b9 b1 41 00 00       	mov    $0x41b1,%ecx
 804b394:	e8 bf d3 00 00       	call   8058758 <__afl_maybe_log>
 804b399:	8b 44 24 0c          	mov    0xc(%esp),%eax
 804b39d:	8b 4c 24 08          	mov    0x8(%esp),%ecx
 804b3a1:	8b 54 24 04          	mov    0x4(%esp),%edx
 804b3a5:	8b 3c 24             	mov    (%esp),%edi
 804b3a8:	8d 64 24 10          	lea    0x10(%esp),%esp
 804b3ac:	a1 cc b2 06 08       	mov    0x806b2cc,%eax
 804b3b1:	8b 5d 94             	mov    -0x6c(%ebp),%ebx
 804b3b4:	39 d8                	cmp    %ebx,%eax
 804b3b6:	0f 9e c1             	setle  %cl
 804b3b9:	39 c3                	cmp    %eax,%ebx
 804b3bb:	0f 9f c2             	setg   %dl
 804b3be:	38 d1                	cmp    %dl,%cl
 804b3c0:	74 4b                	je     804b40d <main+0x1ecd>
 804b3c2:	66 90                	xchg   %ax,%ax
 804b3c4:	8d 64 24 f0          	lea    -0x10(%esp),%esp
 804b3c8:	89 3c 24             	mov    %edi,(%esp)
 804b3cb:	89 54 24 04          	mov    %edx,0x4(%esp)
 804b3cf:	89 4c 24 08          	mov    %ecx,0x8(%esp)
 804b3d3:	89 44 24 0c          	mov    %eax,0xc(%esp)
 804b3d7:	b9 67 89 00 00       	mov    $0x8967,%ecx
 804b3dc:	e8 77 d3 00 00       	call   8058758 <__afl_maybe_log>
 804b3e1:	8b 44 24 0c          	mov    0xc(%esp),%eax
 804b3e5:	8b 4c 24 08          	mov    0x8(%esp),%ecx
 804b3e9:	8b 54 24 04          	mov    0x4(%esp),%edx
 804b3ed:	8b 3c 24             	mov    (%esp),%edi
 804b3f0:	8d 64 24 10          	lea    0x10(%esp),%esp
	report_label_coverage("ROR", 489);
 804b3f4:	50                   	push   %eax
 804b3f5:	50                   	push   %eax
 804b3f6:	68 e9 01 00 00       	push   $0x1e9
 804b3fb:	68 c8 70 06 08       	push   $0x80670c8
 804b400:	e8 bb ac 00 00       	call   80560c0 <report_label_coverage>
 804b405:	a1 cc b2 06 08       	mov    0x806b2cc,%eax
 804b40a:	83 c4 10             	add    $0x10,%esp
 804b40d:	8d 76 00             	lea    0x0(%esi),%esi
}
// ROR Label 490
if((optind > argc) != (optind < argc))  {asm volatile (""::: "memory");
 804b410:	8d 64 24 f0          	lea    -0x10(%esp),%esp
 804b414:	89 3c 24             	mov    %edi,(%esp)
 804b417:	89 54 24 04          	mov    %edx,0x4(%esp)
 804b41b:	89 4c 24 08          	mov    %ecx,0x8(%esp)
 804b41f:	89 44 24 0c          	mov    %eax,0xc(%esp)
 804b423:	b9 a8 dc 00 00       	mov    $0xdca8,%ecx
 804b428:	e8 2b d3 00 00       	call   8058758 <__afl_maybe_log>
 804b42d:	8b 44 24 0c          	mov    0xc(%esp),%eax
 804b431:	8b 4c 24 08          	mov    0x8(%esp),%ecx
 804b435:	8b 54 24 04          	mov    0x4(%esp),%edx
 804b439:	8b 3c 24             	mov    (%esp),%edi
 804b43c:	8d 64 24 10          	lea    0x10(%esp),%esp
 804b440:	8b 75 94             	mov    -0x6c(%ebp),%esi
 804b443:	39 f0                	cmp    %esi,%eax
 804b445:	0f 9f c3             	setg   %bl
 804b448:	39 c6                	cmp    %eax,%esi
 804b44a:	0f 9f c1             	setg   %cl
 804b44d:	38 cb                	cmp    %cl,%bl
 804b44f:	74 4c                	je     804b49d <main+0x1f5d>
 804b451:	8d 76 00             	lea    0x0(%esi),%esi
 804b454:	8d 64 24 f0          	lea    -0x10(%esp),%esp
 804b458:	89 3c 24             	mov    %edi,(%esp)
 804b45b:	89 54 24 04          	mov    %edx,0x4(%esp)
 804b45f:	89 4c 24 08          	mov    %ecx,0x8(%esp)
 804b463:	89 44 24 0c          	mov    %eax,0xc(%esp)
 804b467:	b9 32 01 00 00       	mov    $0x132,%ecx
 804b46c:	e8 e7 d2 00 00       	call   8058758 <__afl_maybe_log>
 804b471:	8b 44 24 0c          	mov    0xc(%esp),%eax
 804b475:	8b 4c 24 08          	mov    0x8(%esp),%ecx
 804b479:	8b 54 24 04          	mov    0x4(%esp),%edx
 804b47d:	8b 3c 24             	mov    (%esp),%edi
 804b480:	8d 64 24 10          	lea    0x10(%esp),%esp
	report_label_coverage("ROR", 490);
 804b484:	50                   	push   %eax
 804b485:	50                   	push   %eax
 804b486:	68 ea 01 00 00       	push   $0x1ea
 804b48b:	68 c8 70 06 08       	push   $0x80670c8
 804b490:	e8 2b ac 00 00       	call   80560c0 <report_label_coverage>
 804b495:	a1 cc b2 06 08       	mov    0x806b2cc,%eax
 804b49a:	83 c4 10             	add    $0x10,%esp
 804b49d:	8d 76 00             	lea    0x0(%esi),%esi
}
// ROR Label 491
if((optind >= argc) != (optind < argc))  {asm volatile (""::: "memory");
 804b4a0:	8d 64 24 f0          	lea    -0x10(%esp),%esp
 804b4a4:	89 3c 24             	mov    %edi,(%esp)
 804b4a7:	89 54 24 04          	mov    %edx,0x4(%esp)
 804b4ab:	89 4c 24 08          	mov    %ecx,0x8(%esp)
 804b4af:	89 44 24 0c          	mov    %eax,0xc(%esp)
 804b4b3:	b9 9a bd 00 00       	mov    $0xbd9a,%ecx
 804b4b8:	e8 9b d2 00 00       	call   8058758 <__afl_maybe_log>
 804b4bd:	8b 44 24 0c          	mov    0xc(%esp),%eax
 804b4c1:	8b 4c 24 08          	mov    0x8(%esp),%ecx
 804b4c5:	8b 54 24 04          	mov    0x4(%esp),%edx
 804b4c9:	8b 3c 24             	mov    (%esp),%edi
 804b4cc:	8d 64 24 10          	lea    0x10(%esp),%esp
 804b4d0:	8b 7d 94             	mov    -0x6c(%ebp),%edi
 804b4d3:	39 f8                	cmp    %edi,%eax
 804b4d5:	0f 9d c3             	setge  %bl
 804b4d8:	39 c7                	cmp    %eax,%edi
 804b4da:	0f 9f c2             	setg   %dl
 804b4dd:	38 d3                	cmp    %dl,%bl
 804b4df:	74 4c                	je     804b52d <main+0x1fed>
 804b4e1:	8d 76 00             	lea    0x0(%esi),%esi
 804b4e4:	8d 64 24 f0          	lea    -0x10(%esp),%esp
 804b4e8:	89 3c 24             	mov    %edi,(%esp)
 804b4eb:	89 54 24 04          	mov    %edx,0x4(%esp)
 804b4ef:	89 4c 24 08          	mov    %ecx,0x8(%esp)
 804b4f3:	89 44 24 0c          	mov    %eax,0xc(%esp)
 804b4f7:	b9 b8 d0 00 00       	mov    $0xd0b8,%ecx
 804b4fc:	e8 57 d2 00 00       	call   8058758 <__afl_maybe_log>
 804b501:	8b 44 24 0c          	mov    0xc(%esp),%eax
 804b505:	8b 4c 24 08          	mov    0x8(%esp),%ecx
 804b509:	8b 54 24 04          	mov    0x4(%esp),%edx
 804b50d:	8b 3c 24             	mov    (%esp),%edi
 804b510:	8d 64 24 10          	lea    0x10(%esp),%esp
	report_label_coverage("ROR", 491);
 804b514:	50                   	push   %eax
 804b515:	50                   	push   %eax
 804b516:	68 eb 01 00 00       	push   $0x1eb
 804b51b:	68 c8 70 06 08       	push   $0x80670c8
 804b520:	e8 9b ab 00 00       	call   80560c0 <report_label_coverage>
 804b525:	a1 cc b2 06 08       	mov    0x806b2cc,%eax
 804b52a:	83 c4 10             	add    $0x10,%esp
 804b52d:	8d 76 00             	lea    0x0(%esi),%esi
}
for (; optind < argc; ++optind)
 804b530:	8d 64 24 f0          	lea    -0x10(%esp),%esp
 804b534:	89 3c 24             	mov    %edi,(%esp)
 804b537:	89 54 24 04          	mov    %edx,0x4(%esp)
 804b53b:	89 4c 24 08          	mov    %ecx,0x8(%esp)
 804b53f:	89 44 24 0c          	mov    %eax,0xc(%esp)
 804b543:	b9 07 a0 00 00       	mov    $0xa007,%ecx
 804b548:	e8 0b d2 00 00       	call   8058758 <__afl_maybe_log>
 804b54d:	8b 44 24 0c          	mov    0xc(%esp),%eax
 804b551:	8b 4c 24 08          	mov    0x8(%esp),%ecx
 804b555:	8b 54 24 04          	mov    0x4(%esp),%edx
 804b559:	8b 3c 24             	mov    (%esp),%edi
 804b55c:	8d 64 24 10          	lea    0x10(%esp),%esp
 804b560:	39 45 94             	cmp    %eax,-0x6c(%ebp)
static inline void *
ptr_align (void const *ptr, size_t alignment)
{
  char const *p0 = ptr;
  char const *p1 = p0 + alignment - 1;
  return (void *) (p1 - (size_t) p1 % alignment);
 804b563:	c6 85 62 ff ff ff 01 	movb   $0x1,-0x9e(%ebp)
 804b56a:	0f 8e 08 0b 00 00    	jle    804c078 <main+0x2b38>
 804b570:	8d 64 24 f0          	lea    -0x10(%esp),%esp
 804b574:	89 3c 24             	mov    %edi,(%esp)
 804b577:	89 54 24 04          	mov    %edx,0x4(%esp)
 804b57b:	89 4c 24 08          	mov    %ecx,0x8(%esp)
 804b57f:	89 44 24 0c          	mov    %eax,0xc(%esp)
 804b583:	b9 91 27 00 00       	mov    $0x2791,%ecx
 804b588:	e8 cb d1 00 00       	call   8058758 <__afl_maybe_log>
 804b58d:	8b 44 24 0c          	mov    0xc(%esp),%eax
 804b591:	8b 4c 24 08          	mov    0x8(%esp),%ecx
 804b595:	8b 54 24 04          	mov    0x4(%esp),%edx
 804b599:	8b 3c 24             	mov    (%esp),%edi
 804b59c:	8d 64 24 10          	lea    0x10(%esp),%esp
 804b5a0:	8d 75 d7             	lea    -0x29(%ebp),%esi
 804b5a3:	83 e6 03             	and    $0x3,%esi
 804b5a6:	89 b5 3c ff ff ff    	mov    %esi,-0xc4(%ebp)
 804b5ac:	8d 74 26 00          	lea    0x0(%esi,%eiz,1),%esi
// ABS Label 497
if(argv[optind] < 0)  {asm volatile (""::: "memory");
	report_label_coverage("ABS", 497);
}
// ABS Label 498
if(optind < 0)  {asm volatile (""::: "memory");
 804b5b0:	85 c0                	test   %eax,%eax
 804b5b2:	0f 88 83 7b 00 00    	js     805313b <main+0x9bfb>
 804b5b8:	8d 64 24 f0          	lea    -0x10(%esp),%esp
 804b5bc:	89 3c 24             	mov    %edi,(%esp)
 804b5bf:	89 54 24 04          	mov    %edx,0x4(%esp)
 804b5c3:	89 4c 24 08          	mov    %ecx,0x8(%esp)
 804b5c7:	89 44 24 0c          	mov    %eax,0xc(%esp)
 804b5cb:	b9 03 33 00 00       	mov    $0x3303,%ecx
 804b5d0:	e8 83 d1 00 00       	call   8058758 <__afl_maybe_log>
 804b5d5:	8b 44 24 0c          	mov    0xc(%esp),%eax
 804b5d9:	8b 4c 24 08          	mov    0x8(%esp),%ecx
 804b5dd:	8b 54 24 04          	mov    0x4(%esp),%edx
 804b5e1:	8b 3c 24             	mov    (%esp),%edi
 804b5e4:	8d 64 24 10          	lea    0x10(%esp),%esp
	report_label_coverage("ABS", 498);
}
char *file = argv[optind];
 804b5e8:	8d 64 24 f0          	lea    -0x10(%esp),%esp
 804b5ec:	89 3c 24             	mov    %edi,(%esp)
 804b5ef:	89 54 24 04          	mov    %edx,0x4(%esp)
 804b5f3:	89 4c 24 08          	mov    %ecx,0x8(%esp)
 804b5f7:	89 44 24 0c          	mov    %eax,0xc(%esp)
 804b5fb:	b9 a6 b9 00 00       	mov    $0xb9a6,%ecx
 804b600:	e8 53 d1 00 00       	call   8058758 <__afl_maybe_log>
 804b605:	8b 44 24 0c          	mov    0xc(%esp),%eax
 804b609:	8b 4c 24 08          	mov    0x8(%esp),%ecx
 804b60d:	8b 54 24 04          	mov    0x4(%esp),%edx
 804b611:	8b 3c 24             	mov    (%esp),%edi
 804b614:	8d 64 24 10          	lea    0x10(%esp),%esp
 804b618:	a1 cc b2 06 08       	mov    0x806b2cc,%eax
 804b61d:	8b 4d 90             	mov    -0x70(%ebp),%ecx
      
// ABS Label 499
if(do_check < 0)  {asm volatile (""::: "memory");
	report_label_coverage("ABS", 499);
}
if (do_check)
 804b620:	80 bd 7f ff ff ff 00 	cmpb   $0x0,-0x81(%ebp)
}
// ABS Label 498
if(optind < 0)  {asm volatile (""::: "memory");
	report_label_coverage("ABS", 498);
}
char *file = argv[optind];
 804b627:	8b 3c 81             	mov    (%ecx,%eax,4),%edi
 804b62a:	89 7d 80             	mov    %edi,-0x80(%ebp)
      
// ABS Label 499
if(do_check < 0)  {asm volatile (""::: "memory");
	report_label_coverage("ABS", 499);
}
if (do_check)
 804b62d:	0f 85 85 0f 00 00    	jne    804c5b8 <main+0x3078>
 804b633:	90                   	nop
 804b634:	8d 64 24 f0          	lea    -0x10(%esp),%esp
 804b638:	89 3c 24             	mov    %edi,(%esp)
 804b63b:	89 54 24 04          	mov    %edx,0x4(%esp)
 804b63f:	89 4c 24 08          	mov    %ecx,0x8(%esp)
 804b643:	89 44 24 0c          	mov    %eax,0xc(%esp)
 804b647:	b9 4b fb 00 00       	mov    $0xfb4b,%ecx
 804b64c:	e8 07 d1 00 00       	call   8058758 <__afl_maybe_log>
 804b651:	8b 44 24 0c          	mov    0xc(%esp),%eax
 804b655:	8b 4c 24 08          	mov    0x8(%esp),%ecx
 804b659:	8b 54 24 04          	mov    0x4(%esp),%edx
 804b65d:	8b 3c 24             	mov    (%esp),%edi
 804b660:	8d 64 24 10          	lea    0x10(%esp),%esp
          
// ABS Label 500
if(binary < 0)  {asm volatile (""::: "memory");
	report_label_coverage("ABS", 500);
}
int file_is_binary = binary;
 804b664:	8b 9d 74 ff ff ff    	mov    -0x8c(%ebp),%ebx

          {
    int temp_1 = !digest_file(file, &file_is_binary, bin_buffer);
 804b66a:	8b 45 80             	mov    -0x80(%ebp),%eax
 804b66d:	8d 4d c0             	lea    -0x40(%ebp),%ecx
 804b670:	8d 55 d4             	lea    -0x2c(%ebp),%edx
          
// ABS Label 500
if(binary < 0)  {asm volatile (""::: "memory");
	report_label_coverage("ABS", 500);
}
int file_is_binary = binary;
 804b673:	89 5d d4             	mov    %ebx,-0x2c(%ebp)

          {
    int temp_1 = !digest_file(file, &file_is_binary, bin_buffer);
 804b676:	e8 55 bd 00 00       	call   80573d0 <digest_file>
    
// ABS Label 501
if(temp_1 < 0)  {asm volatile (""::: "memory");
	report_label_coverage("ABS", 501);
}
if (temp_1)
 804b67b:	84 c0                	test   %al,%al
 804b67d:	0f 84 f9 0e 00 00    	je     804c57c <main+0x303c>
 804b683:	90                   	nop
 804b684:	8d 64 24 f0          	lea    -0x10(%esp),%esp
 804b688:	89 3c 24             	mov    %edi,(%esp)
 804b68b:	89 54 24 04          	mov    %edx,0x4(%esp)
 804b68f:	89 4c 24 08          	mov    %ecx,0x8(%esp)
 804b693:	89 44 24 0c          	mov    %eax,0xc(%esp)
 804b697:	b9 4f c9 00 00       	mov    $0xc94f,%ecx
 804b69c:	e8 b7 d0 00 00       	call   8058758 <__afl_maybe_log>
 804b6a1:	8b 44 24 0c          	mov    0xc(%esp),%eax
 804b6a5:	8b 4c 24 08          	mov    0x8(%esp),%ecx
 804b6a9:	8b 54 24 04          	mov    0x4(%esp),%edx
 804b6ad:	8b 3c 24             	mov    (%esp),%edi
 804b6b0:	8d 64 24 10          	lea    0x10(%esp),%esp
        ok = 0;
    else {
        _Bool needs_escape = strchr(file, '\\') || strchr(file, '\n');
 804b6b4:	53                   	push   %ebx
 804b6b5:	53                   	push   %ebx
 804b6b6:	6a 5c                	push   $0x5c
 804b6b8:	ff 75 80             	pushl  -0x80(%ebp)
 804b6bb:	e8 80 dc ff ff       	call   8049340 <strchr@plt>
 804b6c0:	83 c4 10             	add    $0x10,%esp
 804b6c3:	85 c0                	test   %eax,%eax
 804b6c5:	0f 84 77 8e 00 00    	je     8054542 <main+0xb002>
 804b6cb:	90                   	nop
 804b6cc:	8d 64 24 f0          	lea    -0x10(%esp),%esp
 804b6d0:	89 3c 24             	mov    %edi,(%esp)
 804b6d3:	89 54 24 04          	mov    %edx,0x4(%esp)
 804b6d7:	89 4c 24 08          	mov    %ecx,0x8(%esp)
 804b6db:	89 44 24 0c          	mov    %eax,0xc(%esp)
 804b6df:	b9 bc f2 00 00       	mov    $0xf2bc,%ecx
 804b6e4:	e8 6f d0 00 00       	call   8058758 <__afl_maybe_log>
 804b6e9:	8b 44 24 0c          	mov    0xc(%esp),%eax
 804b6ed:	8b 4c 24 08          	mov    0x8(%esp),%ecx
 804b6f1:	8b 54 24 04          	mov    0x4(%esp),%edx
 804b6f5:	8b 3c 24             	mov    (%esp),%edi
 804b6f8:	8d 64 24 10          	lea    0x10(%esp),%esp
        
// ABS Label 502
if(prefix_tag < 0)  {asm volatile (""::: "memory");
	report_label_coverage("ABS", 502);
}
if (prefix_tag) {
 804b6fc:	80 bd 7e ff ff ff 00 	cmpb   $0x0,-0x82(%ebp)
	report_label_coverage("ABS", 501);
}
if (temp_1)
        ok = 0;
    else {
        _Bool needs_escape = strchr(file, '\\') || strchr(file, '\n');
 804b703:	bb 01 00 00 00       	mov    $0x1,%ebx
 804b708:	be 01 00 00 00       	mov    $0x1,%esi
        
// ABS Label 502
if(prefix_tag < 0)  {asm volatile (""::: "memory");
	report_label_coverage("ABS", 502);
}
if (prefix_tag) {
 804b70d:	0f 84 5e 89 00 00    	je     8054071 <main+0xab31>
 804b713:	90                   	nop
 804b714:	8d 64 24 f0          	lea    -0x10(%esp),%esp
 804b718:	89 3c 24             	mov    %edi,(%esp)
 804b71b:	89 54 24 04          	mov    %edx,0x4(%esp)
 804b71f:	89 4c 24 08          	mov    %ecx,0x8(%esp)
 804b723:	89 44 24 0c          	mov    %eax,0xc(%esp)
 804b727:	b9 8e ee 00 00       	mov    $0xee8e,%ecx
 804b72c:	e8 27 d0 00 00       	call   8058758 <__afl_maybe_log>
 804b731:	8b 44 24 0c          	mov    0xc(%esp),%eax
 804b735:	8b 4c 24 08          	mov    0x8(%esp),%ecx
 804b739:	8b 54 24 04          	mov    0x4(%esp),%edx
 804b73d:	8b 3c 24             	mov    (%esp),%edi
 804b740:	8d 64 24 10          	lea    0x10(%esp),%esp

/* This is defined in POSIX.1:1996.  */
__STDIO_INLINE int
putchar_unlocked (int __c)
{
  return _IO_putc_unlocked (__c, stdout);
 804b744:	8d 64 24 f0          	lea    -0x10(%esp),%esp
 804b748:	89 3c 24             	mov    %edi,(%esp)
 804b74b:	89 54 24 04          	mov    %edx,0x4(%esp)
 804b74f:	89 4c 24 08          	mov    %ecx,0x8(%esp)
 804b753:	89 44 24 0c          	mov    %eax,0xc(%esp)
 804b757:	b9 f3 51 00 00       	mov    $0x51f3,%ecx
 804b75c:	e8 f7 cf 00 00       	call   8058758 <__afl_maybe_log>
 804b761:	8b 44 24 0c          	mov    0xc(%esp),%eax
 804b765:	8b 4c 24 08          	mov    0x8(%esp),%ecx
 804b769:	8b 54 24 04          	mov    0x4(%esp),%edx
 804b76d:	8b 3c 24             	mov    (%esp),%edi
 804b770:	8d 64 24 10          	lea    0x10(%esp),%esp
 804b774:	a1 d8 b2 06 08       	mov    0x806b2d8,%eax
 804b779:	8b 50 14             	mov    0x14(%eax),%edx
 804b77c:	3b 50 18             	cmp    0x18(%eax),%edx
 804b77f:	0f 83 d8 a3 00 00    	jae    8055b5d <main+0xc61d>
 804b785:	8d 76 00             	lea    0x0(%esi),%esi
 804b788:	8d 64 24 f0          	lea    -0x10(%esp),%esp
 804b78c:	89 3c 24             	mov    %edi,(%esp)
 804b78f:	89 54 24 04          	mov    %edx,0x4(%esp)
 804b793:	89 4c 24 08          	mov    %ecx,0x8(%esp)
 804b797:	89 44 24 0c          	mov    %eax,0xc(%esp)
 804b79b:	b9 85 9c 00 00       	mov    $0x9c85,%ecx
 804b7a0:	e8 b3 cf 00 00       	call   8058758 <__afl_maybe_log>
 804b7a5:	8b 44 24 0c          	mov    0xc(%esp),%eax
 804b7a9:	8b 4c 24 08          	mov    0x8(%esp),%ecx
 804b7ad:	8b 54 24 04          	mov    0x4(%esp),%edx
 804b7b1:	8b 3c 24             	mov    (%esp),%edi
 804b7b4:	8d 64 24 10          	lea    0x10(%esp),%esp
 804b7b8:	8d 4a 01             	lea    0x1(%edx),%ecx
 804b7bb:	be 01 00 00 00       	mov    $0x1,%esi
 804b7c0:	89 48 14             	mov    %ecx,0x14(%eax)
 804b7c3:	c6 02 5c             	movb   $0x5c,(%edx)
 804b7c6:	66 90                	xchg   %ax,%ax
if(needs_escape < 0)  {asm volatile (""::: "memory");
	report_label_coverage("ABS", 506);
}
if (needs_escape)
                putchar_unlocked('\\');
            fputs_unlocked(DIGEST_TYPE_STRING, stdout);
 804b7c8:	8d 64 24 f0          	lea    -0x10(%esp),%esp
 804b7cc:	89 3c 24             	mov    %edi,(%esp)
 804b7cf:	89 54 24 04          	mov    %edx,0x4(%esp)
 804b7d3:	89 4c 24 08          	mov    %ecx,0x8(%esp)
 804b7d7:	89 44 24 0c          	mov    %eax,0xc(%esp)
 804b7db:	b9 a0 d6 00 00       	mov    $0xd6a0,%ecx
 804b7e0:	e8 73 cf 00 00       	call   8058758 <__afl_maybe_log>
 804b7e5:	8b 44 24 0c          	mov    0xc(%esp),%eax
 804b7e9:	8b 4c 24 08          	mov    0x8(%esp),%ecx
 804b7ed:	8b 54 24 04          	mov    0x4(%esp),%edx
 804b7f1:	8b 3c 24             	mov    (%esp),%edi
 804b7f4:	8d 64 24 10          	lea    0x10(%esp),%esp
 804b7f8:	ff 35 d8 b2 06 08    	pushl  0x806b2d8
 804b7fe:	6a 03                	push   $0x3
 804b800:	6a 01                	push   $0x1
 804b802:	68 eb 70 06 08       	push   $0x80670eb
 804b807:	e8 f4 db ff ff       	call   8049400 <fwrite_unlocked@plt>
            
// ABS Label 503
if(stdout < 0)  {asm volatile (""::: "memory");
	report_label_coverage("ABS", 503);
}
fputs_unlocked(" (", stdout);
 804b80c:	ff 35 d8 b2 06 08    	pushl  0x806b2d8
 804b812:	6a 02                	push   $0x2
 804b814:	6a 01                	push   $0x1
 804b816:	68 29 72 06 08       	push   $0x8067229
 804b81b:	e8 e0 db ff ff       	call   8049400 <fwrite_unlocked@plt>
            
// ABS Label 504
if(needs_escape < 0)  {asm volatile (""::: "memory");
	report_label_coverage("ABS", 504);
}
print_filename(file, needs_escape);
 804b820:	8b 45 80             	mov    -0x80(%ebp),%eax
 804b823:	83 c4 20             	add    $0x20,%esp
 804b826:	89 f2                	mov    %esi,%edx
 804b828:	e8 03 b1 00 00       	call   8056930 <print_filename>
            
// ABS Label 505
if(stdout < 0)  {asm volatile (""::: "memory");
	report_label_coverage("ABS", 505);
}
fputs_unlocked(") = ", stdout);
 804b82d:	ff 35 d8 b2 06 08    	pushl  0x806b2d8
 804b833:	6a 04                	push   $0x4
 804b835:	6a 01                	push   $0x1
 804b837:	68 2c 72 06 08       	push   $0x806722c
 804b83c:	e8 bf db ff ff       	call   8049400 <fwrite_unlocked@plt>
        }
        size_t i;
        
// COR Label 507
if((!prefix_tag || needs_escape) != (!prefix_tag && needs_escape))  {asm volatile (""::: "memory");
 804b841:	0f b6 85 7e ff ff ff 	movzbl -0x82(%ebp),%eax
 804b848:	89 da                	mov    %ebx,%edx
 804b84a:	83 c4 10             	add    $0x10,%esp
 804b84d:	83 f0 01             	xor    $0x1,%eax
 804b850:	09 c2                	or     %eax,%edx
 804b852:	21 d8                	and    %ebx,%eax
 804b854:	38 c2                	cmp    %al,%dl
 804b856:	0f 84 e0 00 00 00    	je     804b93c <main+0x23fc>
 804b85c:	8d 64 24 f0          	lea    -0x10(%esp),%esp
 804b860:	89 3c 24             	mov    %edi,(%esp)
 804b863:	89 54 24 04          	mov    %edx,0x4(%esp)
 804b867:	89 4c 24 08          	mov    %ecx,0x8(%esp)
 804b86b:	89 44 24 0c          	mov    %eax,0xc(%esp)
 804b86f:	b9 c0 35 00 00       	mov    $0x35c0,%ecx
 804b874:	e8 df ce 00 00       	call   8058758 <__afl_maybe_log>
 804b879:	8b 44 24 0c          	mov    0xc(%esp),%eax
 804b87d:	8b 4c 24 08          	mov    0x8(%esp),%ecx
 804b881:	8b 54 24 04          	mov    0x4(%esp),%edx
 804b885:	8b 3c 24             	mov    (%esp),%edi
 804b888:	8d 64 24 10          	lea    0x10(%esp),%esp
	report_label_coverage("COR", 507);
 804b88c:	8d 64 24 f0          	lea    -0x10(%esp),%esp
 804b890:	89 3c 24             	mov    %edi,(%esp)
 804b893:	89 54 24 04          	mov    %edx,0x4(%esp)
 804b897:	89 4c 24 08          	mov    %ecx,0x8(%esp)
 804b89b:	89 44 24 0c          	mov    %eax,0xc(%esp)
 804b89f:	b9 57 f1 00 00       	mov    $0xf157,%ecx
 804b8a4:	e8 af ce 00 00       	call   8058758 <__afl_maybe_log>
 804b8a9:	8b 44 24 0c          	mov    0xc(%esp),%eax
 804b8ad:	8b 4c 24 08          	mov    0x8(%esp),%ecx
 804b8b1:	8b 54 24 04          	mov    0x4(%esp),%edx
 804b8b5:	8b 3c 24             	mov    (%esp),%edi
 804b8b8:	8d 64 24 10          	lea    0x10(%esp),%esp
 804b8bc:	50                   	push   %eax
 804b8bd:	50                   	push   %eax
 804b8be:	68 fb 01 00 00       	push   $0x1fb
 804b8c3:	68 da 70 06 08       	push   $0x80670da
 804b8c8:	e8 f3 a7 00 00       	call   80560c0 <report_label_coverage>
 804b8cd:	83 c4 10             	add    $0x10,%esp
}

// MCC Label 508
if(!prefix_tag && needs_escape ) {asm volatile (""::: "memory");
 804b8d0:	8d 64 24 f0          	lea    -0x10(%esp),%esp
 804b8d4:	89 3c 24             	mov    %edi,(%esp)
 804b8d7:	89 54 24 04          	mov    %edx,0x4(%esp)
 804b8db:	89 4c 24 08          	mov    %ecx,0x8(%esp)
 804b8df:	89 44 24 0c          	mov    %eax,0xc(%esp)
 804b8e3:	b9 39 5c 00 00       	mov    $0x5c39,%ecx
 804b8e8:	e8 6b ce 00 00       	call   8058758 <__afl_maybe_log>
 804b8ed:	8b 44 24 0c          	mov    0xc(%esp),%eax
 804b8f1:	8b 4c 24 08          	mov    0x8(%esp),%ecx
 804b8f5:	8b 54 24 04          	mov    0x4(%esp),%edx
 804b8f9:	8b 3c 24             	mov    (%esp),%edi
 804b8fc:	8d 64 24 10          	lea    0x10(%esp),%esp
 804b900:	3a 9d 7e ff ff ff    	cmp    -0x82(%ebp),%bl
 804b906:	0f 87 65 87 00 00    	ja     8054071 <main+0xab31>
 804b90c:	8d 64 24 f0          	lea    -0x10(%esp),%esp
 804b910:	89 3c 24             	mov    %edi,(%esp)
 804b913:	89 54 24 04          	mov    %edx,0x4(%esp)
 804b917:	89 4c 24 08          	mov    %ecx,0x8(%esp)
 804b91b:	89 44 24 0c          	mov    %eax,0xc(%esp)
 804b91f:	b9 a4 26 00 00       	mov    $0x26a4,%ecx
 804b924:	e8 2f ce 00 00       	call   8058758 <__afl_maybe_log>
 804b929:	8b 44 24 0c          	mov    0xc(%esp),%eax
 804b92d:	8b 4c 24 08          	mov    0x8(%esp),%ecx
 804b931:	8b 54 24 04          	mov    0x4(%esp),%edx
 804b935:	8b 3c 24             	mov    (%esp),%edi
 804b938:	8d 64 24 10          	lea    0x10(%esp),%esp
	report_label_coverage("MCC", 508);
}
// MCC Label 509
if(!prefix_tag && !(needs_escape) ) {asm volatile (""::: "memory");
 804b93c:	8d 64 24 f0          	lea    -0x10(%esp),%esp
 804b940:	89 3c 24             	mov    %edi,(%esp)
 804b943:	89 54 24 04          	mov    %edx,0x4(%esp)
 804b947:	89 4c 24 08          	mov    %ecx,0x8(%esp)
 804b94b:	89 44 24 0c          	mov    %eax,0xc(%esp)
 804b94f:	b9 f7 b5 00 00       	mov    $0xb5f7,%ecx
 804b954:	e8 ff cd 00 00       	call   8058758 <__afl_maybe_log>
 804b959:	8b 44 24 0c          	mov    0xc(%esp),%eax
 804b95d:	8b 4c 24 08          	mov    0x8(%esp),%ecx
 804b961:	8b 54 24 04          	mov    0x4(%esp),%edx
 804b965:	8b 3c 24             	mov    (%esp),%edi
 804b968:	8d 64 24 10          	lea    0x10(%esp),%esp
 804b96c:	89 d9                	mov    %ebx,%ecx
 804b96e:	83 f1 01             	xor    $0x1,%ecx
 804b971:	3a 8d 7e ff ff ff    	cmp    -0x82(%ebp),%cl
 804b977:	0f 87 a8 86 00 00    	ja     8054025 <main+0xaae5>
 804b97d:	8d 76 00             	lea    0x0(%esi),%esi
 804b980:	8d 64 24 f0          	lea    -0x10(%esp),%esp
 804b984:	89 3c 24             	mov    %edi,(%esp)
 804b987:	89 54 24 04          	mov    %edx,0x4(%esp)
 804b98b:	89 4c 24 08          	mov    %ecx,0x8(%esp)
 804b98f:	89 44 24 0c          	mov    %eax,0xc(%esp)
 804b993:	b9 d2 d8 00 00       	mov    $0xd8d2,%ecx
 804b998:	e8 bb cd 00 00       	call   8058758 <__afl_maybe_log>
 804b99d:	8b 44 24 0c          	mov    0xc(%esp),%eax
 804b9a1:	8b 4c 24 08          	mov    0x8(%esp),%ecx
 804b9a5:	8b 54 24 04          	mov    0x4(%esp),%edx
 804b9a9:	8b 3c 24             	mov    (%esp),%edi
 804b9ac:	8d 64 24 10          	lea    0x10(%esp),%esp
	report_label_coverage("MCC", 509);
}
// MCC Label 510
if(!(!prefix_tag) && needs_escape ) {asm volatile (""::: "memory");
 804b9b0:	8d 64 24 f0          	lea    -0x10(%esp),%esp
 804b9b4:	89 3c 24             	mov    %edi,(%esp)
 804b9b7:	89 54 24 04          	mov    %edx,0x4(%esp)
 804b9bb:	89 4c 24 08          	mov    %ecx,0x8(%esp)
 804b9bf:	89 44 24 0c          	mov    %eax,0xc(%esp)
 804b9c3:	b9 fd 2c 00 00       	mov    $0x2cfd,%ecx
 804b9c8:	e8 8b cd 00 00       	call   8058758 <__afl_maybe_log>
 804b9cd:	8b 44 24 0c          	mov    0xc(%esp),%eax
 804b9d1:	8b 4c 24 08          	mov    0x8(%esp),%ecx
 804b9d5:	8b 54 24 04          	mov    0x4(%esp),%edx
 804b9d9:	8b 3c 24             	mov    (%esp),%edi
 804b9dc:	8d 64 24 10          	lea    0x10(%esp),%esp
 804b9e0:	84 db                	test   %bl,%bl
 804b9e2:	0f 84 fd 70 00 00    	je     8052ae5 <main+0x95a5>
 804b9e8:	8d 64 24 f0          	lea    -0x10(%esp),%esp
 804b9ec:	89 3c 24             	mov    %edi,(%esp)
 804b9ef:	89 54 24 04          	mov    %edx,0x4(%esp)
 804b9f3:	89 4c 24 08          	mov    %ecx,0x8(%esp)
 804b9f7:	89 44 24 0c          	mov    %eax,0xc(%esp)
 804b9fb:	b9 60 c5 00 00       	mov    $0xc560,%ecx
 804ba00:	e8 53 cd 00 00       	call   8058758 <__afl_maybe_log>
 804ba05:	8b 44 24 0c          	mov    0xc(%esp),%eax
 804ba09:	8b 4c 24 08          	mov    0x8(%esp),%ecx
 804ba0d:	8b 54 24 04          	mov    0x4(%esp),%edx
 804ba11:	8b 3c 24             	mov    (%esp),%edi
 804ba14:	8d 64 24 10          	lea    0x10(%esp),%esp
 804ba18:	80 bd 7e ff ff ff 00 	cmpb   $0x0,-0x82(%ebp)
 804ba1f:	0f 85 b4 85 00 00    	jne    8053fd9 <main+0xaa99>
 804ba25:	8d 76 00             	lea    0x0(%esi),%esi
 804ba28:	8d 64 24 f0          	lea    -0x10(%esp),%esp
 804ba2c:	89 3c 24             	mov    %edi,(%esp)
 804ba2f:	89 54 24 04          	mov    %edx,0x4(%esp)
 804ba33:	89 4c 24 08          	mov    %ecx,0x8(%esp)
 804ba37:	89 44 24 0c          	mov    %eax,0xc(%esp)
 804ba3b:	b9 74 16 00 00       	mov    $0x1674,%ecx
 804ba40:	e8 13 cd 00 00       	call   8058758 <__afl_maybe_log>
 804ba45:	8b 44 24 0c          	mov    0xc(%esp),%eax
 804ba49:	8b 4c 24 08          	mov    0x8(%esp),%ecx
 804ba4d:	8b 54 24 04          	mov    0x4(%esp),%edx
 804ba51:	8b 3c 24             	mov    (%esp),%edi
 804ba54:	8d 64 24 10          	lea    0x10(%esp),%esp
}
// MCC Label 511
if(!(!prefix_tag) && !(needs_escape) ) {asm volatile (""::: "memory");
	report_label_coverage("MCC", 511);
}
if (!prefix_tag && needs_escape)
 804ba58:	80 fb 00             	cmp    $0x0,%bl
 804ba5b:	0f 86 80 00 00 00    	jbe    804bae1 <main+0x25a1>
 804ba61:	8d 76 00             	lea    0x0(%esi),%esi
 804ba64:	8d 64 24 f0          	lea    -0x10(%esp),%esp
 804ba68:	89 3c 24             	mov    %edi,(%esp)
 804ba6b:	89 54 24 04          	mov    %edx,0x4(%esp)
 804ba6f:	89 4c 24 08          	mov    %ecx,0x8(%esp)
 804ba73:	89 44 24 0c          	mov    %eax,0xc(%esp)
 804ba77:	b9 0f 47 00 00       	mov    $0x470f,%ecx
 804ba7c:	e8 d7 cc 00 00       	call   8058758 <__afl_maybe_log>
 804ba81:	8b 44 24 0c          	mov    0xc(%esp),%eax
 804ba85:	8b 4c 24 08          	mov    0x8(%esp),%ecx
 804ba89:	8b 54 24 04          	mov    0x4(%esp),%edx
 804ba8d:	8b 3c 24             	mov    (%esp),%edi
 804ba90:	8d 64 24 10          	lea    0x10(%esp),%esp
 804ba94:	8b 3d d8 b2 06 08    	mov    0x806b2d8,%edi
 804ba9a:	8b 5f 14             	mov    0x14(%edi),%ebx
 804ba9d:	3b 5f 18             	cmp    0x18(%edi),%ebx
 804baa0:	0f 83 8b 98 00 00    	jae    8055331 <main+0xbdf1>
 804baa6:	66 90                	xchg   %ax,%ax
 804baa8:	8d 64 24 f0          	lea    -0x10(%esp),%esp
 804baac:	89 3c 24             	mov    %edi,(%esp)
 804baaf:	89 54 24 04          	mov    %edx,0x4(%esp)
 804bab3:	89 4c 24 08          	mov    %ecx,0x8(%esp)
 804bab7:	89 44 24 0c          	mov    %eax,0xc(%esp)
 804babb:	b9 57 8f 00 00       	mov    $0x8f57,%ecx
 804bac0:	e8 93 cc 00 00       	call   8058758 <__afl_maybe_log>
 804bac5:	8b 44 24 0c          	mov    0xc(%esp),%eax
 804bac9:	8b 4c 24 08          	mov    0x8(%esp),%ecx
 804bacd:	8b 54 24 04          	mov    0x4(%esp),%edx
 804bad1:	8b 3c 24             	mov    (%esp),%edi
 804bad4:	8d 64 24 10          	lea    0x10(%esp),%esp
 804bad8:	8d 43 01             	lea    0x1(%ebx),%eax
 804badb:	89 47 14             	mov    %eax,0x14(%edi)
 804bade:	c6 03 5c             	movb   $0x5c,(%ebx)
 804bae1:	8d 76 00             	lea    0x0(%esi),%esi
if(i < 0)  {asm volatile (""::: "memory");
	report_label_coverage("ABS", 512);
}

// ROR Label 513
if((i <= (digest_hex_bytes / 2)) != (i < (digest_hex_bytes / 2)))  {asm volatile (""::: "memory");
 804bae4:	8d 64 24 f0          	lea    -0x10(%esp),%esp
 804bae8:	89 3c 24             	mov    %edi,(%esp)
 804baeb:	89 54 24 04          	mov    %edx,0x4(%esp)
 804baef:	89 4c 24 08          	mov    %ecx,0x8(%esp)
 804baf3:	89 44 24 0c          	mov    %eax,0xc(%esp)
 804baf7:	b9 02 a1 00 00       	mov    $0xa102,%ecx
 804bafc:	e8 57 cc 00 00       	call   8058758 <__afl_maybe_log>
 804bb01:	8b 44 24 0c          	mov    0xc(%esp),%eax
 804bb05:	8b 4c 24 08          	mov    0x8(%esp),%ecx
 804bb09:	8b 54 24 04          	mov    0x4(%esp),%edx
 804bb0d:	8b 3c 24             	mov    (%esp),%edi
 804bb10:	8d 64 24 10          	lea    0x10(%esp),%esp
 804bb14:	83 3d 04 b3 06 08 01 	cmpl   $0x1,0x806b304
 804bb1b:	0f 86 64 76 00 00    	jbe    8053185 <main+0x9c45>
 804bb21:	8d 76 00             	lea    0x0(%esi),%esi
 804bb24:	8d 64 24 f0          	lea    -0x10(%esp),%esp
 804bb28:	89 3c 24             	mov    %edi,(%esp)
 804bb2b:	89 54 24 04          	mov    %edx,0x4(%esp)
 804bb2f:	89 4c 24 08          	mov    %ecx,0x8(%esp)
 804bb33:	89 44 24 0c          	mov    %eax,0xc(%esp)
 804bb37:	b9 a0 94 00 00       	mov    $0x94a0,%ecx
 804bb3c:	e8 17 cc 00 00       	call   8058758 <__afl_maybe_log>
 804bb41:	8b 44 24 0c          	mov    0xc(%esp),%eax
 804bb45:	8b 4c 24 08          	mov    0x8(%esp),%ecx
 804bb49:	8b 54 24 04          	mov    0x4(%esp),%edx
 804bb4d:	8b 3c 24             	mov    (%esp),%edi
 804bb50:	8d 64 24 10          	lea    0x10(%esp),%esp
	report_label_coverage("ROR", 513);
}
// ROR Label 514
if((i > (digest_hex_bytes / 2)) != (i < (digest_hex_bytes / 2)))  {asm volatile (""::: "memory");
	report_label_coverage("ROR", 514);
 804bb54:	8d 64 24 f0          	lea    -0x10(%esp),%esp
 804bb58:	89 3c 24             	mov    %edi,(%esp)
 804bb5b:	89 54 24 04          	mov    %edx,0x4(%esp)
 804bb5f:	89 4c 24 08          	mov    %ecx,0x8(%esp)
 804bb63:	89 44 24 0c          	mov    %eax,0xc(%esp)
 804bb67:	b9 1f cb 00 00       	mov    $0xcb1f,%ecx
 804bb6c:	e8 e7 cb 00 00       	call   8058758 <__afl_maybe_log>
 804bb71:	8b 44 24 0c          	mov    0xc(%esp),%eax
 804bb75:	8b 4c 24 08          	mov    0x8(%esp),%ecx
 804bb79:	8b 54 24 04          	mov    0x4(%esp),%edx
 804bb7d:	8b 3c 24             	mov    (%esp),%edi
 804bb80:	8d 64 24 10          	lea    0x10(%esp),%esp
 804bb84:	50                   	push   %eax
 804bb85:	50                   	push   %eax
 804bb86:	68 02 02 00 00       	push   $0x202
 804bb8b:	68 c8 70 06 08       	push   $0x80670c8
 804bb90:	e8 2b a5 00 00       	call   80560c0 <report_label_coverage>
}
// ROR Label 515
if((i >= (digest_hex_bytes / 2)) != (i < (digest_hex_bytes / 2)))  {asm volatile (""::: "memory");
 804bb95:	8b 3d 04 b3 06 08    	mov    0x806b304,%edi
 804bb9b:	83 c4 10             	add    $0x10,%esp
 804bb9e:	83 ff 01             	cmp    $0x1,%edi
 804bba1:	0f 96 c1             	setbe  %cl
 804bba4:	0f 97 c2             	seta   %dl
 804bba7:	38 d1                	cmp    %dl,%cl
 804bba9:	0f 85 5d 76 00 00    	jne    805320c <main+0x9ccc>
 804bbaf:	90                   	nop
 804bbb0:	8d 64 24 f0          	lea    -0x10(%esp),%esp
 804bbb4:	89 3c 24             	mov    %edi,(%esp)
 804bbb7:	89 54 24 04          	mov    %edx,0x4(%esp)
 804bbbb:	89 4c 24 08          	mov    %ecx,0x8(%esp)
 804bbbf:	89 44 24 0c          	mov    %eax,0xc(%esp)
 804bbc3:	b9 0d 4c 00 00       	mov    $0x4c0d,%ecx
 804bbc8:	e8 8b cb 00 00       	call   8058758 <__afl_maybe_log>
 804bbcd:	8b 44 24 0c          	mov    0xc(%esp),%eax
 804bbd1:	8b 4c 24 08          	mov    0x8(%esp),%ecx
 804bbd5:	8b 54 24 04          	mov    0x4(%esp),%edx
 804bbd9:	8b 3c 24             	mov    (%esp),%edi
 804bbdc:	8d 64 24 10          	lea    0x10(%esp),%esp
	report_label_coverage("ROR", 515);
}
for (; i < (digest_hex_bytes / 2); ++i)
 804bbe0:	8d 64 24 f0          	lea    -0x10(%esp),%esp
 804bbe4:	89 3c 24             	mov    %edi,(%esp)
 804bbe7:	89 54 24 04          	mov    %edx,0x4(%esp)
 804bbeb:	89 4c 24 08          	mov    %ecx,0x8(%esp)
 804bbef:	89 44 24 0c          	mov    %eax,0xc(%esp)
 804bbf3:	b9 4b 21 00 00       	mov    $0x214b,%ecx
 804bbf8:	e8 5b cb 00 00       	call   8058758 <__afl_maybe_log>
 804bbfd:	8b 44 24 0c          	mov    0xc(%esp),%eax
 804bc01:	8b 4c 24 08          	mov    0x8(%esp),%ecx
 804bc05:	8b 54 24 04          	mov    0x4(%esp),%edx
 804bc09:	8b 3c 24             	mov    (%esp),%edi
 804bc0c:	8d 64 24 10          	lea    0x10(%esp),%esp
 804bc10:	31 db                	xor    %ebx,%ebx
 804bc12:	d1 ef                	shr    %edi
 804bc14:	0f 84 70 72 00 00    	je     8052e8a <main+0x994a>
 804bc1a:	66 90                	xchg   %ax,%ax
 804bc1c:	8d 64 24 f0          	lea    -0x10(%esp),%esp
 804bc20:	89 3c 24             	mov    %edi,(%esp)
 804bc23:	89 54 24 04          	mov    %edx,0x4(%esp)
 804bc27:	89 4c 24 08          	mov    %ecx,0x8(%esp)
 804bc2b:	89 44 24 0c          	mov    %eax,0xc(%esp)
 804bc2f:	b9 5e 40 00 00       	mov    $0x405e,%ecx
 804bc34:	e8 1f cb 00 00       	call   8058758 <__afl_maybe_log>
 804bc39:	8b 44 24 0c          	mov    0xc(%esp),%eax
 804bc3d:	8b 4c 24 08          	mov    0x8(%esp),%ecx
 804bc41:	8b 54 24 04          	mov    0x4(%esp),%edx
 804bc45:	8b 3c 24             	mov    (%esp),%edi
 804bc48:	8d 64 24 10          	lea    0x10(%esp),%esp
 804bc4c:	8d 74 26 00          	lea    0x0(%esi,%eiz,1),%esi
            printf("%02x", bin_buffer[i]);
 804bc50:	0f b6 44 1d c0       	movzbl -0x40(%ebp,%ebx,1),%eax
 804bc55:	83 ec 08             	sub    $0x8,%esp
}
// ROR Label 515
if((i >= (digest_hex_bytes / 2)) != (i < (digest_hex_bytes / 2)))  {asm volatile (""::: "memory");
	report_label_coverage("ROR", 515);
}
for (; i < (digest_hex_bytes / 2); ++i)
 804bc58:	83 c3 01             	add    $0x1,%ebx
            printf("%02x", bin_buffer[i]);
 804bc5b:	50                   	push   %eax
 804bc5c:	68 31 72 06 08       	push   $0x8067231
 804bc61:	e8 ca d4 ff ff       	call   8049130 <printf@plt>
}
// ROR Label 515
if((i >= (digest_hex_bytes / 2)) != (i < (digest_hex_bytes / 2)))  {asm volatile (""::: "memory");
	report_label_coverage("ROR", 515);
}
for (; i < (digest_hex_bytes / 2); ++i)
 804bc66:	a1 04 b3 06 08       	mov    0x806b304,%eax
 804bc6b:	83 c4 10             	add    $0x10,%esp
 804bc6e:	89 c1                	mov    %eax,%ecx
 804bc70:	d1 e9                	shr    %ecx
 804bc72:	39 d9                	cmp    %ebx,%ecx
 804bc74:	77 da                	ja     804bc50 <main+0x2710>
 804bc76:	66 90                	xchg   %ax,%ax
 804bc78:	8d 64 24 f0          	lea    -0x10(%esp),%esp
 804bc7c:	89 3c 24             	mov    %edi,(%esp)
 804bc7f:	89 54 24 04          	mov    %edx,0x4(%esp)
 804bc83:	89 4c 24 08          	mov    %ecx,0x8(%esp)
 804bc87:	89 44 24 0c          	mov    %eax,0xc(%esp)
 804bc8b:	b9 98 9c 00 00       	mov    $0x9c98,%ecx
 804bc90:	e8 c3 ca 00 00       	call   8058758 <__afl_maybe_log>
 804bc95:	8b 44 24 0c          	mov    0xc(%esp),%eax
 804bc99:	8b 4c 24 08          	mov    0x8(%esp),%ecx
 804bc9d:	8b 54 24 04          	mov    0x4(%esp),%edx
 804bca1:	8b 3c 24             	mov    (%esp),%edi
 804bca4:	8d 64 24 10          	lea    0x10(%esp),%esp
if(i < 0)  {asm volatile (""::: "memory");
	report_label_coverage("ABS", 516);
}

// ROR Label 517
if((i <= (digest_hex_bytes / 2)) != (i < (digest_hex_bytes / 2)))  {asm volatile (""::: "memory");
 804bca8:	39 cb                	cmp    %ecx,%ebx
 804bcaa:	0f 96 c1             	setbe  %cl
 804bcad:	0f 92 c2             	setb   %dl
 804bcb0:	38 d1                	cmp    %dl,%cl
 804bcb2:	0f 85 d2 71 00 00    	jne    8052e8a <main+0x994a>
 804bcb8:	8d 64 24 f0          	lea    -0x10(%esp),%esp
 804bcbc:	89 3c 24             	mov    %edi,(%esp)
 804bcbf:	89 54 24 04          	mov    %edx,0x4(%esp)
 804bcc3:	89 4c 24 08          	mov    %ecx,0x8(%esp)
 804bcc7:	89 44 24 0c          	mov    %eax,0xc(%esp)
 804bccb:	b9 5e fe 00 00       	mov    $0xfe5e,%ecx
 804bcd0:	e8 83 ca 00 00       	call   8058758 <__afl_maybe_log>
 804bcd5:	8b 44 24 0c          	mov    0xc(%esp),%eax
 804bcd9:	8b 4c 24 08          	mov    0x8(%esp),%ecx
 804bcdd:	8b 54 24 04          	mov    0x4(%esp),%edx
 804bce1:	8b 3c 24             	mov    (%esp),%edi
 804bce4:	8d 64 24 10          	lea    0x10(%esp),%esp
	report_label_coverage("ROR", 517);
}
// ROR Label 518
if((i > (digest_hex_bytes / 2)) != (i < (digest_hex_bytes / 2)))  {asm volatile (""::: "memory");
 804bce8:	8d 64 24 f0          	lea    -0x10(%esp),%esp
 804bcec:	89 3c 24             	mov    %edi,(%esp)
 804bcef:	89 54 24 04          	mov    %edx,0x4(%esp)
 804bcf3:	89 4c 24 08          	mov    %ecx,0x8(%esp)
 804bcf7:	89 44 24 0c          	mov    %eax,0xc(%esp)
 804bcfb:	b9 8a de 00 00       	mov    $0xde8a,%ecx
 804bd00:	e8 53 ca 00 00       	call   8058758 <__afl_maybe_log>
 804bd05:	8b 44 24 0c          	mov    0xc(%esp),%eax
 804bd09:	8b 4c 24 08          	mov    0x8(%esp),%ecx
 804bd0d:	8b 54 24 04          	mov    0x4(%esp),%edx
 804bd11:	8b 3c 24             	mov    (%esp),%edi
 804bd14:	8d 64 24 10          	lea    0x10(%esp),%esp
 804bd18:	89 c7                	mov    %eax,%edi
 804bd1a:	d1 ef                	shr    %edi
 804bd1c:	39 df                	cmp    %ebx,%edi
 804bd1e:	0f 92 c1             	setb   %cl
 804bd21:	39 fb                	cmp    %edi,%ebx
 804bd23:	0f 92 c2             	setb   %dl
 804bd26:	38 d1                	cmp    %dl,%cl
 804bd28:	74 4b                	je     804bd75 <main+0x2835>
 804bd2a:	66 90                	xchg   %ax,%ax
 804bd2c:	8d 64 24 f0          	lea    -0x10(%esp),%esp
 804bd30:	89 3c 24             	mov    %edi,(%esp)
 804bd33:	89 54 24 04          	mov    %edx,0x4(%esp)
 804bd37:	89 4c 24 08          	mov    %ecx,0x8(%esp)
 804bd3b:	89 44 24 0c          	mov    %eax,0xc(%esp)
 804bd3f:	b9 ab 26 00 00       	mov    $0x26ab,%ecx
 804bd44:	e8 0f ca 00 00       	call   8058758 <__afl_maybe_log>
 804bd49:	8b 44 24 0c          	mov    0xc(%esp),%eax
 804bd4d:	8b 4c 24 08          	mov    0x8(%esp),%ecx
 804bd51:	8b 54 24 04          	mov    0x4(%esp),%edx
 804bd55:	8b 3c 24             	mov    (%esp),%edi
 804bd58:	8d 64 24 10          	lea    0x10(%esp),%esp
	report_label_coverage("ROR", 518);
 804bd5c:	50                   	push   %eax
 804bd5d:	50                   	push   %eax
 804bd5e:	68 06 02 00 00       	push   $0x206
 804bd63:	68 c8 70 06 08       	push   $0x80670c8
 804bd68:	e8 53 a3 00 00       	call   80560c0 <report_label_coverage>
 804bd6d:	a1 04 b3 06 08       	mov    0x806b304,%eax
 804bd72:	83 c4 10             	add    $0x10,%esp
 804bd75:	8d 76 00             	lea    0x0(%esi),%esi
}
// ROR Label 519
if((i >= (digest_hex_bytes / 2)) != (i < (digest_hex_bytes / 2)))  {asm volatile (""::: "memory");
 804bd78:	8d 64 24 f0          	lea    -0x10(%esp),%esp
 804bd7c:	89 3c 24             	mov    %edi,(%esp)
 804bd7f:	89 54 24 04          	mov    %edx,0x4(%esp)
 804bd83:	89 4c 24 08          	mov    %ecx,0x8(%esp)
 804bd87:	89 44 24 0c          	mov    %eax,0xc(%esp)
 804bd8b:	b9 8f 2e 00 00       	mov    $0x2e8f,%ecx
 804bd90:	e8 c3 c9 00 00       	call   8058758 <__afl_maybe_log>
 804bd95:	8b 44 24 0c          	mov    0xc(%esp),%eax
 804bd99:	8b 4c 24 08          	mov    0x8(%esp),%ecx
 804bd9d:	8b 54 24 04          	mov    0x4(%esp),%edx
 804bda1:	8b 3c 24             	mov    (%esp),%edi
 804bda4:	8d 64 24 10          	lea    0x10(%esp),%esp
 804bda8:	d1 e8                	shr    %eax
 804bdaa:	39 d8                	cmp    %ebx,%eax
 804bdac:	0f 96 c1             	setbe  %cl
 804bdaf:	39 c3                	cmp    %eax,%ebx
 804bdb1:	0f 92 c3             	setb   %bl
 804bdb4:	38 d9                	cmp    %bl,%cl
 804bdb6:	74 44                	je     804bdfc <main+0x28bc>
 804bdb8:	8d 64 24 f0          	lea    -0x10(%esp),%esp
 804bdbc:	89 3c 24             	mov    %edi,(%esp)
 804bdbf:	89 54 24 04          	mov    %edx,0x4(%esp)
 804bdc3:	89 4c 24 08          	mov    %ecx,0x8(%esp)
 804bdc7:	89 44 24 0c          	mov    %eax,0xc(%esp)
 804bdcb:	b9 b1 8c 00 00       	mov    $0x8cb1,%ecx
 804bdd0:	e8 83 c9 00 00       	call   8058758 <__afl_maybe_log>
 804bdd5:	8b 44 24 0c          	mov    0xc(%esp),%eax
 804bdd9:	8b 4c 24 08          	mov    0x8(%esp),%ecx
 804bddd:	8b 54 24 04          	mov    0x4(%esp),%edx
 804bde1:	8b 3c 24             	mov    (%esp),%edi
 804bde4:	8d 64 24 10          	lea    0x10(%esp),%esp
	report_label_coverage("ROR", 519);
 804bde8:	57                   	push   %edi
 804bde9:	57                   	push   %edi
 804bdea:	68 07 02 00 00       	push   $0x207
 804bdef:	68 c8 70 06 08       	push   $0x80670c8
 804bdf4:	e8 c7 a2 00 00       	call   80560c0 <report_label_coverage>
 804bdf9:	83 c4 10             	add    $0x10,%esp
}
;
        if (!prefix_tag) {
 804bdfc:	8d 64 24 f0          	lea    -0x10(%esp),%esp
 804be00:	89 3c 24             	mov    %edi,(%esp)
 804be03:	89 54 24 04          	mov    %edx,0x4(%esp)
 804be07:	89 4c 24 08          	mov    %ecx,0x8(%esp)
 804be0b:	89 44 24 0c          	mov    %eax,0xc(%esp)
 804be0f:	b9 f5 48 00 00       	mov    $0x48f5,%ecx
 804be14:	e8 3f c9 00 00       	call   8058758 <__afl_maybe_log>
 804be19:	8b 44 24 0c          	mov    0xc(%esp),%eax
 804be1d:	8b 4c 24 08          	mov    0x8(%esp),%ecx
 804be21:	8b 54 24 04          	mov    0x4(%esp),%edx
 804be25:	8b 3c 24             	mov    (%esp),%edi
 804be28:	8d 64 24 10          	lea    0x10(%esp),%esp
 804be2c:	80 bd 7e ff ff ff 00 	cmpb   $0x0,-0x82(%ebp)
 804be33:	0f 85 45 01 00 00    	jne    804bf7e <main+0x2a3e>
 804be39:	8d 76 00             	lea    0x0(%esi),%esi
 804be3c:	8d 64 24 f0          	lea    -0x10(%esp),%esp
 804be40:	89 3c 24             	mov    %edi,(%esp)
 804be43:	89 54 24 04          	mov    %edx,0x4(%esp)
 804be47:	89 4c 24 08          	mov    %ecx,0x8(%esp)
 804be4b:	89 44 24 0c          	mov    %eax,0xc(%esp)
 804be4f:	b9 42 5c 00 00       	mov    $0x5c42,%ecx
 804be54:	e8 ff c8 00 00       	call   8058758 <__afl_maybe_log>
 804be59:	8b 44 24 0c          	mov    0xc(%esp),%eax
 804be5d:	8b 4c 24 08          	mov    0x8(%esp),%ecx
 804be61:	8b 54 24 04          	mov    0x4(%esp),%edx
 804be65:	8b 3c 24             	mov    (%esp),%edi
 804be68:	8d 64 24 10          	lea    0x10(%esp),%esp
 804be6c:	8b 3d d8 b2 06 08    	mov    0x806b2d8,%edi
 804be72:	8b 57 14             	mov    0x14(%edi),%edx
 804be75:	3b 57 18             	cmp    0x18(%edi),%edx
 804be78:	0f 83 db 93 00 00    	jae    8055259 <main+0xbd19>
 804be7e:	66 90                	xchg   %ax,%ax
 804be80:	8d 64 24 f0          	lea    -0x10(%esp),%esp
 804be84:	89 3c 24             	mov    %edi,(%esp)
 804be87:	89 54 24 04          	mov    %edx,0x4(%esp)
 804be8b:	89 4c 24 08          	mov    %ecx,0x8(%esp)
 804be8f:	89 44 24 0c          	mov    %eax,0xc(%esp)
 804be93:	b9 b4 dc 00 00       	mov    $0xdcb4,%ecx
 804be98:	e8 bb c8 00 00       	call   8058758 <__afl_maybe_log>
 804be9d:	8b 44 24 0c          	mov    0xc(%esp),%eax
 804bea1:	8b 4c 24 08          	mov    0x8(%esp),%ecx
 804bea5:	8b 54 24 04          	mov    0x4(%esp),%edx
 804bea9:	8b 3c 24             	mov    (%esp),%edi
 804beac:	8d 64 24 10          	lea    0x10(%esp),%esp
 804beb0:	8d 42 01             	lea    0x1(%edx),%eax
 804beb3:	89 47 14             	mov    %eax,0x14(%edi)
 804beb6:	c6 02 20             	movb   $0x20,(%edx)
 804beb9:	8d 76 00             	lea    0x0(%esi),%esi
            putchar_unlocked(' ');
            putchar_unlocked(file_is_binary ? '*' : ' ');
 804bebc:	8d 64 24 f0          	lea    -0x10(%esp),%esp
 804bec0:	89 3c 24             	mov    %edi,(%esp)
 804bec3:	89 54 24 04          	mov    %edx,0x4(%esp)
 804bec7:	89 4c 24 08          	mov    %ecx,0x8(%esp)
 804becb:	89 44 24 0c          	mov    %eax,0xc(%esp)
 804becf:	b9 bb c9 00 00       	mov    $0xc9bb,%ecx
 804bed4:	e8 7f c8 00 00       	call   8058758 <__afl_maybe_log>
 804bed9:	8b 44 24 0c          	mov    0xc(%esp),%eax
 804bedd:	8b 4c 24 08          	mov    0x8(%esp),%ecx
 804bee1:	8b 54 24 04          	mov    0x4(%esp),%edx
 804bee5:	8b 3c 24             	mov    (%esp),%edi
 804bee8:	8d 64 24 10          	lea    0x10(%esp),%esp
 804beec:	83 7d d4 01          	cmpl   $0x1,-0x2c(%ebp)
 804bef0:	8b 3d d8 b2 06 08    	mov    0x806b2d8,%edi
 804bef6:	8b 4f 14             	mov    0x14(%edi),%ecx
 804bef9:	19 c0                	sbb    %eax,%eax
 804befb:	83 e0 f6             	and    $0xfffffff6,%eax
 804befe:	83 c0 2a             	add    $0x2a,%eax
 804bf01:	3b 4f 18             	cmp    0x18(%edi),%ecx
 804bf04:	0f 83 0d 93 00 00    	jae    8055217 <main+0xbcd7>
 804bf0a:	66 90                	xchg   %ax,%ax
 804bf0c:	8d 64 24 f0          	lea    -0x10(%esp),%esp
 804bf10:	89 3c 24             	mov    %edi,(%esp)
 804bf13:	89 54 24 04          	mov    %edx,0x4(%esp)
 804bf17:	89 4c 24 08          	mov    %ecx,0x8(%esp)
 804bf1b:	89 44 24 0c          	mov    %eax,0xc(%esp)
 804bf1f:	b9 ae 2a 00 00       	mov    $0x2aae,%ecx
 804bf24:	e8 2f c8 00 00       	call   8058758 <__afl_maybe_log>
 804bf29:	8b 44 24 0c          	mov    0xc(%esp),%eax
 804bf2d:	8b 4c 24 08          	mov    0x8(%esp),%ecx
 804bf31:	8b 54 24 04          	mov    0x4(%esp),%edx
 804bf35:	8b 3c 24             	mov    (%esp),%edi
 804bf38:	8d 64 24 10          	lea    0x10(%esp),%esp
 804bf3c:	8d 59 01             	lea    0x1(%ecx),%ebx
 804bf3f:	89 5f 14             	mov    %ebx,0x14(%edi)
 804bf42:	88 01                	mov    %al,(%ecx)
            
// ABS Label 520
if(needs_escape < 0)  {asm volatile (""::: "memory");
	report_label_coverage("ABS", 520);
}
print_filename(file, needs_escape);
 804bf44:	8d 64 24 f0          	lea    -0x10(%esp),%esp
 804bf48:	89 3c 24             	mov    %edi,(%esp)
 804bf4b:	89 54 24 04          	mov    %edx,0x4(%esp)
 804bf4f:	89 4c 24 08          	mov    %ecx,0x8(%esp)
 804bf53:	89 44 24 0c          	mov    %eax,0xc(%esp)
 804bf57:	b9 b8 25 00 00       	mov    $0x25b8,%ecx
 804bf5c:	e8 f7 c7 00 00       	call   8058758 <__afl_maybe_log>
 804bf61:	8b 44 24 0c          	mov    0xc(%esp),%eax
 804bf65:	8b 4c 24 08          	mov    0x8(%esp),%ecx
 804bf69:	8b 54 24 04          	mov    0x4(%esp),%edx
 804bf6d:	8b 3c 24             	mov    (%esp),%edi
 804bf70:	8d 64 24 10          	lea    0x10(%esp),%esp
 804bf74:	8b 45 80             	mov    -0x80(%ebp),%eax
 804bf77:	89 f2                	mov    %esi,%edx
 804bf79:	e8 b2 a9 00 00       	call   8056930 <print_filename>
 804bf7e:	66 90                	xchg   %ax,%ax
 804bf80:	8d 64 24 f0          	lea    -0x10(%esp),%esp
 804bf84:	89 3c 24             	mov    %edi,(%esp)
 804bf87:	89 54 24 04          	mov    %edx,0x4(%esp)
 804bf8b:	89 4c 24 08          	mov    %ecx,0x8(%esp)
 804bf8f:	89 44 24 0c          	mov    %eax,0xc(%esp)
 804bf93:	b9 be 08 00 00       	mov    $0x8be,%ecx
 804bf98:	e8 bb c7 00 00       	call   8058758 <__afl_maybe_log>
 804bf9d:	8b 44 24 0c          	mov    0xc(%esp),%eax
 804bfa1:	8b 4c 24 08          	mov    0x8(%esp),%ecx
 804bfa5:	8b 54 24 04          	mov    0x4(%esp),%edx
 804bfa9:	8b 3c 24             	mov    (%esp),%edi
 804bfac:	8d 64 24 10          	lea    0x10(%esp),%esp
 804bfb0:	8b 35 d8 b2 06 08    	mov    0x806b2d8,%esi
 804bfb6:	8b 56 14             	mov    0x14(%esi),%edx
 804bfb9:	3b 56 18             	cmp    0x18(%esi),%edx
 804bfbc:	0f 83 57 8c 00 00    	jae    8054c19 <main+0xb6d9>
 804bfc2:	66 90                	xchg   %ax,%ax
 804bfc4:	8d 64 24 f0          	lea    -0x10(%esp),%esp
 804bfc8:	89 3c 24             	mov    %edi,(%esp)
 804bfcb:	89 54 24 04          	mov    %edx,0x4(%esp)
 804bfcf:	89 4c 24 08          	mov    %ecx,0x8(%esp)
 804bfd3:	89 44 24 0c          	mov    %eax,0xc(%esp)
 804bfd7:	b9 1f 7d 00 00       	mov    $0x7d1f,%ecx
 804bfdc:	e8 77 c7 00 00       	call   8058758 <__afl_maybe_log>
 804bfe1:	8b 44 24 0c          	mov    0xc(%esp),%eax
 804bfe5:	8b 4c 24 08          	mov    0x8(%esp),%ecx
 804bfe9:	8b 54 24 04          	mov    0x4(%esp),%edx
 804bfed:	8b 3c 24             	mov    (%esp),%edi
 804bff0:	8d 64 24 10          	lea    0x10(%esp),%esp
 804bff4:	8d 42 01             	lea    0x1(%edx),%eax
 804bff7:	89 46 14             	mov    %eax,0x14(%esi)
 804bffa:	c6 02 0a             	movb   $0xa,(%edx)
 804bffd:	8d 76 00             	lea    0x0(%esi),%esi
}
// ROR Label 491
if((optind >= argc) != (optind < argc))  {asm volatile (""::: "memory");
	report_label_coverage("ROR", 491);
}
for (; optind < argc; ++optind)
 804c000:	8d 64 24 f0          	lea    -0x10(%esp),%esp
 804c004:	89 3c 24             	mov    %edi,(%esp)
 804c007:	89 54 24 04          	mov    %edx,0x4(%esp)
 804c00b:	89 4c 24 08          	mov    %ecx,0x8(%esp)
 804c00f:	89 44 24 0c          	mov    %eax,0xc(%esp)
 804c013:	b9 d6 07 00 00       	mov    $0x7d6,%ecx
 804c018:	e8 3b c7 00 00       	call   8058758 <__afl_maybe_log>
 804c01d:	8b 44 24 0c          	mov    0xc(%esp),%eax
 804c021:	8b 4c 24 08          	mov    0x8(%esp),%ecx
 804c025:	8b 54 24 04          	mov    0x4(%esp),%edx
 804c029:	8b 3c 24             	mov    (%esp),%edi
 804c02c:	8d 64 24 10          	lea    0x10(%esp),%esp
 804c030:	a1 cc b2 06 08       	mov    0x806b2cc,%eax
 804c035:	83 c0 01             	add    $0x1,%eax
 804c038:	39 45 94             	cmp    %eax,-0x6c(%ebp)
 804c03b:	a3 cc b2 06 08       	mov    %eax,0x806b2cc
 804c040:	0f 8f 6a f5 ff ff    	jg     804b5b0 <main+0x2070>
 804c046:	66 90                	xchg   %ax,%ax
 804c048:	8d 64 24 f0          	lea    -0x10(%esp),%esp
 804c04c:	89 3c 24             	mov    %edi,(%esp)
 804c04f:	89 54 24 04          	mov    %edx,0x4(%esp)
 804c053:	89 4c 24 08          	mov    %ecx,0x8(%esp)
 804c057:	89 44 24 0c          	mov    %eax,0xc(%esp)
 804c05b:	b9 46 62 00 00       	mov    $0x6246,%ecx
 804c060:	e8 f3 c6 00 00       	call   8058758 <__afl_maybe_log>
 804c065:	8b 44 24 0c          	mov    0xc(%esp),%eax
 804c069:	8b 4c 24 08          	mov    0x8(%esp),%ecx
 804c06d:	8b 54 24 04          	mov    0x4(%esp),%edx
 804c071:	8b 3c 24             	mov    (%esp),%edi
 804c074:	8d 64 24 10          	lea    0x10(%esp),%esp
}

        }
    };
// ABS Label 492
if(argc < 0)  {asm volatile (""::: "memory");
 804c078:	8d 64 24 f0          	lea    -0x10(%esp),%esp
 804c07c:	89 3c 24             	mov    %edi,(%esp)
 804c07f:	89 54 24 04          	mov    %edx,0x4(%esp)
 804c083:	89 4c 24 08          	mov    %ecx,0x8(%esp)
 804c087:	89 44 24 0c          	mov    %eax,0xc(%esp)
 804c08b:	b9 55 b8 00 00       	mov    $0xb855,%ecx
 804c090:	e8 c3 c6 00 00       	call   8058758 <__afl_maybe_log>
 804c095:	8b 44 24 0c          	mov    0xc(%esp),%eax
 804c099:	8b 4c 24 08          	mov    0x8(%esp),%ecx
 804c09d:	8b 54 24 04          	mov    0x4(%esp),%edx
 804c0a1:	8b 3c 24             	mov    (%esp),%edi
 804c0a4:	8d 64 24 10          	lea    0x10(%esp),%esp
 804c0a8:	83 7d 94 00          	cmpl   $0x0,-0x6c(%ebp)
 804c0ac:	0f 88 d7 94 00 00    	js     8055589 <main+0xc049>
 804c0b2:	66 90                	xchg   %ax,%ax
 804c0b4:	8d 64 24 f0          	lea    -0x10(%esp),%esp
 804c0b8:	89 3c 24             	mov    %edi,(%esp)
 804c0bb:	89 54 24 04          	mov    %edx,0x4(%esp)
 804c0bf:	89 4c 24 08          	mov    %ecx,0x8(%esp)
 804c0c3:	89 44 24 0c          	mov    %eax,0xc(%esp)
 804c0c7:	b9 47 f2 00 00       	mov    $0xf247,%ecx
 804c0cc:	e8 87 c6 00 00       	call   8058758 <__afl_maybe_log>
 804c0d1:	8b 44 24 0c          	mov    0xc(%esp),%eax
 804c0d5:	8b 4c 24 08          	mov    0x8(%esp),%ecx
 804c0d9:	8b 54 24 04          	mov    0x4(%esp),%edx
 804c0dd:	8b 3c 24             	mov    (%esp),%edi
 804c0e0:	8d 64 24 10          	lea    0x10(%esp),%esp
	report_label_coverage("ABS", 492);
}
// ABS Label 493
if(optind < 0)  {asm volatile (""::: "memory");
 804c0e4:	8d 64 24 f0          	lea    -0x10(%esp),%esp
 804c0e8:	89 3c 24             	mov    %edi,(%esp)
 804c0eb:	89 54 24 04          	mov    %edx,0x4(%esp)
 804c0ef:	89 4c 24 08          	mov    %ecx,0x8(%esp)
 804c0f3:	89 44 24 0c          	mov    %eax,0xc(%esp)
 804c0f7:	b9 37 62 00 00       	mov    $0x6237,%ecx
 804c0fc:	e8 57 c6 00 00       	call   8058758 <__afl_maybe_log>
 804c101:	8b 44 24 0c          	mov    0xc(%esp),%eax
 804c105:	8b 4c 24 08          	mov    0x8(%esp),%ecx
 804c109:	8b 54 24 04          	mov    0x4(%esp),%edx
 804c10d:	8b 3c 24             	mov    (%esp),%edi
 804c110:	8d 64 24 10          	lea    0x10(%esp),%esp
 804c114:	83 3d cc b2 06 08 00 	cmpl   $0x0,0x806b2cc
 804c11b:	0f 88 4c 95 00 00    	js     805566d <main+0xc12d>
 804c121:	8d 76 00             	lea    0x0(%esi),%esi
 804c124:	8d 64 24 f0          	lea    -0x10(%esp),%esp
 804c128:	89 3c 24             	mov    %edi,(%esp)
 804c12b:	89 54 24 04          	mov    %edx,0x4(%esp)
 804c12f:	89 4c 24 08          	mov    %ecx,0x8(%esp)
 804c133:	89 44 24 0c          	mov    %eax,0xc(%esp)
 804c137:	b9 30 5e 00 00       	mov    $0x5e30,%ecx
 804c13c:	e8 17 c6 00 00       	call   8058758 <__afl_maybe_log>
 804c141:	8b 44 24 0c          	mov    0xc(%esp),%eax
 804c145:	8b 4c 24 08          	mov    0x8(%esp),%ecx
 804c149:	8b 54 24 04          	mov    0x4(%esp),%edx
 804c14d:	8b 3c 24             	mov    (%esp),%edi
 804c150:	8d 64 24 10          	lea    0x10(%esp),%esp
	report_label_coverage("ABS", 493);
}

// ROR Label 494
if((optind <= argc) != (optind < argc))  {asm volatile (""::: "memory");
 804c154:	8d 64 24 f0          	lea    -0x10(%esp),%esp
 804c158:	89 3c 24             	mov    %edi,(%esp)
 804c15b:	89 54 24 04          	mov    %edx,0x4(%esp)
 804c15f:	89 4c 24 08          	mov    %ecx,0x8(%esp)
 804c163:	89 44 24 0c          	mov    %eax,0xc(%esp)
 804c167:	b9 74 4b 00 00       	mov    $0x4b74,%ecx
 804c16c:	e8 e7 c5 00 00       	call   8058758 <__afl_maybe_log>
 804c171:	8b 44 24 0c          	mov    0xc(%esp),%eax
 804c175:	8b 4c 24 08          	mov    0x8(%esp),%ecx
 804c179:	8b 54 24 04          	mov    0x4(%esp),%edx
 804c17d:	8b 3c 24             	mov    (%esp),%edi
 804c180:	8d 64 24 10          	lea    0x10(%esp),%esp
 804c184:	a1 cc b2 06 08       	mov    0x806b2cc,%eax
 804c189:	8b 55 94             	mov    -0x6c(%ebp),%edx
 804c18c:	39 d0                	cmp    %edx,%eax
 804c18e:	0f 9e c3             	setle  %bl
 804c191:	39 c2                	cmp    %eax,%edx
 804c193:	0f 9f c1             	setg   %cl
 804c196:	38 cb                	cmp    %cl,%bl
 804c198:	74 4b                	je     804c1e5 <main+0x2ca5>
 804c19a:	66 90                	xchg   %ax,%ax
 804c19c:	8d 64 24 f0          	lea    -0x10(%esp),%esp
 804c1a0:	89 3c 24             	mov    %edi,(%esp)
 804c1a3:	89 54 24 04          	mov    %edx,0x4(%esp)
 804c1a7:	89 4c 24 08          	mov    %ecx,0x8(%esp)
 804c1ab:	89 44 24 0c          	mov    %eax,0xc(%esp)
 804c1af:	b9 f9 a5 00 00       	mov    $0xa5f9,%ecx
 804c1b4:	e8 9f c5 00 00       	call   8058758 <__afl_maybe_log>
 804c1b9:	8b 44 24 0c          	mov    0xc(%esp),%eax
 804c1bd:	8b 4c 24 08          	mov    0x8(%esp),%ecx
 804c1c1:	8b 54 24 04          	mov    0x4(%esp),%edx
 804c1c5:	8b 3c 24             	mov    (%esp),%edi
 804c1c8:	8d 64 24 10          	lea    0x10(%esp),%esp
	report_label_coverage("ROR", 494);
 804c1cc:	51                   	push   %ecx
 804c1cd:	51                   	push   %ecx
 804c1ce:	68 ee 01 00 00       	push   $0x1ee
 804c1d3:	68 c8 70 06 08       	push   $0x80670c8
 804c1d8:	e8 e3 9e 00 00       	call   80560c0 <report_label_coverage>
 804c1dd:	a1 cc b2 06 08       	mov    0x806b2cc,%eax
 804c1e2:	83 c4 10             	add    $0x10,%esp
 804c1e5:	8d 76 00             	lea    0x0(%esi),%esi
}
// ROR Label 495
if((optind > argc) != (optind < argc))  {asm volatile (""::: "memory");
 804c1e8:	8d 64 24 f0          	lea    -0x10(%esp),%esp
 804c1ec:	89 3c 24             	mov    %edi,(%esp)
 804c1ef:	89 54 24 04          	mov    %edx,0x4(%esp)
 804c1f3:	89 4c 24 08          	mov    %ecx,0x8(%esp)
 804c1f7:	89 44 24 0c          	mov    %eax,0xc(%esp)
 804c1fb:	b9 3e 38 00 00       	mov    $0x383e,%ecx
 804c200:	e8 53 c5 00 00       	call   8058758 <__afl_maybe_log>
 804c205:	8b 44 24 0c          	mov    0xc(%esp),%eax
 804c209:	8b 4c 24 08          	mov    0x8(%esp),%ecx
 804c20d:	8b 54 24 04          	mov    0x4(%esp),%edx
 804c211:	8b 3c 24             	mov    (%esp),%edi
 804c214:	8d 64 24 10          	lea    0x10(%esp),%esp
 804c218:	8b 75 94             	mov    -0x6c(%ebp),%esi
 804c21b:	39 f0                	cmp    %esi,%eax
 804c21d:	0f 9f c3             	setg   %bl
 804c220:	39 c6                	cmp    %eax,%esi
 804c222:	0f 9f c2             	setg   %dl
 804c225:	38 d3                	cmp    %dl,%bl
 804c227:	74 4c                	je     804c275 <main+0x2d35>
 804c229:	8d 76 00             	lea    0x0(%esi),%esi
 804c22c:	8d 64 24 f0          	lea    -0x10(%esp),%esp
 804c230:	89 3c 24             	mov    %edi,(%esp)
 804c233:	89 54 24 04          	mov    %edx,0x4(%esp)
 804c237:	89 4c 24 08          	mov    %ecx,0x8(%esp)
 804c23b:	89 44 24 0c          	mov    %eax,0xc(%esp)
 804c23f:	b9 23 bd 00 00       	mov    $0xbd23,%ecx
 804c244:	e8 0f c5 00 00       	call   8058758 <__afl_maybe_log>
 804c249:	8b 44 24 0c          	mov    0xc(%esp),%eax
 804c24d:	8b 4c 24 08          	mov    0x8(%esp),%ecx
 804c251:	8b 54 24 04          	mov    0x4(%esp),%edx
 804c255:	8b 3c 24             	mov    (%esp),%edi
 804c258:	8d 64 24 10          	lea    0x10(%esp),%esp
	report_label_coverage("ROR", 495);
 804c25c:	52                   	push   %edx
 804c25d:	52                   	push   %edx
 804c25e:	68 ef 01 00 00       	push   $0x1ef
 804c263:	68 c8 70 06 08       	push   $0x80670c8
 804c268:	e8 53 9e 00 00       	call   80560c0 <report_label_coverage>
 804c26d:	a1 cc b2 06 08       	mov    0x806b2cc,%eax
 804c272:	83 c4 10             	add    $0x10,%esp
 804c275:	8d 76 00             	lea    0x0(%esi),%esi
}
// ROR Label 496
if((optind >= argc) != (optind < argc))  {asm volatile (""::: "memory");
 804c278:	8d 64 24 f0          	lea    -0x10(%esp),%esp
 804c27c:	89 3c 24             	mov    %edi,(%esp)
 804c27f:	89 54 24 04          	mov    %edx,0x4(%esp)
 804c283:	89 4c 24 08          	mov    %ecx,0x8(%esp)
 804c287:	89 44 24 0c          	mov    %eax,0xc(%esp)
 804c28b:	b9 49 98 00 00       	mov    $0x9849,%ecx
 804c290:	e8 c3 c4 00 00       	call   8058758 <__afl_maybe_log>
 804c295:	8b 44 24 0c          	mov    0xc(%esp),%eax
 804c299:	8b 4c 24 08          	mov    0x8(%esp),%ecx
 804c29d:	8b 54 24 04          	mov    0x4(%esp),%edx
 804c2a1:	8b 3c 24             	mov    (%esp),%edi
 804c2a4:	8d 64 24 10          	lea    0x10(%esp),%esp
 804c2a8:	8b 7d 94             	mov    -0x6c(%ebp),%edi
 804c2ab:	39 f8                	cmp    %edi,%eax
 804c2ad:	0f 9d c1             	setge  %cl
 804c2b0:	39 c7                	cmp    %eax,%edi
 804c2b2:	0f 9f c3             	setg   %bl
 804c2b5:	38 d9                	cmp    %bl,%cl
 804c2b7:	74 47                	je     804c300 <main+0x2dc0>
 804c2b9:	8d 76 00             	lea    0x0(%esi),%esi
 804c2bc:	8d 64 24 f0          	lea    -0x10(%esp),%esp
 804c2c0:	89 3c 24             	mov    %edi,(%esp)
 804c2c3:	89 54 24 04          	mov    %edx,0x4(%esp)
 804c2c7:	89 4c 24 08          	mov    %ecx,0x8(%esp)
 804c2cb:	89 44 24 0c          	mov    %eax,0xc(%esp)
 804c2cf:	b9 8b 6f 00 00       	mov    $0x6f8b,%ecx
 804c2d4:	e8 7f c4 00 00       	call   8058758 <__afl_maybe_log>
 804c2d9:	8b 44 24 0c          	mov    0xc(%esp),%eax
 804c2dd:	8b 4c 24 08          	mov    0x8(%esp),%ecx
 804c2e1:	8b 54 24 04          	mov    0x4(%esp),%edx
 804c2e5:	8b 3c 24             	mov    (%esp),%edi
 804c2e8:	8d 64 24 10          	lea    0x10(%esp),%esp
	report_label_coverage("ROR", 496);
 804c2ec:	50                   	push   %eax
 804c2ed:	50                   	push   %eax
 804c2ee:	68 f0 01 00 00       	push   $0x1f0
 804c2f3:	68 c8 70 06 08       	push   $0x80670c8
 804c2f8:	e8 c3 9d 00 00       	call   80560c0 <report_label_coverage>
 804c2fd:	83 c4 10             	add    $0x10,%esp
  
// ABS Label 521
if(have_read_stdin < 0)  {asm volatile (""::: "memory");
	report_label_coverage("ABS", 521);
}
if (have_read_stdin) {
 804c300:	8d 64 24 f0          	lea    -0x10(%esp),%esp
 804c304:	89 3c 24             	mov    %edi,(%esp)
 804c307:	89 54 24 04          	mov    %edx,0x4(%esp)
 804c30b:	89 4c 24 08          	mov    %ecx,0x8(%esp)
 804c30f:	89 44 24 0c          	mov    %eax,0xc(%esp)
 804c313:	b9 8f 43 00 00       	mov    $0x438f,%ecx
 804c318:	e8 3b c4 00 00       	call   8058758 <__afl_maybe_log>
 804c31d:	8b 44 24 0c          	mov    0xc(%esp),%eax
 804c321:	8b 4c 24 08          	mov    0x8(%esp),%ecx
 804c325:	8b 54 24 04          	mov    0x4(%esp),%edx
 804c329:	8b 3c 24             	mov    (%esp),%edi
 804c32c:	8d 64 24 10          	lea    0x10(%esp),%esp
 804c330:	80 3d 0c b3 06 08 00 	cmpb   $0x0,0x806b30c
 804c337:	0f 85 50 8a 00 00    	jne    8054d8d <main+0xb84d>
 804c33d:	8d 76 00             	lea    0x0(%esi),%esi
 804c340:	8d 64 24 f0          	lea    -0x10(%esp),%esp
 804c344:	89 3c 24             	mov    %edi,(%esp)
 804c347:	89 54 24 04          	mov    %edx,0x4(%esp)
 804c34b:	89 4c 24 08          	mov    %ecx,0x8(%esp)
 804c34f:	89 44 24 0c          	mov    %eax,0xc(%esp)
 804c353:	b9 cc 1e 00 00       	mov    $0x1ecc,%ecx
 804c358:	e8 fb c3 00 00       	call   8058758 <__afl_maybe_log>
 804c35d:	8b 44 24 0c          	mov    0xc(%esp),%eax
 804c361:	8b 4c 24 08          	mov    0x8(%esp),%ecx
 804c365:	8b 54 24 04          	mov    0x4(%esp),%edx
 804c369:	8b 3c 24             	mov    (%esp),%edi
 804c36c:	8d 64 24 10          	lea    0x10(%esp),%esp
if (temp_1 == temp_2)
        error(1, (*__errno_location()), gettext("standard input"));
}
;

  return ok ? EXIT_SUCCESS : EXIT_FAILURE;
 804c370:	8d 64 24 f0          	lea    -0x10(%esp),%esp
 804c374:	89 3c 24             	mov    %edi,(%esp)
 804c377:	89 54 24 04          	mov    %edx,0x4(%esp)
 804c37b:	89 4c 24 08          	mov    %ecx,0x8(%esp)
 804c37f:	89 44 24 0c          	mov    %eax,0xc(%esp)
 804c383:	b9 bc 5c 00 00       	mov    $0x5cbc,%ecx
 804c388:	e8 cb c3 00 00       	call   8058758 <__afl_maybe_log>
 804c38d:	8b 44 24 0c          	mov    0xc(%esp),%eax
 804c391:	8b 4c 24 08          	mov    0x8(%esp),%ecx
 804c395:	8b 54 24 04          	mov    0x4(%esp),%edx
 804c399:	8b 3c 24             	mov    (%esp),%edi
 804c39c:	8d 64 24 10          	lea    0x10(%esp),%esp
 804c3a0:	0f b6 95 62 ff ff ff 	movzbl -0x9e(%ebp),%edx
}
 804c3a7:	8d 65 f0             	lea    -0x10(%ebp),%esp
 804c3aa:	59                   	pop    %ecx
 804c3ab:	5b                   	pop    %ebx
if (temp_1 == temp_2)
        error(1, (*__errno_location()), gettext("standard input"));
}
;

  return ok ? EXIT_SUCCESS : EXIT_FAILURE;
 804c3ac:	83 f2 01             	xor    $0x1,%edx
}
 804c3af:	5e                   	pop    %esi
if (temp_1 == temp_2)
        error(1, (*__errno_location()), gettext("standard input"));
}
;

  return ok ? EXIT_SUCCESS : EXIT_FAILURE;
 804c3b0:	0f b6 c2             	movzbl %dl,%eax
}
 804c3b3:	5f                   	pop    %edi
 804c3b4:	5d                   	pop    %ebp
 804c3b5:	8d 61 fc             	lea    -0x4(%ecx),%esp
 804c3b8:	c3                   	ret    
 804c3b9:	8d 76 00             	lea    0x0(%esi),%esi
 804c3bc:	8d 64 24 f0          	lea    -0x10(%esp),%esp
 804c3c0:	89 3c 24             	mov    %edi,(%esp)
 804c3c3:	89 54 24 04          	mov    %edx,0x4(%esp)
 804c3c7:	89 4c 24 08          	mov    %ecx,0x8(%esp)
 804c3cb:	89 44 24 0c          	mov    %eax,0xc(%esp)
 804c3cf:	b9 da d6 00 00       	mov    $0xd6da,%ecx
 804c3d4:	e8 7f c3 00 00       	call   8058758 <__afl_maybe_log>
 804c3d9:	8b 44 24 0c          	mov    0xc(%esp),%eax
 804c3dd:	8b 4c 24 08          	mov    0x8(%esp),%ecx
 804c3e1:	8b 54 24 04          	mov    0x4(%esp),%edx
 804c3e5:	8b 3c 24             	mov    (%esp),%edi
 804c3e8:	8d 64 24 10          	lea    0x10(%esp),%esp
 804c3ec:	c6 45 9c 01          	movb   $0x1,-0x64(%ebp)
if(binary < 0)  {asm volatile (""::: "memory");
	report_label_coverage("ABS", 449);
}

// COR Label 450
if((0 <= binary || do_check) != (0 <= binary && do_check))  {asm volatile (""::: "memory");
 804c3f0:	c6 45 a4 01          	movb   $0x1,-0x5c(%ebp)
 804c3f4:	e9 2f de ff ff       	jmp    804a228 <main+0xce8>
 804c3f9:	8d 76 00             	lea    0x0(%esi),%esi
if(prefix_tag && !(do_check) ) {asm volatile (""::: "memory");
	report_label_coverage("MCC", 446);
}
// MCC Label 447
if(!(prefix_tag) && do_check ) {asm volatile (""::: "memory");
	report_label_coverage("MCC", 447);
 804c3fc:	8d 64 24 f0          	lea    -0x10(%esp),%esp
 804c400:	89 3c 24             	mov    %edi,(%esp)
 804c403:	89 54 24 04          	mov    %edx,0x4(%esp)
 804c407:	89 4c 24 08          	mov    %ecx,0x8(%esp)
 804c40b:	89 44 24 0c          	mov    %eax,0xc(%esp)
 804c40f:	b9 ae 2b 00 00       	mov    $0x2bae,%ecx
 804c414:	e8 3f c3 00 00       	call   8058758 <__afl_maybe_log>
 804c419:	8b 44 24 0c          	mov    0xc(%esp),%eax
 804c41d:	8b 4c 24 08          	mov    0x8(%esp),%ecx
 804c421:	8b 54 24 04          	mov    0x4(%esp),%edx
 804c425:	8b 3c 24             	mov    (%esp),%edi
 804c428:	8d 64 24 10          	lea    0x10(%esp),%esp
 804c42c:	50                   	push   %eax
 804c42d:	50                   	push   %eax
 804c42e:	68 bf 01 00 00       	push   $0x1bf
 804c433:	68 de 70 06 08       	push   $0x80670de
 804c438:	e8 83 9c 00 00       	call   80560c0 <report_label_coverage>
 804c43d:	83 c4 10             	add    $0x10,%esp
 804c440:	e9 37 dc ff ff       	jmp    804a07c <main+0xb3c>
 804c445:	8d 76 00             	lea    0x0(%esi),%esi
if(prefix_tag && do_check ) {asm volatile (""::: "memory");
	report_label_coverage("MCC", 445);
}
// MCC Label 446
if(prefix_tag && !(do_check) ) {asm volatile (""::: "memory");
	report_label_coverage("MCC", 446);
 804c448:	8d 64 24 f0          	lea    -0x10(%esp),%esp
 804c44c:	89 3c 24             	mov    %edi,(%esp)
 804c44f:	89 54 24 04          	mov    %edx,0x4(%esp)
 804c453:	89 4c 24 08          	mov    %ecx,0x8(%esp)
 804c457:	89 44 24 0c          	mov    %eax,0xc(%esp)
 804c45b:	b9 01 09 00 00       	mov    $0x901,%ecx
 804c460:	e8 f3 c2 00 00       	call   8058758 <__afl_maybe_log>
 804c465:	8b 44 24 0c          	mov    0xc(%esp),%eax
 804c469:	8b 4c 24 08          	mov    0x8(%esp),%ecx
 804c46d:	8b 54 24 04          	mov    0x4(%esp),%edx
 804c471:	8b 3c 24             	mov    (%esp),%edi
 804c474:	8d 64 24 10          	lea    0x10(%esp),%esp
 804c478:	50                   	push   %eax
 804c479:	50                   	push   %eax
 804c47a:	68 be 01 00 00       	push   $0x1be
 804c47f:	68 de 70 06 08       	push   $0x80670de
 804c484:	e8 37 9c 00 00       	call   80560c0 <report_label_coverage>
 804c489:	83 c4 10             	add    $0x10,%esp
 804c48c:	e9 77 db ff ff       	jmp    804a008 <main+0xac8>
 804c491:	8d 76 00             	lea    0x0(%esi),%esi
if(prefix_tag && !binary ) {asm volatile (""::: "memory");
	report_label_coverage("MCC", 440);
}
// MCC Label 441
if(prefix_tag && !(!binary) ) {asm volatile (""::: "memory");
	report_label_coverage("MCC", 441);
 804c494:	8d 64 24 f0          	lea    -0x10(%esp),%esp
 804c498:	89 3c 24             	mov    %edi,(%esp)
 804c49b:	89 54 24 04          	mov    %edx,0x4(%esp)
 804c49f:	89 4c 24 08          	mov    %ecx,0x8(%esp)
 804c4a3:	89 44 24 0c          	mov    %eax,0xc(%esp)
 804c4a7:	b9 c6 99 00 00       	mov    $0x99c6,%ecx
 804c4ac:	e8 a7 c2 00 00       	call   8058758 <__afl_maybe_log>
 804c4b1:	8b 44 24 0c          	mov    0xc(%esp),%eax
 804c4b5:	8b 4c 24 08          	mov    0x8(%esp),%ecx
 804c4b9:	8b 54 24 04          	mov    0x4(%esp),%edx
 804c4bd:	8b 3c 24             	mov    (%esp),%edi
 804c4c0:	8d 64 24 10          	lea    0x10(%esp),%esp
 804c4c4:	50                   	push   %eax
 804c4c5:	50                   	push   %eax
 804c4c6:	68 b9 01 00 00       	push   $0x1b9
 804c4cb:	68 de 70 06 08       	push   $0x80670de
 804c4d0:	e8 eb 9b 00 00       	call   80560c0 <report_label_coverage>
 804c4d5:	83 c4 10             	add    $0x10,%esp
 804c4d8:	e9 bb d9 ff ff       	jmp    8049e98 <main+0x958>
 804c4dd:	8d 76 00             	lea    0x0(%esi),%esi
if(!(prefix_tag) && !binary ) {asm volatile (""::: "memory");
	report_label_coverage("MCC", 442);
}
// MCC Label 443
if(!(prefix_tag) && !(!binary) ) {asm volatile (""::: "memory");
	report_label_coverage("MCC", 443);
 804c4e0:	8d 64 24 f0          	lea    -0x10(%esp),%esp
 804c4e4:	89 3c 24             	mov    %edi,(%esp)
 804c4e7:	89 54 24 04          	mov    %edx,0x4(%esp)
 804c4eb:	89 4c 24 08          	mov    %ecx,0x8(%esp)
 804c4ef:	89 44 24 0c          	mov    %eax,0xc(%esp)
 804c4f3:	b9 e2 7a 00 00       	mov    $0x7ae2,%ecx
 804c4f8:	e8 5b c2 00 00       	call   8058758 <__afl_maybe_log>
 804c4fd:	8b 44 24 0c          	mov    0xc(%esp),%eax
 804c501:	8b 4c 24 08          	mov    0x8(%esp),%ecx
 804c505:	8b 54 24 04          	mov    0x4(%esp),%edx
 804c509:	8b 3c 24             	mov    (%esp),%edi
 804c50c:	8d 64 24 10          	lea    0x10(%esp),%esp
 804c510:	56                   	push   %esi
 804c511:	56                   	push   %esi
 804c512:	68 bb 01 00 00       	push   $0x1bb
 804c517:	68 de 70 06 08       	push   $0x80670de
 804c51c:	e8 9f 9b 00 00       	call   80560c0 <report_label_coverage>
 804c521:	83 c4 10             	add    $0x10,%esp
 804c524:	e9 6f d9 ff ff       	jmp    8049e98 <main+0x958>
 804c529:	8d 76 00             	lea    0x0(%esi),%esi
 804c52c:	8d 64 24 f0          	lea    -0x10(%esp),%esp
 804c530:	89 3c 24             	mov    %edi,(%esp)
 804c533:	89 54 24 04          	mov    %edx,0x4(%esp)
 804c537:	89 4c 24 08          	mov    %ecx,0x8(%esp)
 804c53b:	89 44 24 0c          	mov    %eax,0xc(%esp)
 804c53f:	b9 3b 14 00 00       	mov    $0x143b,%ecx
 804c544:	e8 0f c2 00 00       	call   8058758 <__afl_maybe_log>
 804c549:	8b 44 24 0c          	mov    0xc(%esp),%eax
 804c54d:	8b 4c 24 08          	mov    0x8(%esp),%ecx
 804c551:	8b 54 24 04          	mov    0x4(%esp),%edx
 804c555:	8b 3c 24             	mov    (%esp),%edi
 804c558:	8d 64 24 10          	lea    0x10(%esp),%esp
 804c55c:	88 45 a4             	mov    %al,-0x5c(%ebp)
if(prefix_tag && !(!binary) ) {asm volatile (""::: "memory");
	report_label_coverage("MCC", 441);
}
// MCC Label 442
if(!(prefix_tag) && !binary ) {asm volatile (""::: "memory");
	report_label_coverage("MCC", 442);
 804c55f:	57                   	push   %edi
 804c560:	57                   	push   %edi
 804c561:	68 ba 01 00 00       	push   $0x1ba
 804c566:	68 de 70 06 08       	push   $0x80670de
 804c56b:	e8 50 9b 00 00       	call   80560c0 <report_label_coverage>
 804c570:	83 c4 10             	add    $0x10,%esp
 804c573:	0f b6 45 a4          	movzbl -0x5c(%ebp),%eax
 804c577:	e9 b0 d8 ff ff       	jmp    8049e2c <main+0x8ec>
// ABS Label 501
if(temp_1 < 0)  {asm volatile (""::: "memory");
	report_label_coverage("ABS", 501);
}
if (temp_1)
        ok = 0;
 804c57c:	8d 64 24 f0          	lea    -0x10(%esp),%esp
 804c580:	89 3c 24             	mov    %edi,(%esp)
 804c583:	89 54 24 04          	mov    %edx,0x4(%esp)
 804c587:	89 4c 24 08          	mov    %ecx,0x8(%esp)
 804c58b:	89 44 24 0c          	mov    %eax,0xc(%esp)
 804c58f:	b9 c4 8c 00 00       	mov    $0x8cc4,%ecx
 804c594:	e8 bf c1 00 00       	call   8058758 <__afl_maybe_log>
 804c599:	8b 44 24 0c          	mov    0xc(%esp),%eax
 804c59d:	8b 4c 24 08          	mov    0x8(%esp),%ecx
 804c5a1:	8b 54 24 04          	mov    0x4(%esp),%edx
 804c5a5:	8b 3c 24             	mov    (%esp),%edi
 804c5a8:	8d 64 24 10          	lea    0x10(%esp),%esp
 804c5ac:	c6 85 62 ff ff ff 00 	movb   $0x0,-0x9e(%ebp)
 804c5b3:	e9 45 fa ff ff       	jmp    804bffd <main+0x2abd>
  /* Make sure bin_buffer is properly aligned. */
  unsigned char *bin_buffer = ptr_align (bin_buffer_unaligned, DIGEST_ALIGN);
  uintmax_t line_number;
  char *line;
  size_t line_chars_allocated;
  bool is_stdin = STREQ (checkfile_name, "-");
 804c5b8:	8d 64 24 f0          	lea    -0x10(%esp),%esp
 804c5bc:	89 3c 24             	mov    %edi,(%esp)
 804c5bf:	89 54 24 04          	mov    %edx,0x4(%esp)
 804c5c3:	89 4c 24 08          	mov    %ecx,0x8(%esp)
 804c5c7:	89 44 24 0c          	mov    %eax,0xc(%esp)
 804c5cb:	b9 f4 c3 00 00       	mov    $0xc3f4,%ecx
 804c5d0:	e8 83 c1 00 00       	call   8058758 <__afl_maybe_log>
 804c5d5:	8b 44 24 0c          	mov    0xc(%esp),%eax
 804c5d9:	8b 4c 24 08          	mov    0x8(%esp),%ecx
 804c5dd:	8b 54 24 04          	mov    0x4(%esp),%edx
 804c5e1:	8b 3c 24             	mov    (%esp),%edi
 804c5e4:	8d 64 24 10          	lea    0x10(%esp),%esp
 804c5e8:	8b 4d 80             	mov    -0x80(%ebp),%ecx
 804c5eb:	8d 7d d7             	lea    -0x29(%ebp),%edi
 804c5ee:	2b bd 3c ff ff ff    	sub    -0xc4(%ebp),%edi
 804c5f4:	80 39 2d             	cmpb   $0x2d,(%ecx)
 804c5f7:	89 7d 98             	mov    %edi,-0x68(%ebp)
 804c5fa:	0f 85 a5 69 00 00    	jne    8052fa5 <main+0x9a65>
 804c600:	8d 64 24 f0          	lea    -0x10(%esp),%esp
 804c604:	89 3c 24             	mov    %edi,(%esp)
 804c607:	89 54 24 04          	mov    %edx,0x4(%esp)
 804c60b:	89 4c 24 08          	mov    %ecx,0x8(%esp)
 804c60f:	89 44 24 0c          	mov    %eax,0xc(%esp)
 804c613:	b9 1a f4 00 00       	mov    $0xf41a,%ecx
 804c618:	e8 3b c1 00 00       	call   8058758 <__afl_maybe_log>
 804c61d:	8b 44 24 0c          	mov    0xc(%esp),%eax
 804c621:	8b 4c 24 08          	mov    0x8(%esp),%ecx
 804c625:	8b 54 24 04          	mov    0x4(%esp),%edx
 804c629:	8b 3c 24             	mov    (%esp),%edi
 804c62c:	8d 64 24 10          	lea    0x10(%esp),%esp
  
// ABS Label 321
if(is_stdin < 0)  {asm volatile (""::: "memory");
	report_label_coverage("ABS", 321);
}
if (is_stdin)
 804c630:	80 79 01 00          	cmpb   $0x0,0x1(%ecx)
 804c634:	0f 85 6b 69 00 00    	jne    8052fa5 <main+0x9a65>
 804c63a:	66 90                	xchg   %ax,%ax
 804c63c:	8d 64 24 f0          	lea    -0x10(%esp),%esp
 804c640:	89 3c 24             	mov    %edi,(%esp)
 804c643:	89 54 24 04          	mov    %edx,0x4(%esp)
 804c647:	89 4c 24 08          	mov    %ecx,0x8(%esp)
 804c64b:	89 44 24 0c          	mov    %eax,0xc(%esp)
 804c64f:	b9 f9 34 00 00       	mov    $0x34f9,%ecx
 804c654:	e8 ff c0 00 00       	call   8058758 <__afl_maybe_log>
 804c659:	8b 44 24 0c          	mov    0xc(%esp),%eax
 804c65d:	8b 4c 24 08          	mov    0x8(%esp),%ecx
 804c661:	8b 54 24 04          	mov    0x4(%esp),%edx
 804c665:	8b 3c 24             	mov    (%esp),%edi
 804c668:	8d 64 24 10          	lea    0x10(%esp),%esp
    {
      have_read_stdin = true;
      checkfile_name = _("standard input");
 804c66c:	50                   	push   %eax
 804c66d:	6a 05                	push   $0x5
 804c66f:	68 c4 71 06 08       	push   $0x80671c4
 804c674:	6a 00                	push   $0x0
if(is_stdin < 0)  {asm volatile (""::: "memory");
	report_label_coverage("ABS", 321);
}
if (is_stdin)
    {
      have_read_stdin = true;
 804c676:	c6 05 0c b3 06 08 01 	movb   $0x1,0x806b30c
      checkfile_name = _("standard input");
 804c67d:	e8 4e cb ff ff       	call   80491d0 <dcgettext@plt>
      checkfile_stream = stdin;
 804c682:	8b 35 d0 b2 06 08    	mov    0x806b2d0,%esi
	report_label_coverage("ABS", 321);
}
if (is_stdin)
    {
      have_read_stdin = true;
      checkfile_name = _("standard input");
 804c688:	89 45 80             	mov    %eax,-0x80(%ebp)
      checkfile_stream = stdin;
 804c68b:	83 c4 10             	add    $0x10,%esp
  /* Make sure bin_buffer is properly aligned. */
  unsigned char *bin_buffer = ptr_align (bin_buffer_unaligned, DIGEST_ALIGN);
  uintmax_t line_number;
  char *line;
  size_t line_chars_allocated;
  bool is_stdin = STREQ (checkfile_name, "-");
 804c68e:	c6 85 63 ff ff ff 01 	movb   $0x1,-0x9d(%ebp)
}
if (is_stdin)
    {
      have_read_stdin = true;
      checkfile_name = _("standard input");
      checkfile_stream = stdin;
 804c695:	89 75 84             	mov    %esi,-0x7c(%ebp)
          return false;
        }
    }

  line_number = 0;
  line = NULL;
 804c698:	8d 64 24 f0          	lea    -0x10(%esp),%esp
 804c69c:	89 3c 24             	mov    %edi,(%esp)
 804c69f:	89 54 24 04          	mov    %edx,0x4(%esp)
 804c6a3:	89 4c 24 08          	mov    %ecx,0x8(%esp)
 804c6a7:	89 44 24 0c          	mov    %eax,0xc(%esp)
 804c6ab:	b9 24 11 00 00       	mov    $0x1124,%ecx
 804c6b0:	e8 a3 c0 00 00       	call   8058758 <__afl_maybe_log>
 804c6b5:	8b 44 24 0c          	mov    0xc(%esp),%eax
 804c6b9:	8b 4c 24 08          	mov    0x8(%esp),%ecx
 804c6bd:	8b 54 24 04          	mov    0x4(%esp),%edx
 804c6c1:	8b 3c 24             	mov    (%esp),%edi
 804c6c4:	8d 64 24 10          	lea    0x10(%esp),%esp
 804c6c8:	c7 45 ac 00 00 00 00 	movl   $0x0,-0x54(%ebp)
  line_chars_allocated = 0;
 804c6cf:	c7 45 b0 00 00 00 00 	movl   $0x0,-0x50(%ebp)
error (0, errno, "%s", checkfile_name);
          return false;
        }
    }

  line_number = 0;
 804c6d6:	c7 45 88 00 00 00 00 	movl   $0x0,-0x78(%ebp)
 804c6dd:	c7 45 8c 00 00 00 00 	movl   $0x0,-0x74(%ebp)
  FILE *checkfile_stream;
  uintmax_t n_misformatted_lines = 0;
  uintmax_t n_properly_formatted_lines = 0;
  uintmax_t n_improperly_formatted_lines = 0;
  uintmax_t n_mismatched_checksums = 0;
  uintmax_t n_open_or_read_failures = 0;
 804c6e4:	c7 85 48 ff ff ff 00 	movl   $0x0,-0xb8(%ebp)
 804c6eb:	00 00 00 
 804c6ee:	c7 85 4c ff ff ff 00 	movl   $0x0,-0xb4(%ebp)
 804c6f5:	00 00 00 
{
  FILE *checkfile_stream;
  uintmax_t n_misformatted_lines = 0;
  uintmax_t n_properly_formatted_lines = 0;
  uintmax_t n_improperly_formatted_lines = 0;
  uintmax_t n_mismatched_checksums = 0;
 804c6f8:	c7 85 40 ff ff ff 00 	movl   $0x0,-0xc0(%ebp)
 804c6ff:	00 00 00 
 804c702:	c7 85 44 ff ff ff 00 	movl   $0x0,-0xbc(%ebp)
 804c709:	00 00 00 
digest_check (const char *checkfile_name)
{
  FILE *checkfile_stream;
  uintmax_t n_misformatted_lines = 0;
  uintmax_t n_properly_formatted_lines = 0;
  uintmax_t n_improperly_formatted_lines = 0;
 804c70c:	c7 85 50 ff ff ff 00 	movl   $0x0,-0xb0(%ebp)
 804c713:	00 00 00 
 804c716:	c7 85 54 ff ff ff 00 	movl   $0x0,-0xac(%ebp)
 804c71d:	00 00 00 
static bool
digest_check (const char *checkfile_name)
{
  FILE *checkfile_stream;
  uintmax_t n_misformatted_lines = 0;
  uintmax_t n_properly_formatted_lines = 0;
 804c720:	c7 85 68 ff ff ff 00 	movl   $0x0,-0x98(%ebp)
 804c727:	00 00 00 
 804c72a:	c7 85 6c ff ff ff 00 	movl   $0x0,-0x94(%ebp)
 804c731:	00 00 00 

static bool
digest_check (const char *checkfile_name)
{
  FILE *checkfile_stream;
  uintmax_t n_misformatted_lines = 0;
 804c734:	c7 85 58 ff ff ff 00 	movl   $0x0,-0xa8(%ebp)
 804c73b:	00 00 00 
 804c73e:	c7 85 5c ff ff ff 00 	movl   $0x0,-0xa4(%ebp)
 804c745:	00 00 00 
 804c748:	90                   	nop
 804c749:	8d b4 26 00 00 00 00 	lea    0x0(%esi,%eiz,1),%esi
    {
        char *filename;
        int binary;
        unsigned char *hex_digest;
        ssize_t line_length;
        ++line_number;
 804c750:	83 45 88 01          	addl   $0x1,-0x78(%ebp)
 804c754:	83 55 8c 00          	adcl   $0x0,-0x74(%ebp)
if(line_number < 0)  {asm volatile (""::: "memory");
	report_label_coverage("ABS", 326);
}

// ROR Label 327
if((line_number != 0) != (line_number == 0))  {asm volatile (""::: "memory");
 804c758:	8b 45 88             	mov    -0x78(%ebp),%eax
 804c75b:	8b 7d 8c             	mov    -0x74(%ebp),%edi
 804c75e:	89 c1                	mov    %eax,%ecx
 804c760:	09 f9                	or     %edi,%ecx
 804c762:	0f 94 c3             	sete   %bl
 804c765:	0f 95 c2             	setne  %dl
 804c768:	38 da                	cmp    %bl,%dl
 804c76a:	74 45                	je     804c7b1 <main+0x3271>
 804c76c:	8d 64 24 f0          	lea    -0x10(%esp),%esp
 804c770:	89 3c 24             	mov    %edi,(%esp)
 804c773:	89 54 24 04          	mov    %edx,0x4(%esp)
 804c777:	89 4c 24 08          	mov    %ecx,0x8(%esp)
 804c77b:	89 44 24 0c          	mov    %eax,0xc(%esp)
 804c77f:	b9 b0 80 00 00       	mov    $0x80b0,%ecx
 804c784:	e8 cf bf 00 00       	call   8058758 <__afl_maybe_log>
 804c789:	8b 44 24 0c          	mov    0xc(%esp),%eax
 804c78d:	8b 4c 24 08          	mov    0x8(%esp),%ecx
 804c791:	8b 54 24 04          	mov    0x4(%esp),%edx
 804c795:	8b 3c 24             	mov    (%esp),%edi
 804c798:	8d 64 24 10          	lea    0x10(%esp),%esp
	report_label_coverage("ROR", 327);
 804c79c:	83 ec 08             	sub    $0x8,%esp
 804c79f:	68 47 01 00 00       	push   $0x147
 804c7a4:	68 c8 70 06 08       	push   $0x80670c8
 804c7a9:	e8 12 99 00 00       	call   80560c0 <report_label_coverage>
 804c7ae:	83 c4 10             	add    $0x10,%esp
 804c7b1:	8d 76 00             	lea    0x0(%esi),%esi
}
if (line_number == 0)
 804c7b4:	8d 64 24 f0          	lea    -0x10(%esp),%esp
 804c7b8:	89 3c 24             	mov    %edi,(%esp)
 804c7bb:	89 54 24 04          	mov    %edx,0x4(%esp)
 804c7bf:	89 4c 24 08          	mov    %ecx,0x8(%esp)
 804c7c3:	89 44 24 0c          	mov    %eax,0xc(%esp)
 804c7c7:	b9 ab 7b 00 00       	mov    $0x7bab,%ecx
 804c7cc:	e8 87 bf 00 00       	call   8058758 <__afl_maybe_log>
 804c7d1:	8b 44 24 0c          	mov    0xc(%esp),%eax
 804c7d5:	8b 4c 24 08          	mov    0x8(%esp),%ecx
 804c7d9:	8b 54 24 04          	mov    0x4(%esp),%edx
 804c7dd:	8b 3c 24             	mov    (%esp),%edi
 804c7e0:	8d 64 24 10          	lea    0x10(%esp),%esp
 804c7e4:	84 db                	test   %bl,%bl
 804c7e6:	0f 85 24 36 00 00    	jne    804fe10 <main+0x68d0>
 804c7ec:	8d 64 24 f0          	lea    -0x10(%esp),%esp
 804c7f0:	89 3c 24             	mov    %edi,(%esp)
 804c7f3:	89 54 24 04          	mov    %edx,0x4(%esp)
 804c7f7:	89 4c 24 08          	mov    %ecx,0x8(%esp)
 804c7fb:	89 44 24 0c          	mov    %eax,0xc(%esp)
 804c7ff:	b9 07 af 00 00       	mov    $0xaf07,%ecx
 804c804:	e8 4f bf 00 00       	call   8058758 <__afl_maybe_log>
 804c809:	8b 44 24 0c          	mov    0xc(%esp),%eax
 804c80d:	8b 4c 24 08          	mov    0x8(%esp),%ecx
 804c811:	8b 54 24 04          	mov    0x4(%esp),%edx
 804c815:	8b 3c 24             	mov    (%esp),%edi
 804c818:	8d 64 24 10          	lea    0x10(%esp),%esp
if((((line)) || ((line))) != (((line)) && ((line))))  {asm volatile (""::: "memory");
	report_label_coverage("COR", 329);
}

// MCC Label 330
if(((line)) && ((line)) ) {asm volatile (""::: "memory");
 804c81c:	8d 64 24 f0          	lea    -0x10(%esp),%esp
 804c820:	89 3c 24             	mov    %edi,(%esp)
 804c823:	89 54 24 04          	mov    %edx,0x4(%esp)
 804c827:	89 4c 24 08          	mov    %ecx,0x8(%esp)
 804c82b:	89 44 24 0c          	mov    %eax,0xc(%esp)
 804c82f:	b9 b0 72 00 00       	mov    $0x72b0,%ecx
 804c834:	e8 1f bf 00 00       	call   8058758 <__afl_maybe_log>
 804c839:	8b 44 24 0c          	mov    0xc(%esp),%eax
 804c83d:	8b 4c 24 08          	mov    0x8(%esp),%ecx
 804c841:	8b 54 24 04          	mov    0x4(%esp),%edx
 804c845:	8b 3c 24             	mov    (%esp),%edi
 804c848:	8d 64 24 10          	lea    0x10(%esp),%esp
 804c84c:	8b 75 ac             	mov    -0x54(%ebp),%esi
 804c84f:	85 f6                	test   %esi,%esi
 804c851:	0f 84 61 35 00 00    	je     804fdb8 <main+0x6878>
 804c857:	90                   	nop
 804c858:	8d 64 24 f0          	lea    -0x10(%esp),%esp
 804c85c:	89 3c 24             	mov    %edi,(%esp)
 804c85f:	89 54 24 04          	mov    %edx,0x4(%esp)
 804c863:	89 4c 24 08          	mov    %ecx,0x8(%esp)
 804c867:	89 44 24 0c          	mov    %eax,0xc(%esp)
 804c86b:	b9 d3 9e 00 00       	mov    $0x9ed3,%ecx
 804c870:	e8 e3 be 00 00       	call   8058758 <__afl_maybe_log>
 804c875:	8b 44 24 0c          	mov    0xc(%esp),%eax
 804c879:	8b 4c 24 08          	mov    0x8(%esp),%ecx
 804c87d:	8b 54 24 04          	mov    0x4(%esp),%edx
 804c881:	8b 3c 24             	mov    (%esp),%edi
 804c884:	8d 64 24 10          	lea    0x10(%esp),%esp
	report_label_coverage("MCC", 330);
 804c888:	83 ec 08             	sub    $0x8,%esp
 804c88b:	68 4a 01 00 00       	push   $0x14a
 804c890:	68 de 70 06 08       	push   $0x80670de
 804c895:	e8 26 98 00 00       	call   80560c0 <report_label_coverage>
// MCC Label 332
if(!(((line))) && ((line)) ) {asm volatile (""::: "memory");
	report_label_coverage("MCC", 332);
}
// MCC Label 333
if(!(((line))) && !(((line))) ) {asm volatile (""::: "memory");
 804c89a:	8b 7d ac             	mov    -0x54(%ebp),%edi
 804c89d:	83 c4 10             	add    $0x10,%esp
 804c8a0:	85 ff                	test   %edi,%edi
 804c8a2:	0f 84 10 35 00 00    	je     804fdb8 <main+0x6878>
 804c8a8:	8d 64 24 f0          	lea    -0x10(%esp),%esp
 804c8ac:	89 3c 24             	mov    %edi,(%esp)
 804c8af:	89 54 24 04          	mov    %edx,0x4(%esp)
 804c8b3:	89 4c 24 08          	mov    %ecx,0x8(%esp)
 804c8b7:	89 44 24 0c          	mov    %eax,0xc(%esp)
 804c8bb:	b9 a1 76 00 00       	mov    $0x76a1,%ecx
 804c8c0:	e8 93 be 00 00       	call   8058758 <__afl_maybe_log>
 804c8c5:	8b 44 24 0c          	mov    0xc(%esp),%eax
 804c8c9:	8b 4c 24 08          	mov    0x8(%esp),%ecx
 804c8cd:	8b 54 24 04          	mov    0x4(%esp),%edx
 804c8d1:	8b 3c 24             	mov    (%esp),%edi
 804c8d4:	8d 64 24 10          	lea    0x10(%esp),%esp
	report_label_coverage("MCC", 333);
}
if (((line)) && ((line))) {
                int lava_549 = 0;
                lava_549 |= ((unsigned char *)(line))[0] << (0 * 8);
                lava_549 |= ((unsigned char *)(line))[1] << (1 * 8);
 804c8d8:	8d 64 24 f0          	lea    -0x10(%esp),%esp
 804c8dc:	89 3c 24             	mov    %edi,(%esp)
 804c8df:	89 54 24 04          	mov    %edx,0x4(%esp)
 804c8e3:	89 4c 24 08          	mov    %ecx,0x8(%esp)
 804c8e7:	89 44 24 0c          	mov    %eax,0xc(%esp)
 804c8eb:	b9 43 e0 00 00       	mov    $0xe043,%ecx
 804c8f0:	e8 63 be 00 00       	call   8058758 <__afl_maybe_log>
 804c8f5:	8b 44 24 0c          	mov    0xc(%esp),%eax
 804c8f9:	8b 4c 24 08          	mov    0x8(%esp),%ecx
 804c8fd:	8b 54 24 04          	mov    0x4(%esp),%edx
 804c901:	8b 3c 24             	mov    (%esp),%edi
 804c904:	8d 64 24 10          	lea    0x10(%esp),%esp
 804c908:	0f b6 47 01          	movzbl 0x1(%edi),%eax
                lava_549 |= ((unsigned char *)(line))[2] << (2 * 8);
 804c90c:	0f b6 5f 02          	movzbl 0x2(%edi),%ebx
if(!(((line))) && !(((line))) ) {asm volatile (""::: "memory");
	report_label_coverage("MCC", 333);
}
if (((line)) && ((line))) {
                int lava_549 = 0;
                lava_549 |= ((unsigned char *)(line))[0] << (0 * 8);
 804c910:	0f b6 17             	movzbl (%edi),%edx
                lava_549 |= ((unsigned char *)(line))[1] << (1 * 8);
                lava_549 |= ((unsigned char *)(line))[2] << (2 * 8);
                lava_549 |= ((unsigned char *)(line))[3] << (3 * 8);
 804c913:	0f b6 77 03          	movzbl 0x3(%edi),%esi
	report_label_coverage("MCC", 333);
}
if (((line)) && ((line))) {
                int lava_549 = 0;
                lava_549 |= ((unsigned char *)(line))[0] << (0 * 8);
                lava_549 |= ((unsigned char *)(line))[1] << (1 * 8);
 804c917:	c1 e0 08             	shl    $0x8,%eax
                lava_549 |= ((unsigned char *)(line))[2] << (2 * 8);
 804c91a:	c1 e3 10             	shl    $0x10,%ebx
 804c91d:	09 c3                	or     %eax,%ebx
                lava_549 |= ((unsigned char *)(line))[3] << (3 * 8);
 804c91f:	c1 e6 18             	shl    $0x18,%esi
}
if (((line)) && ((line))) {
                int lava_549 = 0;
                lava_549 |= ((unsigned char *)(line))[0] << (0 * 8);
                lava_549 |= ((unsigned char *)(line))[1] << (1 * 8);
                lava_549 |= ((unsigned char *)(line))[2] << (2 * 8);
 804c922:	09 d3                	or     %edx,%ebx
                lava_549 |= ((unsigned char *)(line))[3] << (3 * 8);
 804c924:	09 f3                	or     %esi,%ebx
#include <stdio.h>
void lava_set(unsigned int bn, unsigned int val);
extern unsigned int lava_get(unsigned int) ;
static unsigned int lava_val[1000000];
void lava_set(unsigned int bug_num, unsigned int val);
void lava_set(unsigned int bug_num, unsigned int val) { lava_val[bug_num] = val; }
 804c926:	89 1d d4 bb 06 08    	mov    %ebx,0x806bbd4
 804c92c:	89 1d 14 bc 06 08    	mov    %ebx,0x806bc14
 804c932:	89 1d 28 b8 06 08    	mov    %ebx,0x806b828
 804c938:	89 1d 34 b8 06 08    	mov    %ebx,0x806b834
 804c93e:	89 1d 4c b8 06 08    	mov    %ebx,0x806b84c
 804c944:	89 1d 58 b8 06 08    	mov    %ebx,0x806b858
 804c94a:	89 1d 0c b9 06 08    	mov    %ebx,0x806b90c
 804c950:	89 1d 18 b9 06 08    	mov    %ebx,0x806b918
 804c956:	89 1d dc b8 06 08    	mov    %ebx,0x806b8dc
 804c95c:	89 1d d0 b8 06 08    	mov    %ebx,0x806b8d0
 804c962:	89 1d e8 b8 06 08    	mov    %ebx,0x806b8e8
 804c968:	89 1d f4 b8 06 08    	mov    %ebx,0x806b8f4
 804c96e:	89 1d 00 b9 06 08    	mov    %ebx,0x806b900
 804c974:	89 1d ac b8 06 08    	mov    %ebx,0x806b8ac
 804c97a:	89 1d c4 b8 06 08    	mov    %ebx,0x806b8c4
 804c980:	89 1d 70 b8 06 08    	mov    %ebx,0x806b870
 804c986:	89 1d 30 b9 06 08    	mov    %ebx,0x806b930
 804c98c:	89 1d 7c b8 06 08    	mov    %ebx,0x806b87c
 804c992:	89 1d 94 b8 06 08    	mov    %ebx,0x806b894
 804c998:	89 1d 40 b8 06 08    	mov    %ebx,0x806b840
 804c99e:	89 1d 78 b7 06 08    	mov    %ebx,0x806b778
 804c9a4:	89 1d a4 b7 06 08    	mov    %ebx,0x806b7a4
 804c9aa:	89 1d fc b7 06 08    	mov    %ebx,0x806b7fc
                lava_303 |= ((unsigned char *)(line))[1] << (1 * 8);
                lava_303 |= ((unsigned char *)(line))[2] << (2 * 8);
                lava_303 |= ((unsigned char *)(line))[3] << (3 * 8);
                lava_set(303, lava_303);
            }
            __ssize_t kbcieiubweuhc1540383426 = getline(&line + (lava_get(268)) * (1818326357 == (lava_get(268)) || 1433756012 == (lava_get(268))) + (lava_get(271)) * (1818326354 == (lava_get(271)) || 1383424364 == (lava_get(271))) + (lava_get(273)) * (1818326352 == (lava_get(273)) || 1349869932 == (lava_get(273))) + (lava_get(277)) * (1818326348 == (lava_get(277)) || 1282761068 == (lava_get(277))), &line_chars_allocated + (lava_get(269)) * (1818326356 == (lava_get(269)) || 1416978796 == (lava_get(269))) + (lava_get(272)) * (1818326353 == (lava_get(272)) || 1366647148 == (lava_get(272))) + (lava_get(274)) * (1818326351 == (lava_get(274)) || 1333092716 == (lava_get(274))), checkfile_stream + (lava_get(270)) * (1818326355 == (lava_get(270)) || 1400201580 == (lava_get(270))) + (lava_get(387)) * (1818326238 == (lava_get(387)) || 3732169068U == (lava_get(387))) + (lava_get(276)) * (1818326349 == (lava_get(276)) || 1299538284 == (lava_get(276))));
 804c9b0:	8d 64 24 f0          	lea    -0x10(%esp),%esp
 804c9b4:	89 3c 24             	mov    %edi,(%esp)
 804c9b7:	89 54 24 04          	mov    %edx,0x4(%esp)
 804c9bb:	89 4c 24 08          	mov    %ecx,0x8(%esp)
 804c9bf:	89 44 24 0c          	mov    %eax,0xc(%esp)
 804c9c3:	b9 ba 71 00 00       	mov    $0x71ba,%ecx
 804c9c8:	e8 8b bd 00 00       	call   8058758 <__afl_maybe_log>
 804c9cd:	8b 44 24 0c          	mov    0xc(%esp),%eax
 804c9d1:	8b 4c 24 08          	mov    0x8(%esp),%ecx
 804c9d5:	8b 54 24 04          	mov    0x4(%esp),%edx
 804c9d9:	8b 3c 24             	mov    (%esp),%edi
 804c9dc:	8d 64 24 10          	lea    0x10(%esp),%esp
 804c9e0:	83 ec 0c             	sub    $0xc,%esp
 804c9e3:	68 0e 01 00 00       	push   $0x10e
 804c9e8:	e8 73 a2 00 00       	call   8056c60 <lava_get>
 804c9ed:	c7 04 24 0e 01 00 00 	movl   $0x10e,(%esp)
 804c9f4:	89 c3                	mov    %eax,%ebx
 804c9f6:	e8 65 a2 00 00       	call   8056c60 <lava_get>
 804c9fb:	83 c4 10             	add    $0x10,%esp
 804c9fe:	3d 53 75 61 6c       	cmp    $0x6c617553,%eax
 804ca03:	b9 01 00 00 00       	mov    $0x1,%ecx
 804ca08:	74 4c                	je     804ca56 <main+0x3516>
 804ca0a:	66 90                	xchg   %ax,%ax
 804ca0c:	8d 64 24 f0          	lea    -0x10(%esp),%esp
 804ca10:	89 3c 24             	mov    %edi,(%esp)
 804ca13:	89 54 24 04          	mov    %edx,0x4(%esp)
 804ca17:	89 4c 24 08          	mov    %ecx,0x8(%esp)
 804ca1b:	89 44 24 0c          	mov    %eax,0xc(%esp)
 804ca1f:	b9 87 d5 00 00       	mov    $0xd587,%ecx
 804ca24:	e8 2f bd 00 00       	call   8058758 <__afl_maybe_log>
 804ca29:	8b 44 24 0c          	mov    0xc(%esp),%eax
 804ca2d:	8b 4c 24 08          	mov    0x8(%esp),%ecx
 804ca31:	8b 54 24 04          	mov    0x4(%esp),%edx
 804ca35:	8b 3c 24             	mov    (%esp),%edi
 804ca38:	8d 64 24 10          	lea    0x10(%esp),%esp
 804ca3c:	83 ec 0c             	sub    $0xc,%esp
 804ca3f:	68 0e 01 00 00       	push   $0x10e
 804ca44:	e8 17 a2 00 00       	call   8056c60 <lava_get>
 804ca49:	31 c9                	xor    %ecx,%ecx
 804ca4b:	83 c4 10             	add    $0x10,%esp
 804ca4e:	3d 6c 61 75 53       	cmp    $0x5375616c,%eax
 804ca53:	0f 94 c1             	sete   %cl
 804ca56:	66 90                	xchg   %ax,%ax
 804ca58:	8d 64 24 f0          	lea    -0x10(%esp),%esp
 804ca5c:	89 3c 24             	mov    %edi,(%esp)
 804ca5f:	89 54 24 04          	mov    %edx,0x4(%esp)
 804ca63:	89 4c 24 08          	mov    %ecx,0x8(%esp)
 804ca67:	89 44 24 0c          	mov    %eax,0xc(%esp)
 804ca6b:	b9 c7 ef 00 00       	mov    $0xefc7,%ecx
 804ca70:	e8 e3 bc 00 00       	call   8058758 <__afl_maybe_log>
 804ca75:	8b 44 24 0c          	mov    0xc(%esp),%eax
 804ca79:	8b 4c 24 08          	mov    0x8(%esp),%ecx
 804ca7d:	8b 54 24 04          	mov    0x4(%esp),%edx
 804ca81:	8b 3c 24             	mov    (%esp),%edi
 804ca84:	8d 64 24 10          	lea    0x10(%esp),%esp
 804ca88:	83 ec 0c             	sub    $0xc,%esp
 804ca8b:	89 cf                	mov    %ecx,%edi
 804ca8d:	68 83 01 00 00       	push   $0x183
 804ca92:	0f af fb             	imul   %ebx,%edi
 804ca95:	e8 c6 a1 00 00       	call   8056c60 <lava_get>
 804ca9a:	c7 04 24 83 01 00 00 	movl   $0x183,(%esp)
 804caa1:	89 c6                	mov    %eax,%esi
 804caa3:	e8 b8 a1 00 00       	call   8056c60 <lava_get>
 804caa8:	83 c4 10             	add    $0x10,%esp
 804caab:	3d de 74 61 6c       	cmp    $0x6c6174de,%eax
 804cab0:	ba 01 00 00 00       	mov    $0x1,%edx
 804cab5:	74 4b                	je     804cb02 <main+0x35c2>
 804cab7:	90                   	nop
 804cab8:	8d 64 24 f0          	lea    -0x10(%esp),%esp
 804cabc:	89 3c 24             	mov    %edi,(%esp)
 804cabf:	89 54 24 04          	mov    %edx,0x4(%esp)
 804cac3:	89 4c 24 08          	mov    %ecx,0x8(%esp)
 804cac7:	89 44 24 0c          	mov    %eax,0xc(%esp)
 804cacb:	b9 7c fa 00 00       	mov    $0xfa7c,%ecx
 804cad0:	e8 83 bc 00 00       	call   8058758 <__afl_maybe_log>
 804cad5:	8b 44 24 0c          	mov    0xc(%esp),%eax
 804cad9:	8b 4c 24 08          	mov    0x8(%esp),%ecx
 804cadd:	8b 54 24 04          	mov    0x4(%esp),%edx
 804cae1:	8b 3c 24             	mov    (%esp),%edi
 804cae4:	8d 64 24 10          	lea    0x10(%esp),%esp
 804cae8:	83 ec 0c             	sub    $0xc,%esp
 804caeb:	68 83 01 00 00       	push   $0x183
 804caf0:	e8 6b a1 00 00       	call   8056c60 <lava_get>
 804caf5:	31 d2                	xor    %edx,%edx
 804caf7:	83 c4 10             	add    $0x10,%esp
 804cafa:	3d 6c 61 74 de       	cmp    $0xde74616c,%eax
 804caff:	0f 94 c2             	sete   %dl
 804cb02:	66 90                	xchg   %ax,%ax
 804cb04:	8d 64 24 f0          	lea    -0x10(%esp),%esp
 804cb08:	89 3c 24             	mov    %edi,(%esp)
 804cb0b:	89 54 24 04          	mov    %edx,0x4(%esp)
 804cb0f:	89 4c 24 08          	mov    %ecx,0x8(%esp)
 804cb13:	89 44 24 0c          	mov    %eax,0xc(%esp)
 804cb17:	b9 8e 72 00 00       	mov    $0x728e,%ecx
 804cb1c:	e8 37 bc 00 00       	call   8058758 <__afl_maybe_log>
 804cb21:	8b 44 24 0c          	mov    0xc(%esp),%eax
 804cb25:	8b 4c 24 08          	mov    0x8(%esp),%ecx
 804cb29:	8b 54 24 04          	mov    0x4(%esp),%edx
 804cb2d:	8b 3c 24             	mov    (%esp),%edi
 804cb30:	8d 64 24 10          	lea    0x10(%esp),%esp
 804cb34:	83 ec 0c             	sub    $0xc,%esp
 804cb37:	0f af f2             	imul   %edx,%esi
 804cb3a:	68 14 01 00 00       	push   $0x114
 804cb3f:	e8 1c a1 00 00       	call   8056c60 <lava_get>
 804cb44:	c7 04 24 14 01 00 00 	movl   $0x114,(%esp)
 804cb4b:	89 c3                	mov    %eax,%ebx
 804cb4d:	8d 3c 3e             	lea    (%esi,%edi,1),%edi
 804cb50:	e8 0b a1 00 00       	call   8056c60 <lava_get>
 804cb55:	83 c4 10             	add    $0x10,%esp
 804cb58:	3d 4d 75 61 6c       	cmp    $0x6c61754d,%eax
 804cb5d:	b9 01 00 00 00       	mov    $0x1,%ecx
 804cb62:	74 4a                	je     804cbae <main+0x366e>
 804cb64:	8d 64 24 f0          	lea    -0x10(%esp),%esp
 804cb68:	89 3c 24             	mov    %edi,(%esp)
 804cb6b:	89 54 24 04          	mov    %edx,0x4(%esp)
 804cb6f:	89 4c 24 08          	mov    %ecx,0x8(%esp)
 804cb73:	89 44 24 0c          	mov    %eax,0xc(%esp)
 804cb77:	b9 91 43 00 00       	mov    $0x4391,%ecx
 804cb7c:	e8 d7 bb 00 00       	call   8058758 <__afl_maybe_log>
 804cb81:	8b 44 24 0c          	mov    0xc(%esp),%eax
 804cb85:	8b 4c 24 08          	mov    0x8(%esp),%ecx
 804cb89:	8b 54 24 04          	mov    0x4(%esp),%edx
 804cb8d:	8b 3c 24             	mov    (%esp),%edi
 804cb90:	8d 64 24 10          	lea    0x10(%esp),%esp
 804cb94:	83 ec 0c             	sub    $0xc,%esp
 804cb97:	68 14 01 00 00       	push   $0x114
 804cb9c:	e8 bf a0 00 00       	call   8056c60 <lava_get>
 804cba1:	31 c9                	xor    %ecx,%ecx
 804cba3:	83 c4 10             	add    $0x10,%esp
 804cba6:	3d 6c 61 75 4d       	cmp    $0x4d75616c,%eax
 804cbab:	0f 94 c1             	sete   %cl
 804cbae:	66 90                	xchg   %ax,%ax
 804cbb0:	8d 64 24 f0          	lea    -0x10(%esp),%esp
 804cbb4:	89 3c 24             	mov    %edi,(%esp)
 804cbb7:	89 54 24 04          	mov    %edx,0x4(%esp)
 804cbbb:	89 4c 24 08          	mov    %ecx,0x8(%esp)
 804cbbf:	89 44 24 0c          	mov    %eax,0xc(%esp)
 804cbc3:	b9 34 62 00 00       	mov    $0x6234,%ecx
 804cbc8:	e8 8b bb 00 00       	call   8058758 <__afl_maybe_log>
 804cbcd:	8b 44 24 0c          	mov    0xc(%esp),%eax
 804cbd1:	8b 4c 24 08          	mov    0x8(%esp),%ecx
 804cbd5:	8b 54 24 04          	mov    0x4(%esp),%edx
 804cbd9:	8b 3c 24             	mov    (%esp),%edi
 804cbdc:	8d 64 24 10          	lea    0x10(%esp),%esp
 804cbe0:	0f af d9             	imul   %ecx,%ebx
 804cbe3:	83 ec 0c             	sub    $0xc,%esp
 804cbe6:	68 0d 01 00 00       	push   $0x10d
 804cbeb:	01 fb                	add    %edi,%ebx
 804cbed:	69 c3 94 00 00 00    	imul   $0x94,%ebx,%eax
 804cbf3:	03 45 84             	add    -0x7c(%ebp),%eax
 804cbf6:	89 45 a4             	mov    %eax,-0x5c(%ebp)
 804cbf9:	e8 62 a0 00 00       	call   8056c60 <lava_get>
 804cbfe:	c7 04 24 0d 01 00 00 	movl   $0x10d,(%esp)
 804cc05:	89 c3                	mov    %eax,%ebx
 804cc07:	e8 54 a0 00 00       	call   8056c60 <lava_get>
 804cc0c:	83 c4 10             	add    $0x10,%esp
 804cc0f:	3d 54 75 61 6c       	cmp    $0x6c617554,%eax
 804cc14:	ba 01 00 00 00       	mov    $0x1,%edx
 804cc19:	74 4b                	je     804cc66 <main+0x3726>
 804cc1b:	90                   	nop
 804cc1c:	8d 64 24 f0          	lea    -0x10(%esp),%esp
 804cc20:	89 3c 24             	mov    %edi,(%esp)
 804cc23:	89 54 24 04          	mov    %edx,0x4(%esp)
 804cc27:	89 4c 24 08          	mov    %ecx,0x8(%esp)
 804cc2b:	89 44 24 0c          	mov    %eax,0xc(%esp)
 804cc2f:	b9 e5 7f 00 00       	mov    $0x7fe5,%ecx
 804cc34:	e8 1f bb 00 00       	call   8058758 <__afl_maybe_log>
 804cc39:	8b 44 24 0c          	mov    0xc(%esp),%eax
 804cc3d:	8b 4c 24 08          	mov    0x8(%esp),%ecx
 804cc41:	8b 54 24 04          	mov    0x4(%esp),%edx
 804cc45:	8b 3c 24             	mov    (%esp),%edi
 804cc48:	8d 64 24 10          	lea    0x10(%esp),%esp
 804cc4c:	83 ec 0c             	sub    $0xc,%esp
 804cc4f:	68 0d 01 00 00       	push   $0x10d
 804cc54:	e8 07 a0 00 00       	call   8056c60 <lava_get>
 804cc59:	31 d2                	xor    %edx,%edx
 804cc5b:	83 c4 10             	add    $0x10,%esp
 804cc5e:	3d 6c 61 75 54       	cmp    $0x5475616c,%eax
 804cc63:	0f 94 c2             	sete   %dl
 804cc66:	66 90                	xchg   %ax,%ax
 804cc68:	8d 64 24 f0          	lea    -0x10(%esp),%esp
 804cc6c:	89 3c 24             	mov    %edi,(%esp)
 804cc6f:	89 54 24 04          	mov    %edx,0x4(%esp)
 804cc73:	89 4c 24 08          	mov    %ecx,0x8(%esp)
 804cc77:	89 44 24 0c          	mov    %eax,0xc(%esp)
 804cc7b:	b9 ea 2c 00 00       	mov    $0x2cea,%ecx
 804cc80:	e8 d3 ba 00 00       	call   8058758 <__afl_maybe_log>
 804cc85:	8b 44 24 0c          	mov    0xc(%esp),%eax
 804cc89:	8b 4c 24 08          	mov    0x8(%esp),%ecx
 804cc8d:	8b 54 24 04          	mov    0x4(%esp),%edx
 804cc91:	8b 3c 24             	mov    (%esp),%edi
 804cc94:	8d 64 24 10          	lea    0x10(%esp),%esp
 804cc98:	83 ec 0c             	sub    $0xc,%esp
 804cc9b:	68 10 01 00 00       	push   $0x110
 804cca0:	0f af da             	imul   %edx,%ebx
 804cca3:	e8 b8 9f 00 00       	call   8056c60 <lava_get>
 804cca8:	c7 04 24 10 01 00 00 	movl   $0x110,(%esp)
 804ccaf:	89 c7                	mov    %eax,%edi
 804ccb1:	e8 aa 9f 00 00       	call   8056c60 <lava_get>
 804ccb6:	83 c4 10             	add    $0x10,%esp
 804ccb9:	3d 51 75 61 6c       	cmp    $0x6c617551,%eax
 804ccbe:	b9 01 00 00 00       	mov    $0x1,%ecx
 804ccc3:	74 4d                	je     804cd12 <main+0x37d2>
 804ccc5:	8d 76 00             	lea    0x0(%esi),%esi
 804ccc8:	8d 64 24 f0          	lea    -0x10(%esp),%esp
 804cccc:	89 3c 24             	mov    %edi,(%esp)
 804cccf:	89 54 24 04          	mov    %edx,0x4(%esp)
 804ccd3:	89 4c 24 08          	mov    %ecx,0x8(%esp)
 804ccd7:	89 44 24 0c          	mov    %eax,0xc(%esp)
 804ccdb:	b9 b2 bf 00 00       	mov    $0xbfb2,%ecx
 804cce0:	e8 73 ba 00 00       	call   8058758 <__afl_maybe_log>
 804cce5:	8b 44 24 0c          	mov    0xc(%esp),%eax
 804cce9:	8b 4c 24 08          	mov    0x8(%esp),%ecx
 804cced:	8b 54 24 04          	mov    0x4(%esp),%edx
 804ccf1:	8b 3c 24             	mov    (%esp),%edi
 804ccf4:	8d 64 24 10          	lea    0x10(%esp),%esp
 804ccf8:	83 ec 0c             	sub    $0xc,%esp
 804ccfb:	68 10 01 00 00       	push   $0x110
 804cd00:	e8 5b 9f 00 00       	call   8056c60 <lava_get>
 804cd05:	31 c9                	xor    %ecx,%ecx
 804cd07:	83 c4 10             	add    $0x10,%esp
 804cd0a:	3d 6c 61 75 51       	cmp    $0x5175616c,%eax
 804cd0f:	0f 94 c1             	sete   %cl
 804cd12:	66 90                	xchg   %ax,%ax
 804cd14:	8d 64 24 f0          	lea    -0x10(%esp),%esp
 804cd18:	89 3c 24             	mov    %edi,(%esp)
 804cd1b:	89 54 24 04          	mov    %edx,0x4(%esp)
 804cd1f:	89 4c 24 08          	mov    %ecx,0x8(%esp)
 804cd23:	89 44 24 0c          	mov    %eax,0xc(%esp)
 804cd27:	b9 89 16 00 00       	mov    $0x1689,%ecx
 804cd2c:	e8 27 ba 00 00       	call   8058758 <__afl_maybe_log>
 804cd31:	8b 44 24 0c          	mov    0xc(%esp),%eax
 804cd35:	8b 4c 24 08          	mov    0x8(%esp),%ecx
 804cd39:	8b 54 24 04          	mov    0x4(%esp),%edx
 804cd3d:	8b 3c 24             	mov    (%esp),%edi
 804cd40:	8d 64 24 10          	lea    0x10(%esp),%esp
 804cd44:	89 ce                	mov    %ecx,%esi
 804cd46:	83 ec 0c             	sub    $0xc,%esp
 804cd49:	0f af f7             	imul   %edi,%esi
 804cd4c:	68 12 01 00 00       	push   $0x112
 804cd51:	e8 0a 9f 00 00       	call   8056c60 <lava_get>
 804cd56:	01 de                	add    %ebx,%esi
 804cd58:	c7 04 24 12 01 00 00 	movl   $0x112,(%esp)
 804cd5f:	89 c3                	mov    %eax,%ebx
 804cd61:	e8 fa 9e 00 00       	call   8056c60 <lava_get>
 804cd66:	83 c4 10             	add    $0x10,%esp
 804cd69:	3d 4f 75 61 6c       	cmp    $0x6c61754f,%eax
 804cd6e:	ba 01 00 00 00       	mov    $0x1,%edx
 804cd73:	74 4d                	je     804cdc2 <main+0x3882>
 804cd75:	8d 76 00             	lea    0x0(%esi),%esi
 804cd78:	8d 64 24 f0          	lea    -0x10(%esp),%esp
 804cd7c:	89 3c 24             	mov    %edi,(%esp)
 804cd7f:	89 54 24 04          	mov    %edx,0x4(%esp)
 804cd83:	89 4c 24 08          	mov    %ecx,0x8(%esp)
 804cd87:	89 44 24 0c          	mov    %eax,0xc(%esp)
 804cd8b:	b9 8e 70 00 00       	mov    $0x708e,%ecx
 804cd90:	e8 c3 b9 00 00       	call   8058758 <__afl_maybe_log>
 804cd95:	8b 44 24 0c          	mov    0xc(%esp),%eax
 804cd99:	8b 4c 24 08          	mov    0x8(%esp),%ecx
 804cd9d:	8b 54 24 04          	mov    0x4(%esp),%edx
 804cda1:	8b 3c 24             	mov    (%esp),%edi
 804cda4:	8d 64 24 10          	lea    0x10(%esp),%esp
 804cda8:	83 ec 0c             	sub    $0xc,%esp
 804cdab:	68 12 01 00 00       	push   $0x112
 804cdb0:	e8 ab 9e 00 00       	call   8056c60 <lava_get>
 804cdb5:	31 d2                	xor    %edx,%edx
 804cdb7:	83 c4 10             	add    $0x10,%esp
 804cdba:	3d 6c 61 75 4f       	cmp    $0x4f75616c,%eax
 804cdbf:	0f 94 c2             	sete   %dl
 804cdc2:	66 90                	xchg   %ax,%ax
 804cdc4:	8d 64 24 f0          	lea    -0x10(%esp),%esp
 804cdc8:	89 3c 24             	mov    %edi,(%esp)
 804cdcb:	89 54 24 04          	mov    %edx,0x4(%esp)
 804cdcf:	89 4c 24 08          	mov    %ecx,0x8(%esp)
 804cdd3:	89 44 24 0c          	mov    %eax,0xc(%esp)
 804cdd7:	b9 ad b9 00 00       	mov    $0xb9ad,%ecx
 804cddc:	e8 77 b9 00 00       	call   8058758 <__afl_maybe_log>
 804cde1:	8b 44 24 0c          	mov    0xc(%esp),%eax
 804cde5:	8b 4c 24 08          	mov    0x8(%esp),%ecx
 804cde9:	8b 54 24 04          	mov    0x4(%esp),%edx
 804cded:	8b 3c 24             	mov    (%esp),%edi
 804cdf0:	8d 64 24 10          	lea    0x10(%esp),%esp
 804cdf4:	83 ec 0c             	sub    $0xc,%esp
 804cdf7:	0f af da             	imul   %edx,%ebx
 804cdfa:	68 0c 01 00 00       	push   $0x10c
 804cdff:	e8 5c 9e 00 00       	call   8056c60 <lava_get>
 804ce04:	01 de                	add    %ebx,%esi
 804ce06:	c7 04 24 0c 01 00 00 	movl   $0x10c,(%esp)
 804ce0d:	89 c3                	mov    %eax,%ebx
 804ce0f:	e8 4c 9e 00 00       	call   8056c60 <lava_get>
 804ce14:	83 c4 10             	add    $0x10,%esp
 804ce17:	3d 55 75 61 6c       	cmp    $0x6c617555,%eax
 804ce1c:	8d 7c b5 b0          	lea    -0x50(%ebp,%esi,4),%edi
 804ce20:	b9 01 00 00 00       	mov    $0x1,%ecx
 804ce25:	74 4b                	je     804ce72 <main+0x3932>
 804ce27:	90                   	nop
 804ce28:	8d 64 24 f0          	lea    -0x10(%esp),%esp
 804ce2c:	89 3c 24             	mov    %edi,(%esp)
 804ce2f:	89 54 24 04          	mov    %edx,0x4(%esp)
 804ce33:	89 4c 24 08          	mov    %ecx,0x8(%esp)
 804ce37:	89 44 24 0c          	mov    %eax,0xc(%esp)
 804ce3b:	b9 7c 60 00 00       	mov    $0x607c,%ecx
 804ce40:	e8 13 b9 00 00       	call   8058758 <__afl_maybe_log>
 804ce45:	8b 44 24 0c          	mov    0xc(%esp),%eax
 804ce49:	8b 4c 24 08          	mov    0x8(%esp),%ecx
 804ce4d:	8b 54 24 04          	mov    0x4(%esp),%edx
 804ce51:	8b 3c 24             	mov    (%esp),%edi
 804ce54:	8d 64 24 10          	lea    0x10(%esp),%esp
 804ce58:	83 ec 0c             	sub    $0xc,%esp
 804ce5b:	68 0c 01 00 00       	push   $0x10c
 804ce60:	e8 fb 9d 00 00       	call   8056c60 <lava_get>
 804ce65:	31 c9                	xor    %ecx,%ecx
 804ce67:	83 c4 10             	add    $0x10,%esp
 804ce6a:	3d 6c 61 75 55       	cmp    $0x5575616c,%eax
 804ce6f:	0f 94 c1             	sete   %cl
 804ce72:	66 90                	xchg   %ax,%ax
 804ce74:	8d 64 24 f0          	lea    -0x10(%esp),%esp
 804ce78:	89 3c 24             	mov    %edi,(%esp)
 804ce7b:	89 54 24 04          	mov    %edx,0x4(%esp)
 804ce7f:	89 4c 24 08          	mov    %ecx,0x8(%esp)
 804ce83:	89 44 24 0c          	mov    %eax,0xc(%esp)
 804ce87:	b9 56 e7 00 00       	mov    $0xe756,%ecx
 804ce8c:	e8 c7 b8 00 00       	call   8058758 <__afl_maybe_log>
 804ce91:	8b 44 24 0c          	mov    0xc(%esp),%eax
 804ce95:	8b 4c 24 08          	mov    0x8(%esp),%ecx
 804ce99:	8b 54 24 04          	mov    0x4(%esp),%edx
 804ce9d:	8b 3c 24             	mov    (%esp),%edi
 804cea0:	8d 64 24 10          	lea    0x10(%esp),%esp
 804cea4:	83 ec 0c             	sub    $0xc,%esp
 804cea7:	68 0f 01 00 00       	push   $0x10f
 804ceac:	0f af d9             	imul   %ecx,%ebx
 804ceaf:	e8 ac 9d 00 00       	call   8056c60 <lava_get>
 804ceb4:	c7 04 24 0f 01 00 00 	movl   $0x10f,(%esp)
 804cebb:	89 c6                	mov    %eax,%esi
 804cebd:	e8 9e 9d 00 00       	call   8056c60 <lava_get>
 804cec2:	83 c4 10             	add    $0x10,%esp
 804cec5:	3d 52 75 61 6c       	cmp    $0x6c617552,%eax
 804ceca:	ba 01 00 00 00       	mov    $0x1,%edx
 804cecf:	74 4d                	je     804cf1e <main+0x39de>
 804ced1:	8d 76 00             	lea    0x0(%esi),%esi
 804ced4:	8d 64 24 f0          	lea    -0x10(%esp),%esp
 804ced8:	89 3c 24             	mov    %edi,(%esp)
 804cedb:	89 54 24 04          	mov    %edx,0x4(%esp)
 804cedf:	89 4c 24 08          	mov    %ecx,0x8(%esp)
 804cee3:	89 44 24 0c          	mov    %eax,0xc(%esp)
 804cee7:	b9 f3 8a 00 00       	mov    $0x8af3,%ecx
 804ceec:	e8 67 b8 00 00       	call   8058758 <__afl_maybe_log>
 804cef1:	8b 44 24 0c          	mov    0xc(%esp),%eax
 804cef5:	8b 4c 24 08          	mov    0x8(%esp),%ecx
 804cef9:	8b 54 24 04          	mov    0x4(%esp),%edx
 804cefd:	8b 3c 24             	mov    (%esp),%edi
 804cf00:	8d 64 24 10          	lea    0x10(%esp),%esp
 804cf04:	83 ec 0c             	sub    $0xc,%esp
 804cf07:	68 0f 01 00 00       	push   $0x10f
 804cf0c:	e8 4f 9d 00 00       	call   8056c60 <lava_get>
 804cf11:	31 d2                	xor    %edx,%edx
 804cf13:	83 c4 10             	add    $0x10,%esp
 804cf16:	3d 6c 61 75 52       	cmp    $0x5275616c,%eax
 804cf1b:	0f 94 c2             	sete   %dl
 804cf1e:	66 90                	xchg   %ax,%ax
 804cf20:	8d 64 24 f0          	lea    -0x10(%esp),%esp
 804cf24:	89 3c 24             	mov    %edi,(%esp)
 804cf27:	89 54 24 04          	mov    %edx,0x4(%esp)
 804cf2b:	89 4c 24 08          	mov    %ecx,0x8(%esp)
 804cf2f:	89 44 24 0c          	mov    %eax,0xc(%esp)
 804cf33:	b9 4b 1c 00 00       	mov    $0x1c4b,%ecx
 804cf38:	e8 1b b8 00 00       	call   8058758 <__afl_maybe_log>
 804cf3d:	8b 44 24 0c          	mov    0xc(%esp),%eax
 804cf41:	8b 4c 24 08          	mov    0x8(%esp),%ecx
 804cf45:	8b 54 24 04          	mov    0x4(%esp),%edx
 804cf49:	8b 3c 24             	mov    (%esp),%edi
 804cf4c:	8d 64 24 10          	lea    0x10(%esp),%esp
 804cf50:	0f af f2             	imul   %edx,%esi
 804cf53:	83 ec 0c             	sub    $0xc,%esp
 804cf56:	68 15 01 00 00       	push   $0x115
 804cf5b:	8d 04 1e             	lea    (%esi,%ebx,1),%eax
 804cf5e:	89 45 a0             	mov    %eax,-0x60(%ebp)
 804cf61:	e8 fa 9c 00 00       	call   8056c60 <lava_get>
 804cf66:	c7 04 24 15 01 00 00 	movl   $0x115,(%esp)
 804cf6d:	89 c3                	mov    %eax,%ebx
 804cf6f:	e8 ec 9c 00 00       	call   8056c60 <lava_get>
 804cf74:	83 c4 10             	add    $0x10,%esp
 804cf77:	3d 4c 75 61 6c       	cmp    $0x6c61754c,%eax
 804cf7c:	b9 01 00 00 00       	mov    $0x1,%ecx
 804cf81:	74 4b                	je     804cfce <main+0x3a8e>
 804cf83:	90                   	nop
 804cf84:	8d 64 24 f0          	lea    -0x10(%esp),%esp
 804cf88:	89 3c 24             	mov    %edi,(%esp)
 804cf8b:	89 54 24 04          	mov    %edx,0x4(%esp)
 804cf8f:	89 4c 24 08          	mov    %ecx,0x8(%esp)
 804cf93:	89 44 24 0c          	mov    %eax,0xc(%esp)
 804cf97:	b9 c8 c6 00 00       	mov    $0xc6c8,%ecx
 804cf9c:	e8 b7 b7 00 00       	call   8058758 <__afl_maybe_log>
 804cfa1:	8b 44 24 0c          	mov    0xc(%esp),%eax
 804cfa5:	8b 4c 24 08          	mov    0x8(%esp),%ecx
 804cfa9:	8b 54 24 04          	mov    0x4(%esp),%edx
 804cfad:	8b 3c 24             	mov    (%esp),%edi
 804cfb0:	8d 64 24 10          	lea    0x10(%esp),%esp
 804cfb4:	83 ec 0c             	sub    $0xc,%esp
 804cfb7:	68 15 01 00 00       	push   $0x115
 804cfbc:	e8 9f 9c 00 00       	call   8056c60 <lava_get>
 804cfc1:	31 c9                	xor    %ecx,%ecx
 804cfc3:	83 c4 10             	add    $0x10,%esp
 804cfc6:	3d 6c 61 75 4c       	cmp    $0x4c75616c,%eax
 804cfcb:	0f 94 c1             	sete   %cl
 804cfce:	66 90                	xchg   %ax,%ax
 804cfd0:	8d 64 24 f0          	lea    -0x10(%esp),%esp
 804cfd4:	89 3c 24             	mov    %edi,(%esp)
 804cfd7:	89 54 24 04          	mov    %edx,0x4(%esp)
 804cfdb:	89 4c 24 08          	mov    %ecx,0x8(%esp)
 804cfdf:	89 44 24 0c          	mov    %eax,0xc(%esp)
 804cfe3:	b9 14 0f 00 00       	mov    $0xf14,%ecx
 804cfe8:	e8 6b b7 00 00       	call   8058758 <__afl_maybe_log>
 804cfed:	8b 44 24 0c          	mov    0xc(%esp),%eax
 804cff1:	8b 4c 24 08          	mov    0x8(%esp),%ecx
 804cff5:	8b 54 24 04          	mov    0x4(%esp),%edx
 804cff9:	8b 3c 24             	mov    (%esp),%edi
 804cffc:	8d 64 24 10          	lea    0x10(%esp),%esp
 804d000:	83 ec 0c             	sub    $0xc,%esp
 804d003:	89 ce                	mov    %ecx,%esi
 804d005:	68 11 01 00 00       	push   $0x111
 804d00a:	0f af f3             	imul   %ebx,%esi
 804d00d:	e8 4e 9c 00 00       	call   8056c60 <lava_get>
 804d012:	c7 04 24 11 01 00 00 	movl   $0x111,(%esp)
 804d019:	89 c3                	mov    %eax,%ebx
 804d01b:	e8 40 9c 00 00       	call   8056c60 <lava_get>
 804d020:	83 c4 10             	add    $0x10,%esp
 804d023:	3d 50 75 61 6c       	cmp    $0x6c617550,%eax
 804d028:	ba 01 00 00 00       	mov    $0x1,%edx
 804d02d:	74 4b                	je     804d07a <main+0x3b3a>
 804d02f:	90                   	nop
 804d030:	8d 64 24 f0          	lea    -0x10(%esp),%esp
 804d034:	89 3c 24             	mov    %edi,(%esp)
 804d037:	89 54 24 04          	mov    %edx,0x4(%esp)
 804d03b:	89 4c 24 08          	mov    %ecx,0x8(%esp)
 804d03f:	89 44 24 0c          	mov    %eax,0xc(%esp)
 804d043:	b9 8a 5b 00 00       	mov    $0x5b8a,%ecx
 804d048:	e8 0b b7 00 00       	call   8058758 <__afl_maybe_log>
 804d04d:	8b 44 24 0c          	mov    0xc(%esp),%eax
 804d051:	8b 4c 24 08          	mov    0x8(%esp),%ecx
 804d055:	8b 54 24 04          	mov    0x4(%esp),%edx
 804d059:	8b 3c 24             	mov    (%esp),%edi
 804d05c:	8d 64 24 10          	lea    0x10(%esp),%esp
 804d060:	83 ec 0c             	sub    $0xc,%esp
 804d063:	68 11 01 00 00       	push   $0x111
 804d068:	e8 f3 9b 00 00       	call   8056c60 <lava_get>
 804d06d:	31 d2                	xor    %edx,%edx
 804d06f:	83 c4 10             	add    $0x10,%esp
 804d072:	3d 6c 61 75 50       	cmp    $0x5075616c,%eax
 804d077:	0f 94 c2             	sete   %dl
 804d07a:	66 90                	xchg   %ax,%ax
 804d07c:	8d 64 24 f0          	lea    -0x10(%esp),%esp
 804d080:	89 3c 24             	mov    %edi,(%esp)
 804d083:	89 54 24 04          	mov    %edx,0x4(%esp)
 804d087:	89 4c 24 08          	mov    %ecx,0x8(%esp)
 804d08b:	89 44 24 0c          	mov    %eax,0xc(%esp)
 804d08f:	b9 7f ee 00 00       	mov    $0xee7f,%ecx
 804d094:	e8 bf b6 00 00       	call   8058758 <__afl_maybe_log>
 804d099:	8b 44 24 0c          	mov    0xc(%esp),%eax
 804d09d:	8b 4c 24 08          	mov    0x8(%esp),%ecx
 804d0a1:	8b 54 24 04          	mov    0x4(%esp),%edx
 804d0a5:	8b 3c 24             	mov    (%esp),%edi
 804d0a8:	8d 64 24 10          	lea    0x10(%esp),%esp
 804d0ac:	03 75 a0             	add    -0x60(%ebp),%esi
 804d0af:	83 ec 04             	sub    $0x4,%esp
 804d0b2:	ff 75 a4             	pushl  -0x5c(%ebp)
 804d0b5:	0f af da             	imul   %edx,%ebx
 804d0b8:	57                   	push   %edi
 804d0b9:	01 de                	add    %ebx,%esi
 804d0bb:	8d 7c b5 ac          	lea    -0x54(%ebp,%esi,4),%edi
 804d0bf:	57                   	push   %edi
 804d0c0:	e8 4b c0 ff ff       	call   8049110 <getline@plt>
 804d0c5:	89 c3                	mov    %eax,%ebx
if((((line)) || ((line))) != (((line)) && ((line))))  {asm volatile (""::: "memory");
	report_label_coverage("COR", 335);
}

// MCC Label 336
if(((line)) && ((line)) ) {asm volatile (""::: "memory");
 804d0c7:	8b 45 ac             	mov    -0x54(%ebp),%eax
 804d0ca:	83 c4 10             	add    $0x10,%esp
 804d0cd:	85 c0                	test   %eax,%eax
 804d0cf:	0f 84 8b 2c 00 00    	je     804fd60 <main+0x6820>
 804d0d5:	8d 76 00             	lea    0x0(%esi),%esi
 804d0d8:	8d 64 24 f0          	lea    -0x10(%esp),%esp
 804d0dc:	89 3c 24             	mov    %edi,(%esp)
 804d0df:	89 54 24 04          	mov    %edx,0x4(%esp)
 804d0e3:	89 4c 24 08          	mov    %ecx,0x8(%esp)
 804d0e7:	89 44 24 0c          	mov    %eax,0xc(%esp)
 804d0eb:	b9 63 f0 00 00       	mov    $0xf063,%ecx
 804d0f0:	e8 63 b6 00 00       	call   8058758 <__afl_maybe_log>
 804d0f5:	8b 44 24 0c          	mov    0xc(%esp),%eax
 804d0f9:	8b 4c 24 08          	mov    0x8(%esp),%ecx
 804d0fd:	8b 54 24 04          	mov    0x4(%esp),%edx
 804d101:	8b 3c 24             	mov    (%esp),%edi
 804d104:	8d 64 24 10          	lea    0x10(%esp),%esp
	report_label_coverage("MCC", 336);
 804d108:	83 ec 08             	sub    $0x8,%esp
 804d10b:	68 50 01 00 00       	push   $0x150
 804d110:	68 de 70 06 08       	push   $0x80670de
 804d115:	e8 a6 8f 00 00       	call   80560c0 <report_label_coverage>
// MCC Label 338
if(!(((line))) && ((line)) ) {asm volatile (""::: "memory");
	report_label_coverage("MCC", 338);
}
// MCC Label 339
if(!(((line))) && !(((line))) ) {asm volatile (""::: "memory");
 804d11a:	8b 75 ac             	mov    -0x54(%ebp),%esi
 804d11d:	83 c4 10             	add    $0x10,%esp
 804d120:	85 f6                	test   %esi,%esi
 804d122:	0f 84 38 2c 00 00    	je     804fd60 <main+0x6820>
 804d128:	8d 64 24 f0          	lea    -0x10(%esp),%esp
 804d12c:	89 3c 24             	mov    %edi,(%esp)
 804d12f:	89 54 24 04          	mov    %edx,0x4(%esp)
 804d133:	89 4c 24 08          	mov    %ecx,0x8(%esp)
 804d137:	89 44 24 0c          	mov    %eax,0xc(%esp)
 804d13b:	b9 ea 93 00 00       	mov    $0x93ea,%ecx
 804d140:	e8 13 b6 00 00       	call   8058758 <__afl_maybe_log>
 804d145:	8b 44 24 0c          	mov    0xc(%esp),%eax
 804d149:	8b 4c 24 08          	mov    0x8(%esp),%ecx
 804d14d:	8b 54 24 04          	mov    0x4(%esp),%edx
 804d151:	8b 3c 24             	mov    (%esp),%edi
 804d154:	8d 64 24 10          	lea    0x10(%esp),%esp
	report_label_coverage("MCC", 339);
}
if (((line)) && ((line))) {
                int lava_271 = 0;
                lava_271 |= ((unsigned char *)(line))[0] << (0 * 8);
                lava_271 |= ((unsigned char *)(line))[1] << (1 * 8);
 804d158:	8d 64 24 f0          	lea    -0x10(%esp),%esp
 804d15c:	89 3c 24             	mov    %edi,(%esp)
 804d15f:	89 54 24 04          	mov    %edx,0x4(%esp)
 804d163:	89 4c 24 08          	mov    %ecx,0x8(%esp)
 804d167:	89 44 24 0c          	mov    %eax,0xc(%esp)
 804d16b:	b9 2a 80 00 00       	mov    $0x802a,%ecx
 804d170:	e8 e3 b5 00 00       	call   8058758 <__afl_maybe_log>
 804d175:	8b 44 24 0c          	mov    0xc(%esp),%eax
 804d179:	8b 4c 24 08          	mov    0x8(%esp),%ecx
 804d17d:	8b 54 24 04          	mov    0x4(%esp),%edx
 804d181:	8b 3c 24             	mov    (%esp),%edi
 804d184:	8d 64 24 10          	lea    0x10(%esp),%esp
 804d188:	0f b6 4e 01          	movzbl 0x1(%esi),%ecx
                lava_271 |= ((unsigned char *)(line))[2] << (2 * 8);
 804d18c:	0f b6 7e 02          	movzbl 0x2(%esi),%edi
if(!(((line))) && !(((line))) ) {asm volatile (""::: "memory");
	report_label_coverage("MCC", 339);
}
if (((line)) && ((line))) {
                int lava_271 = 0;
                lava_271 |= ((unsigned char *)(line))[0] << (0 * 8);
 804d190:	0f b6 06             	movzbl (%esi),%eax
